 PhysXCommon_64

 Timestamp is 6999f23e (Sat Feb 21 18:58:22 2026)

 Preferred load address is 0000000180000000

 Start         Length     Name                   Class
 0001:00000000 00003650H .text$di                CODE
 0001:00003650 001f1920H .text$mn                CODE
 0001:001f4f70 00000040H .text$mn$00             CODE
 0001:001f4fb0 00000490H .text$x                 CODE
 0001:001f5440 0000000fH .text$yd                CODE
 0002:00000000 00000260H .idata$5                DATA
 0002:00000260 00000028H .00cfg                  DATA
 0002:00000288 00000008H .CRT$XCA                DATA
 0002:00000290 00001af0H .CRT$XCU                DATA
 0002:00001d80 00000008H .CRT$XCZ                DATA
 0002:00001d88 00000008H .CRT$XIA                DATA
 0002:00001d90 00000018H .CRT$XIC                DATA
 0002:00001da8 00000008H .CRT$XIZ                DATA
 0002:00001db0 00000008H .CRT$XPA                DATA
 0002:00001db8 00000010H .CRT$XPX                DATA
 0002:00001dc8 00000008H .CRT$XPXA               DATA
 0002:00001dd0 00000008H .CRT$XPZ                DATA
 0002:00001dd8 00000008H .CRT$XTA                DATA
 0002:00001de0 00000010H .CRT$XTZ                DATA
 0002:00001de8 00000000H .gehcont$y              DATA
 0002:00001de8 00000000H .gfids$y                DATA
 0002:00001df0 00012810H .rdata                  DATA
 0002:00014600 00000000H .rdata$CastGuardVftablesA DATA
 0002:00014600 00000000H .rdata$CastGuardVftablesC DATA
 0002:00014600 0000043cH .rdata$r                DATA
 0002:00014a3c 00000100H .rdata$voltmd           DATA
 0002:00014b3c 00000424H .rdata$zzzdbg           DATA
 0002:00014f60 00000008H .rtc$IAA                DATA
 0002:00014f68 00000008H .rtc$IZZ                DATA
 0002:00014f70 00000008H .rtc$TAA                DATA
 0002:00014f78 00000008H .rtc$TZZ                DATA
 0002:00014f80 00016cb8H .xdata                  DATA
 0002:0002bc38 00000084H .xdata$x                DATA
 0002:0002bcbc 00000020H .didat$2                DATA
 0002:0002bcdc 00000024H .didat$3                DATA
 0002:0002bd00 000000d0H .didat$4                DATA
 0002:0002bdd0 00000430H .didat$6                DATA
 0002:0002c200 000000d0H .didat$7                DATA
 0002:0002c2d0 0000c6ccH .edata                  DATA
 0002:0003899c 00000014H .idata$2                DATA
 0002:000389b0 00000018H .idata$3                DATA
 0002:000389c8 00000260H .idata$4                DATA
 0002:00038c28 00000586H .idata$6                DATA
 0003:00000000 00001c90H .data                   DATA
 0003:00001c90 00001278H .data$r                 DATA
 0003:00002f08 000000f0H .data$rs                DATA
 0003:00002ff8 000000d8H .didat$5                DATA
 0003:000030d0 0000486cH .bss                    DATA
 0004:00000000 0000d3bcH .pdata                  DATA
 0005:00000000 00002304H _RDATA                  DATA
 0006:00000000 000000a0H .rsrc$01                DATA
 0006:000000a0 000004b0H .rsrc$02                DATA

  Address         Publics by Value              Rva+Base               Lib:Object

 0000:00000000       __hybrid_code_map          0000000000000000     <absolute>
 0000:00000000       __arm64x_extra_rfe_table_size 0000000000000000     <absolute>
 0000:00000000       __x64_code_ranges_to_entry_points_count 0000000000000000     <absolute>
 0000:00000000       ___safe_se_handler_count   0000000000000000     <absolute>
 0000:00000000       __arm64x_redirection_metadata 0000000000000000     <absolute>
 0000:00000000       __guard_iat_table          0000000000000000     <absolute>
 0000:00000000       __guard_iat_count          0000000000000000     <absolute>
 0000:00000000       __guard_longjmp_count      0000000000000000     <absolute>
 0000:00000000       ___safe_se_handler_table   0000000000000000     <absolute>
 0000:00000000       __dynamic_value_reloc_table 0000000000000000     <absolute>
 0000:00000000       __guard_eh_cont_count      0000000000000000     <absolute>
 0000:00000000       __hybrid_auxiliary_iat     0000000000000000     <absolute>
 0000:00000000       __hybrid_auxiliary_iat_copy 0000000000000000     <absolute>
 0000:00000000       __guard_longjmp_table      0000000000000000     <absolute>
 0000:00000000       __arm64x_extra_rfe_table   0000000000000000     <absolute>
 0000:00000000       __x64_code_ranges_to_entry_points 0000000000000000     <absolute>
 0000:00000000       __AbsoluteZero             0000000000000000     <absolute>
 0000:00000000       __guard_check_icall_a64n_fptr 0000000000000000     <absolute>
 0000:00000000       __guard_fids_table         0000000000000000     <absolute>
 0000:00000000       __arm64x_redirection_metadata_count 0000000000000000     <absolute>
 0000:00000000       __enclave_config           0000000000000000     <absolute>
 0000:00000000       __guard_eh_cont_table      0000000000000000     <absolute>
 0000:00000000       __guard_fids_count         0000000000000000     <absolute>
 0000:00000000       __arm64x_native_entrypoint 0000000000000000     <absolute>
 0000:00000000       __hybrid_code_map_count    0000000000000000     <absolute>
 0000:00000100       __guard_flags              0000000000000100     <absolute>
 0000:00000000       __ImageBase                0000000180000000     <linker-defined>
 0001:00003650       ??0PtrTable@Cm@physx@@QEAA@W4PxEMPTY@2@@Z 0000000180004650 f i CmPtrTable.obj
 0001:00003670       ??0PtrTable@Cm@physx@@QEAA@XZ 0000000180004670 f   CmPtrTable.obj
 0001:00003680       _guard_check_icall_nop     0000000180004680 f   LIBCMT:guard_support.obj
 0001:00003680       ?requiresObjects@ConvexMesh@Gu@physx@@UEAAXAEAVPxProcessPxBaseCallback@3@@Z 0000000180004680 f   GuConvexMesh.obj
 0001:00003680       ?execute@?$PxThreadT@V?$PxReflectionAllocator@VPxThreadImpl@physx@@@physx@@@physx@@UEAAXXZ 0000000180004680 f   GuSDF.obj
 0001:00003680       ?profile@Callback@RTree@Gu@physx@@UEAAXXZ 0000000180004680 f   GuMidphaseRTree.obj
 0001:00003680       ?execute@PxRunnable@physx@@UEAAXXZ 0000000180004680 f   GuSDF.obj
 0001:00003680       ?merge@BucketPruner@Gu@physx@@UEAAXPEBX@Z 0000000180004680 f   GuBucketPruner.obj
 0001:00003680       ?timeStampChange@CompanionPrunerBucket@@UEAAXXZ 0000000180004680 f   GuSecondaryPruner.obj
 0001:00003680       ?purge@BucketPruner@Gu@physx@@UEAAXXZ 0000000180004680 f   GuBucketPruner.obj
 0001:00003680       ?requiresObjects@DeformableVolumeMesh@Gu@physx@@UEAAXAEAVPxProcessPxBaseCallback@3@@Z 0000000180004680 f   GuTetrahedronMesh.obj
 0001:00003680       ?merge@IncrementalAABBPruner@Gu@physx@@UEAAXPEBX@Z 0000000180004680 f   GuIncrementalAABBPruner.obj
 0001:00003680       ?checkTreeLeaf@IncrementalAABBTree@Gu@physx@@QEAAXPEAVIncrementalAABBTreeNode@23@I@Z 0000000180004680 f   GuIncrementalAABBTree.obj
 0001:00003680       ?swapIndex@CompanionPrunerAABBTree@@UEAAXII@Z 0000000180004680 f   GuSecondaryPruner.obj
 0001:00003680       ?swapIndex@CompanionPrunerBucket@@UEAAXII@Z 0000000180004680 f   GuSecondaryPruner.obj
 0001:00003680       ??1AABBTreeBuildNode@Gu@physx@@QEAA@XZ 0000000180004680 f   GuMeshFactory.obj
 0001:00003680       ??1HeightFieldData@Gu@physx@@QEAA@XZ 0000000180004680 f   GuCCTSweepTests.obj
 0001:00003680       ?visualize@BasePruner@Gu@physx@@UEBAXAEAVPxRenderOutput@3@II@Z 0000000180004680 f   GuIncrementalAABBPruner.obj
 0001:00003680       ?requiresObjects@HeightField@Gu@physx@@UEAAXAEAVPxProcessPxBaseCallback@3@@Z 0000000180004680 f   GuHeightField.obj
 0001:00003680       ??1Box@Gu@physx@@QEAA@XZ   0000000180004680 f   GuBox.obj
 0001:00003680       ?build@CompanionPrunerIncremental@@UEAAXXZ 0000000180004680 f   GuSecondaryPruner.obj
 0001:00003680       ??1PtrTable@Cm@physx@@QEAA@XZ 0000000180004680 f   CmPtrTable.obj
 0001:00003680       ?requiresObjects@TriangleMesh@Gu@physx@@UEAAXAEAVPxProcessPxBaseCallback@3@@Z 0000000180004680 f   GuTriangleMesh.obj
 0001:00003680       ??1BigConvexDataBuilder@physx@@QEAA@XZ 0000000180004680 f   GuCookingBigConvexDataBuilder.obj
 0001:00003680       ?onMeshIndexFormatChange@TriangleMeshBuilder@physx@@UEAAXXZ 0000000180004680 f   GuCookingTriangleMesh.obj
 0001:00003680       ?timeStampChange@CompanionPrunerAABBTree@@UEAAXXZ 0000000180004680 f   GuSecondaryPruner.obj
 0001:00003690       ??4AABBTreeBounds@Gu@physx@@QEAAAEAV012@AEBV012@@Z 0000000180004690 f i GuMeshFactory.obj
 0001:00003690       ??4CmModuleUpdateLoader@Cm@physx@@QEAAAEAV012@AEBV012@@Z 0000000180004690 f i CmWindowsModuleUpdateLoader.obj
 0001:00003690       ??4PtrTable@Cm@physx@@QEAAAEAU012@AEBU012@@Z 0000000180004690 f i CmPtrTable.obj
 0001:000036a0       ?add@PtrTable@Cm@physx@@QEAAXPEAXAEAVPtrTableStorageManager@23@@Z 00000001800046a0 f   CmPtrTable.obj
 0001:00003760       ?clear@PtrTable@Cm@physx@@QEAAXAEAVPtrTableStorageManager@23@@Z 0000000180004760 f   CmPtrTable.obj
 0001:000037d0       ?exportExtraData@PtrTable@Cm@physx@@QEAAXAEAVPxSerializationContext@3@@Z 00000001800047d0 f   CmPtrTable.obj
 0001:00003820       ?find@PtrTable@Cm@physx@@QEBAIPEBX@Z 0000000180004820 f   CmPtrTable.obj
 0001:00003850       ?getCount@PtrTable@Cm@physx@@QEBAIXZ 0000000180004850 f i CmPtrTable.obj
 0001:00003860       ?getPtrs@PtrTable@Cm@physx@@QEBAPEBQEAXXZ 0000000180004860 f i CmPtrTable.obj
 0001:00003860       ?getPtrs@PtrTable@Cm@physx@@QEAAPEAPEAXXZ 0000000180004860 f i CmPtrTable.obj
 0001:00003870       ?importExtraData@PtrTable@Cm@physx@@QEAAXAEAVPxDeserializationContext@3@@Z 0000000180004870 f   CmPtrTable.obj
 0001:000038a0       ?realloc@PtrTable@Cm@physx@@AEAAXIIAEAVPtrTableStorageManager@23@@Z 00000001800048a0 f   CmPtrTable.obj
 0001:00003930       ?replaceWithLast@PtrTable@Cm@physx@@QEAAXIAEAVPtrTableStorageManager@23@@Z 0000000180004930 f   CmPtrTable.obj
 0001:00003a30       ??_ECollection@Cm@physx@@UEAAPEAXI@Z 0000000180004a30 f i CmCollection.obj
 0001:00003a30       ??_GCollection@Cm@physx@@UEAAPEAXI@Z 0000000180004a30 f i CmCollection.obj
 0001:00003ae0       ??_GPxCollection@physx@@MEAAPEAXI@Z 0000000180004ae0 f i CmCollection.obj
 0001:00003ae0       ??_EPxCollection@physx@@MEAAPEAXI@Z 0000000180004ae0 f i CmCollection.obj
 0001:00003b10       ?add@Collection@Cm@physx@@UEAAXAEAVPxBase@3@_K@Z 0000000180004b10 f   CmCollection.obj
 0001:00003c00       ?add@Collection@Cm@physx@@UEAAXAEAVPxCollection@3@@Z 0000000180004c00 f   CmCollection.obj
 0001:00003e20       ?addId@Collection@Cm@physx@@UEAAXAEAVPxBase@3@_K@Z 0000000180004e20 f   CmCollection.obj
 0001:00003f50       ?contains@Collection@Cm@physx@@UEBA_NAEAVPxBase@3@@Z 0000000180004f50 f   CmCollection.obj
 0001:00004000       ?create@?$PxHashBase@V?$PxPair@QEAVPxBase@physx@@_K@physx@@PEAVPxBase@2@U?$PxHash@PEAVPxBase@physx@@@2@UGetKey@?$PxHashMapBase@PEAVPxBase@physx@@_KU?$PxHash@PEAVPxBase@physx@@@2@VPxAllocator@2@@2@VPxAllocator@2@$00@physx@@QEAAPEAV?$PxPair@QEAVPxBase@physx@@_K@2@AEBQEAVPxBase@2@AEA_N@Z 0000000180005000 f i CmCollection.obj
 0001:00004000       ?create@?$PxHashBase@V?$PxPair@$$CB_KPEAVPxBase@physx@@@physx@@_KU?$PxHash@_K@2@UGetKey@?$PxHashMapBase@_KPEAVPxBase@physx@@U?$PxHash@_K@2@VPxAllocator@2@@2@VPxAllocator@2@$00@physx@@QEAAPEAV?$PxPair@$$CB_KPEAVPxBase@physx@@@2@AEB_KAEA_N@Z 0000000180005000 f i CmCollection.obj
 0001:000041a0       ?erase@?$PxHashBase@V?$PxPair@$$CB_KPEAVPxBase@physx@@@physx@@_KU?$PxHash@_K@2@UGetKey@?$PxHashMapBase@_KPEAVPxBase@physx@@U?$PxHash@_K@2@VPxAllocator@2@@2@VPxAllocator@2@$00@physx@@QEAA_NAEB_K@Z 00000001800051a0 f i CmCollection.obj
 0001:000041a0       ?erase@?$PxHashBase@V?$PxPair@QEAVPxBase@physx@@_K@physx@@PEAVPxBase@2@U?$PxHash@PEAVPxBase@physx@@@2@UGetKey@?$PxHashMapBase@PEAVPxBase@physx@@_KU?$PxHash@PEAVPxBase@physx@@@2@VPxAllocator@2@@2@VPxAllocator@2@$00@physx@@QEAA_NAEBQEAVPxBase@2@@Z 00000001800051a0 f i CmCollection.obj
 0001:00004340       ?find@?$PxHashMapBase@_KPEAVPxBase@physx@@U?$PxHash@_K@2@VPxAllocator@2@@physx@@QEBAPEBV?$PxPair@$$CB_KPEAVPxBase@physx@@@2@AEB_K@Z 0000000180005340 f i CmCollection.obj
 0001:00004340       ?find@?$PxHashMapBase@PEAVPxBase@physx@@_KU?$PxHash@PEAVPxBase@physx@@@2@VPxAllocator@2@@physx@@QEBAPEBV?$PxPair@QEAVPxBase@physx@@_K@2@AEBQEAVPxBase@2@@Z 0000000180005340 f i CmCollection.obj
 0001:000043e0       ?find@Collection@Cm@physx@@UEBAPEAVPxBase@3@_K@Z 00000001800053e0 f   CmCollection.obj
 0001:00004440       ?getId@Collection@Cm@physx@@UEBA_KAEBVPxBase@3@@Z 0000000180005440 f   CmCollection.obj
 0001:000044f0       ?getIds@Collection@Cm@physx@@UEBAIPEA_KII@Z 00000001800054f0 f   CmCollection.obj
 0001:00004600       ?getNbIds@Collection@Cm@physx@@UEBAIXZ 0000000180005600 f   CmCollection.obj
 0001:00004610       ?getNbObjects@Collection@Cm@physx@@UEBAIXZ 0000000180005610 f   CmCollection.obj
 0001:00004620       ?getObject@Collection@Cm@physx@@UEBAAEAVPxBase@3@I@Z 0000000180005620 f   CmCollection.obj
 0001:00004630       ?getObjects@Collection@Cm@physx@@UEBAIPEAPEAVPxBase@3@II@Z 0000000180005630 f   CmCollection.obj
 0001:000046d0       ?insert@?$PxHashMapBase@_KPEAVPxBase@physx@@U?$PxHash@_K@2@VPxAllocator@2@@physx@@QEAA_N_KQEAVPxBase@2@@Z 00000001800056d0 f i CmCollection.obj
 0001:00004720       ?release@Collection@Cm@physx@@UEAAXXZ 0000000180005720 f i CmCollection.obj
 0001:00004740       ?remove@Collection@Cm@physx@@UEAAXAEAVPxBase@3@@Z 0000000180005740 f   CmCollection.obj
 0001:00004880       ?remove@Collection@Cm@physx@@UEAAXAEAVPxCollection@3@@Z 0000000180005880 f   CmCollection.obj
 0001:000049e0       ?removeId@Collection@Cm@physx@@UEAAX_K@Z 00000001800059e0 f   CmCollection.obj
 0001:00004ad0       ?reserveInternal@?$PxHashBase@V?$PxPair@$$CB_KPEAVPxBase@physx@@@physx@@_KU?$PxHash@_K@2@UGetKey@?$PxHashMapBase@_KPEAVPxBase@physx@@U?$PxHash@_K@2@VPxAllocator@2@@2@VPxAllocator@2@$00@physx@@AEAAXI@Z 0000000180005ad0 f i CmCollection.obj
 0001:00004ad0       ?reserveInternal@?$PxHashBase@V?$PxPair@QEAVPxBase@physx@@_K@physx@@PEAVPxBase@2@U?$PxHash@PEAVPxBase@physx@@@2@UGetKey@?$PxHashMapBase@PEAVPxBase@physx@@_KU?$PxHash@PEAVPxBase@physx@@@2@VPxAllocator@2@@2@VPxAllocator@2@$00@physx@@AEAAXI@Z 0000000180005ad0 f i CmCollection.obj
 0001:00004cc0       PxCreateCollection         0000000180005cc0 f   CmCollection.obj
 0001:00004db0       ??0RadixSort@Cm@physx@@QEAA@XZ 0000000180005db0 f   CmRadixSort.obj
 0001:00004de0       ??0RadixSortBuffered@Cm@physx@@QEAA@XZ 0000000180005de0 f   CmRadixSort.obj
 0001:00004e10       ??1RadixSort@Cm@physx@@UEAA@XZ 0000000180005e10 f   CmRadixSort.obj
 0001:00004e20       ??1RadixSortBuffered@Cm@physx@@UEAA@XZ 0000000180005e20 f   CmRadixSort.obj
 0001:00004e50       ??_ERadixSort@Cm@physx@@UEAAPEAXI@Z 0000000180005e50 f i CmRadixSort.obj
 0001:00004ee0       ??_ERadixSortBuffered@Cm@physx@@UEAAPEAXI@Z 0000000180005ee0 f i CmRadixSort.obj
 0001:00005020       ?CheckResize@RadixSortBuffered@Cm@physx@@AEAAXI@Z 0000000180006020 f i CmRadixSort.obj
 0001:00005060       ?GetNbHits@RadixSort@Cm@physx@@QEBAIXZ 0000000180006060 f i CmRadixSort.obj
 0001:00005070       ?GetNbTotalCalls@RadixSort@Cm@physx@@QEBAIXZ 0000000180006070 f i CmRadixSort.obj
 0001:00005080       ?getSimulationMesh@DeformableVolumeMesh@Gu@physx@@UEAAPEAVPxTetrahedronMesh@3@XZ 0000000180006080 f i GuTetrahedronMesh.obj
 0001:00005080       ?getGridModelInvMass@DeformableVolumeAuxData@Gu@physx@@UEAAPEAMXZ 0000000180006080 f i GuTetrahedronMesh.obj
 0001:00005080       ?getHeightField@HeightFieldUtil@Gu@physx@@QEBAAEBVHeightField@23@XZ 0000000180006080 f i GuCCTSweepTests.obj
 0001:00005080       ?getSimulationMesh@DeformableVolumeMesh@Gu@physx@@UEBAPEBVPxTetrahedronMesh@3@XZ 0000000180006080 f i GuTetrahedronMesh.obj
 0001:00005080       ?GetRanks@RadixSort@Cm@physx@@QEBAPEBIXZ 0000000180006080 f i CmRadixSort.obj
 0001:00005090       ?getPos@AABBTreeBuildNode@Gu@physx@@QEBAPEBV123@XZ 0000000180006090 f i GuMeshFactory.obj
 0001:00005090       ?getObjects@PruningPool@Gu@physx@@QEBAPEAUPrunerPayload@23@XZ 0000000180006090 f i GuIncrementalAABBPrunerCore.obj
 0001:00005090       ?getHeightFieldGeometry@HeightFieldUtil@Gu@physx@@QEBAAEBVPxHeightFieldGeometry@3@XZ 0000000180006090 f i GuCCTSweepTests.obj
 0001:00005090       ?getCollisionMesh@DeformableVolumeMesh@Gu@physx@@UEAAPEAVPxTetrahedronMesh@3@XZ 0000000180006090 f i GuTetrahedronMesh.obj
 0001:00005090       ?getVertices@TriangleMesh@Gu@physx@@UEBAPEBV?$PxVec3T@M@3@XZ 0000000180006090 f i GuTriangleMesh.obj
 0001:00005090       ?GetValencies@BigConvexData@physx@@QEBAPEBUValency@Gu@2@XZ 0000000180006090 f i GuBigConvexData.obj
 0001:00005090       ?GetRecyclable@RadixSort@Cm@physx@@QEBAPEAIXZ 0000000180006090 f i CmRadixSort.obj
 0001:00005090       ?getCollisionMesh@DeformableVolumeMesh@Gu@physx@@UEBAPEBVPxTetrahedronMesh@3@XZ 0000000180006090 f i GuTetrahedronMesh.obj
 0001:00005090       ?getVertices@TetrahedronMesh@Gu@physx@@UEBAPEBV?$PxVec3T@M@3@XZ 0000000180006090 f i GuTetrahedronMesh.obj
 0001:000050a0       ?Resize@RadixSortBuffered@Cm@physx@@AEAA_NI@Z 00000001800060a0 f   CmRadixSort.obj
 0001:000051a0       ?SetBuffers@RadixSort@Cm@physx@@QEAA_NPEAI00PEAPEAI@Z 00000001800061a0 f   CmRadixSort.obj
 0001:000051e0       ?Sort@RadixSort@Cm@physx@@QEAAAEAV123@PEBIIW4RadixHint@23@@Z 00000001800061e0 f   CmRadixSort.obj
 0001:00005830       ?Sort@RadixSort@Cm@physx@@QEAAAEAV123@PEBMI@Z 0000000180006830 f   CmRadixSort.obj
 0001:00005f90       ?Sort@RadixSortBuffered@Cm@physx@@QEAAAEAV123@PEBIIW4RadixHint@23@@Z 0000000180006f90 f   CmRadixSort.obj
 0001:00006030       ?Sort@RadixSortBuffered@Cm@physx@@QEAAAEAV123@PEBMI@Z 0000000180007030 f   CmRadixSort.obj
 0001:000060c0       ?invalidateRanks@RadixSort@Cm@physx@@QEAAXXZ 00000001800070c0 f i CmRadixSort.obj
 0001:000060d0       ?reset@RadixSortBuffered@Cm@physx@@QEAAXXZ 00000001800070d0 f   CmRadixSort.obj
 0001:00006150       ?ReadHeader@Cm@physx@@YA_NEEEEAEAIAEA_NAEAVPxInputStream@2@@Z 0000000180007150 f   CmSerialize.obj
 0001:000062b0       ?ReadIndices@Cm@physx@@YAXGIPEAGAEAVPxInputStream@2@_N@Z 00000001800072b0 f   CmSerialize.obj
 0001:00006400       ?StoreIndices@Cm@physx@@YAXGIPEBGAEAVPxOutputStream@2@_N@Z 0000000180007400 f   CmSerialize.obj
 0001:000064c0       ?WriteHeader@Cm@physx@@YA_NEEEEI_NAEAVPxOutputStream@2@@Z 00000001800074c0 f   CmSerialize.obj
 0001:000065f0       ?computeMaxIndex@physx@@YAGPEBGI@Z 00000001800075f0 f   CmSerialize.obj
 0001:00006620       ?computeMaxIndex@physx@@YAIPEBII@Z 0000000180007620 f   CmSerialize.obj
 0001:00006650       ?writeByteBuffer@physx@@YAXPEBEIAEAVPxOutputStream@1@@Z 0000000180007650 f   CmSerialize.obj
 0001:00006650       ?readByteBuffer@physx@@YAXPEAEIAEAVPxInputStream@1@@Z 0000000180007650 f   CmSerialize.obj
 0001:00006670       ?readChunk@physx@@YAXAEAC000AEAVPxInputStream@1@@Z 0000000180007670 f   CmSerialize.obj
 0001:000066f0       ?readDword@physx@@YAI_NAEAVPxInputStream@1@@Z 00000001800076f0 f   CmSerialize.obj
 0001:00006750       ?readFloat@physx@@YAM_NAEAVPxInputStream@1@@Z 0000000180007750 f   CmSerialize.obj
 0001:000067b0       ?readFloatBuffer@physx@@YA_NPEAMI_NAEAVPxInputStream@1@@Z 00000001800077b0 f   CmSerialize.obj
 0001:00006830       ?readHeader@physx@@YA_NCCCCAEAIAEA_NAEAVPxInputStream@1@@Z 0000000180007830 f   CmSerialize.obj
 0001:00006980       ?readIndices@physx@@YAXIIPEAIAEAVPxInputStream@1@_N@Z 0000000180007980 f   CmSerialize.obj
 0001:00006a70       ?readWord@physx@@YAG_NAEAVPxInputStream@1@@Z 0000000180007a70 f   CmSerialize.obj
 0001:00006ab0       ?readWordBuffer@physx@@YAXPEAGI_NAEAVPxInputStream@1@@Z 0000000180007ab0 f   CmSerialize.obj
 0001:00006b20       ?storeIndices@physx@@YAXIIPEBIAEAVPxOutputStream@1@_N@Z 0000000180007b20 f   CmSerialize.obj
 0001:00006c80       ?writeDword@physx@@YAXI_NAEAVPxOutputStream@1@@Z 0000000180007c80 f   CmSerialize.obj
 0001:00006cd0       ?writeFloat@physx@@YAXM_NAEAVPxOutputStream@1@@Z 0000000180007cd0 f   CmSerialize.obj
 0001:00006d20       ?writeFloatBuffer@physx@@YAXPEBMI_NAEAVPxOutputStream@1@@Z 0000000180007d20 f   CmSerialize.obj
 0001:00006dc0       ?writeHeader@physx@@YA_NCCCCI_NAEAVPxOutputStream@1@@Z 0000000180007dc0 f   CmSerialize.obj
 0001:00006ef0       ?writeWord@physx@@YAXG_NAEAVPxOutputStream@1@@Z 0000000180007ef0 f   CmSerialize.obj
 0001:00006f30       ?writeWordBuffer@physx@@YAXPEBGI_NAEAVPxOutputStream@1@@Z 0000000180007f30 f   CmSerialize.obj
 0001:00006fb0       ??6PxRenderOutput@physx@@QEAAAEAV01@AEBV?$PxTransformT@M@1@@Z 0000000180007fb0 f i CmVisualization.obj
 0001:00007130       ??6PxRenderOutput@physx@@QEAAAEAV01@AEBV?$PxVec3T@M@1@@Z 0000000180008130 f i CmVisualization.obj
 0001:00007430       ?renderOutputDebugArrow@Cm@physx@@YAXAEAVPxRenderOutput@2@AEBUPxDebugArrow@2@@Z 0000000180008430 f   CmVisualization.obj
 0001:000077d0       ?renderOutputDebugBasis@Cm@physx@@YAXAEAVPxRenderOutput@2@AEBUPxDebugBasis@2@@Z 00000001800087d0 f   CmVisualization.obj
 0001:00007cc0       ?renderOutputDebugBox@Cm@physx@@YAXAEAVPxRenderOutput@2@AEBVPxBounds3@2@@Z 0000000180008cc0 f   CmVisualization.obj
 0001:00007f30       ?renderOutputDebugCircle@Cm@physx@@YAXAEAVPxRenderOutput@2@IM@Z 0000000180008f30 f   CmVisualization.obj
 0001:00008010       ?visualizeAngularLimit@Cm@physx@@YAXAEAVPxRenderOutput@2@MAEBV?$PxTransformT@M@2@MM@Z 0000000180009010 f   CmVisualization.obj
 0001:000081a0       ?visualizeDoubleCone@Cm@physx@@YAXAEAVPxRenderOutput@2@MAEBV?$PxTransformT@M@2@M@Z 00000001800091a0 f   CmVisualization.obj
 0001:000083a0       ?visualizeJointFrames@Cm@physx@@YAXAEAVPxRenderOutput@2@MAEBV?$PxTransformT@M@2@1@Z 00000001800093a0 f   CmVisualization.obj
 0001:00008db0       ?visualizeLimitCone@Cm@physx@@YAXAEAVPxRenderOutput@2@MAEBV?$PxTransformT@M@2@MM@Z 0000000180009db0 f   CmVisualization.obj
 0001:00008ff0       ?visualizeLinearLimit@Cm@physx@@YAXAEAVPxRenderOutput@2@MAEBV?$PxTransformT@M@2@1M@Z 0000000180009ff0 f   CmVisualization.obj
 0001:000095e0       ??0CmModuleUpdateLoader@Cm@physx@@QEAA@PEBD@Z 000000018000a5e0 f   CmWindowsModuleUpdateLoader.obj
 0001:00009620       ??1CmModuleUpdateLoader@Cm@physx@@QEAA@XZ 000000018000a620 f   CmWindowsModuleUpdateLoader.obj
 0001:00009650       ?LoadModule@CmModuleUpdateLoader@Cm@physx@@QEAAPEAUHINSTANCE__@@PEBD0@Z 000000018000a650 f   CmWindowsModuleUpdateLoader.obj
 0001:000096c0       __local_stdio_printf_options 000000018000a6c0 f i CmWindowsModuleUpdateLoader.obj
 0001:000096d0       printf                     000000018000a6d0 f i CmWindowsModuleUpdateLoader.obj
 0001:00009730       ?commonDelayHook@@YAP6A_JXZIPEAUDelayLoadInfo@@@Z 000000018000a730 f   CmWindowsDelayLoadHook.obj
 0001:00009810       PxSetPhysXCommonDelayLoadHook 000000018000a810 f   CmWindowsDelayLoadHook.obj
 0001:00009820       ??0?$PxQuatT@M@physx@@QEAA@AEBV?$PxMat33T@M@1@@Z 000000018000a820 f i GuBox.obj
 0001:00009a00       ??4Box@Gu@physx@@QEAAAEBV012@AEBV012@@Z 000000018000aa00 f i GuBox.obj
 0001:00009a00       ??0Box@Gu@physx@@QEAA@AEBV012@@Z 000000018000aa00 f i GuBox.obj
 0001:00009a60       ??0Box@Gu@physx@@QEAA@AEBV?$PxVec3T@M@2@0AEBV?$PxMat33T@M@2@@Z 000000018000aa60 f i GuBox.obj
 0001:00009ad0       ?getPaddedBounds@HeightFieldData@Gu@physx@@QEBAAEBVCenterExtentsPadded@23@XZ 000000018000aad0 f i GuCCTSweepTests.obj
 0001:00009ad0       ??$forward@_K@std@@YA$$QEA_KAEA_K@Z 000000018000aad0 f i libvcruntime:undname.obj
 0001:00009ad0       ?getAABB@AABBTreeBuildNode@Gu@physx@@QEBAAEBVPxBounds3@3@XZ 000000018000aad0 f i GuMeshFactory.obj
 0001:00009ad0       ??0BigConvexData@physx@@QEAA@W4PxEMPTY@1@@Z 000000018000aad0 f i GuBigConvexData.obj
 0001:00009ad0       ??0HeightFieldData@Gu@physx@@QEAA@W4PxEMPTY@2@@Z 000000018000aad0 f i GuCCTSweepTests.obj
 0001:00009ad0       ??0AABBTreeBuildNode@Gu@physx@@QEAA@XZ 000000018000aad0 f i GuMeshFactory.obj
 0001:00009ad0       ??0Box@Gu@physx@@QEAA@XZ   000000018000aad0 f i GuBox.obj
 0001:00009ae0       ??D?$PxMat33T@M@physx@@QEBA?BV?$PxVec3T@M@1@AEBV21@@Z 000000018000aae0 f i GuBox.obj
 0001:00009b70       ?PxComputeBasisVectors@physx@@YAXAEBV?$PxVec3T@M@1@AEAV21@1@Z 000000018000ab70 f i GuBox.obj
 0001:00009c90       ?computeAABBExtent@Box@Gu@physx@@QEBA?AV?$PxVec3T@M@3@XZ 000000018000ac90 f i GuBox.obj
 0001:00009d50       ?computeBoxPoints@Box@Gu@physx@@QEBAXPEIAV?$PxVec3T@M@3@@Z 000000018000ad50 f i GuBox.obj
 0001:00009d90       ?computeOBBPoints@Gu@physx@@YAXPEIAV?$PxVec3T@M@2@AEBV32@1111@Z 000000018000ad90 f   GuBox.obj
 0001:0000a010       ?create@Box@Gu@physx@@QEAAXAEBVCapsule@23@@Z 000000018000b010 f   GuBox.obj
 0001:0000a240       ?getBoxEdges@Gu@physx@@YAPEBEXZ 000000018000b240 f   GuBox.obj
 0001:0000a250       ?getTransform@Box@Gu@physx@@QEBA?AV?$PxTransformT@M@3@XZ 000000018000b250 f i GuBox.obj
 0001:0000a2b0       ?isValid@Box@Gu@physx@@QEBA_NXZ 000000018000b2b0 f i GuBox.obj
 0001:0000a2d0       ?rotate@Box@Gu@physx@@QEBA?AV?$PxVec3T@M@3@AEBV43@@Z 000000018000b2d0 f i GuBox.obj
 0001:0000a360       ?rotateInv@Box@Gu@physx@@QEBA?AV?$PxVec3T@M@3@AEBV43@@Z 000000018000b360 f i GuBox.obj
 0001:0000a3f0       ?setAxes@Box@Gu@physx@@QEAAXAEBV?$PxVec3T@M@3@00@Z 000000018000b3f0 f i GuBox.obj
 0001:0000a430       ?setEmpty@Box@Gu@physx@@QEAAXXZ 000000018000b430 f i GuBox.obj
 0001:0000a470       ?transform@Box@Gu@physx@@QEBA?AV?$PxVec3T@M@3@AEBV43@@Z 000000018000b470 f i GuBox.obj
 0001:0000a510       ?PxComputeBasisVectors@physx@@YAXAEBV?$PxVec3T@M@1@0AEAV21@11@Z 000000018000b510 f i GuCapsule.obj
 0001:0000a6b0       ?computeBoxAroundCapsule@Gu@physx@@YAXAEBVCapsule@12@AEAVBox@12@@Z 000000018000b6b0 f   GuCapsule.obj
 0001:0000a800       ??4HeightFieldData@Gu@physx@@QEAAAEAU012@AEBU012@@Z 000000018000b800 f i GuCCTSweepTests.obj
 0001:0000a800       ??0HeightFieldData@Gu@physx@@QEAA@$$QEAU012@@Z 000000018000b800 f i GuCCTSweepTests.obj
 0001:0000a800       ??4HeightFieldData@Gu@physx@@QEAAAEAU012@$$QEAU012@@Z 000000018000b800 f i GuCCTSweepTests.obj
 0001:0000a800       ??0HeightFieldData@Gu@physx@@QEAA@AEBU012@@Z 000000018000b800 f i GuCCTSweepTests.obj
 0001:0000a860       ??0HeightFieldData@Gu@physx@@QEAA@XZ 000000018000b860 f i GuCCTSweepTests.obj
 0001:0000a870       ??0HeightFieldUtil@Gu@physx@@QEAA@AEBVPxHeightFieldGeometry@2@@Z 000000018000b870 f i GuCCTSweepTests.obj
 0001:0000a870       ??0HeightFieldTraceUtil@Gu@physx@@QEAA@AEBVPxHeightFieldGeometry@2@@Z 000000018000b870 f i GuCCTSweepTests.obj
 0001:0000a8b0       ??4HeightFieldTraceUtil@Gu@physx@@QEAAAEAV012@$$QEAV012@@Z 000000018000b8b0 f i GuCCTSweepTests.obj
 0001:0000a8b0       ??4AABBTreeBuildParams@Gu@physx@@QEAAAEAV012@AEBV012@@Z 000000018000b8b0 f i GuMeshFactory.obj
 0001:0000a8b0       ??4HeightFieldTraceUtil@Gu@physx@@QEAAAEAV012@AEBV012@@Z 000000018000b8b0 f i GuCCTSweepTests.obj
 0001:0000a8b0       ??4HeightFieldUtil@Gu@physx@@QEAAAEAV012@AEBV012@@Z 000000018000b8b0 f i GuCCTSweepTests.obj
 0001:0000a8d0       ??4HeightFieldUtil@Gu@physx@@QEAAAEAV012@$$QEAV012@@Z 000000018000b8d0 f i GuCCTSweepTests.obj
 0001:0000a930       ??_GRemapCallback@RTreeCooker@physx@@UEAAPEAXI@Z 000000018000b930 f i GuCookingTriangleMesh.obj
 0001:0000a930       ??_ERaycastCallback@PxBVH@physx@@UEAAPEAXI@Z 000000018000b930 f i GuQuerySystem.obj
 0001:0000a930       ??_ERemapCallback@RTreeCooker@physx@@UEAAPEAXI@Z 000000018000b930 f i GuCookingTriangleMesh.obj
 0001:0000a930       ??_GRaycastCallback@PxBVH@physx@@UEAAPEAXI@Z 000000018000b930 f i GuQuerySystem.obj
 0001:0000a930       ??_EOverlapReport@Gu@physx@@UEAAPEAXI@Z 000000018000b930 f i GuCCTSweepTests.obj
 0001:0000a930       ??_EEntityReport@Gu@physx@@UEAAPEAXI@Z 000000018000b930 f i GuSweepsHF.obj
 0001:0000a930       ??_GEntityReport@Gu@physx@@UEAAPEAXI@Z 000000018000b930 f i GuSweepsHF.obj
 0001:0000a930       ??_GOverlapCallback@PxBVH@physx@@UEAAPEAXI@Z 000000018000b930 f i GuQuerySystem.obj
 0001:0000a930       ??_GOverlapReport@Gu@physx@@UEAAPEAXI@Z 000000018000b930 f i GuCCTSweepTests.obj
 0001:0000a930       ??_EOverlapCallback@PxBVH@physx@@UEAAPEAXI@Z 000000018000b930 f i GuQuerySystem.obj
 0001:0000a960       ??_H@YAXPEAX_K1P6APEAX0@Z@Z 000000018000b960 f i GuCCTSweepTests.obj
 0001:0000a9b0       ?ceilUp@HeightFieldTraceUtil@Gu@physx@@SAMM@Z 000000018000b9b0 f i GuCCTSweepTests.obj
 0001:0000a9f0       ?floorDown@HeightFieldTraceUtil@Gu@physx@@SAMM@Z 000000018000b9f0 f i GuCCTSweepTests.obj
 0001:0000aa30       ?getHeightAtShapePoint@HeightFieldUtil@Gu@physx@@QEBAMMM@Z 000000018000ba30 f i GuCCTSweepTests.obj
 0001:0000aa90       ?getHeightInternal2@HeightField@Gu@physx@@QEBAMIMM@Z 000000018000ba90 f i GuCCTSweepTests.obj
 0001:0000ac00       ?getNormalAtShapePoint@HeightFieldUtil@Gu@physx@@QEBA?AV?$PxVec3T@M@3@MM@Z 000000018000bc00 f i GuCCTSweepTests.obj
 0001:0000acc0       ?getNormal_2@HeightField@Gu@physx@@QEBA?AV?$PxVec3T@M@3@IMMMMM@Z 000000018000bcc0 f i GuCCTSweepTests.obj
 0001:0000ade0       ?getOneOverColumnScale@HeightFieldUtil@Gu@physx@@QEBAMXZ 000000018000bde0 f i GuCCTSweepTests.obj
 0001:0000adf0       ?getOneOverHeightScale@HeightFieldUtil@Gu@physx@@QEBAMXZ 000000018000bdf0 f i GuCCTSweepTests.obj
 0001:0000ae00       ?getOneOverRowScale@HeightFieldUtil@Gu@physx@@QEBAMXZ 000000018000be00 f i GuCCTSweepTests.obj
 0001:0000ae10       ?shape2hfp@HeightFieldUtil@Gu@physx@@QEBA?AV?$PxVec3T@M@3@AEBV43@@Z 000000018000be10 f i GuCCTSweepTests.obj
 0001:0000ae10       ?hf2shapen@HeightFieldUtil@Gu@physx@@QEBA?AV?$PxVec3T@M@3@AEBV43@@Z 000000018000be10 f i GuCCTSweepTests.obj
 0001:0000ae50       ?hf2shapep@HeightFieldUtil@Gu@physx@@QEBA?AV?$PxVec3T@M@3@AEBV43@@Z 000000018000be50 f i GuCCTSweepTests.obj
 0001:0000ae90       ?hf2worldn@HeightFieldUtil@Gu@physx@@QEBA?AV?$PxVec3T@M@3@AEBV?$PxTransformT@M@3@AEBV43@@Z 000000018000be90 f i GuCCTSweepTests.obj
 0001:0000b000       ?hf2worldp@HeightFieldUtil@Gu@physx@@QEBA?AV?$PxVec3T@M@3@AEBV?$PxTransformT@M@3@AEBV43@@Z 000000018000c000 f i GuCCTSweepTests.obj
 0001:0000b180       ?overlapAABBTriangles0to1@HeightFieldUtil@Gu@physx@@QEBAXAEBV?$PxTransformT@M@3@AEBVPxBounds3@3@AEAVOverlapReport@23@I@Z 000000018000c180 f i GuCCTSweepTests.obj
 0001:0000b500       ?overlapAABBTriangles@HeightFieldUtil@Gu@physx@@QEBAXAEBV?$PxTransformT@M@3@0AEBVPxBounds3@3@AEAVOverlapReport@23@I@Z 000000018000c500 f i GuCCTSweepTests.obj
 0001:0000bb10       ?overlapAABBTriangles@HeightFieldUtil@Gu@physx@@QEBAXAEBV?$PxTransformT@M@3@AEBVPxBounds3@3@AEAVOverlapReport@23@I@Z 000000018000cb10 f i GuCCTSweepTests.obj
 0001:0000c1c0       ?sweepBoxTriangles_Precise@Gu@physx@@YA_NIPEBVPxTriangle@2@_NAEBVPxBoxGeometry@2@AEBV?$PxTransformT@M@2@AEBV?$PxVec3T@M@2@MAEAUPxGeomSweepHit@2@PEBIMV?$PxFlags@W4Enum@PxHitFlag@physx@@G@2@@Z 000000018000d1c0 f   GuCCTSweepTests.obj
 0001:0000cf40       ?sweepBox_BoxGeom_Precise@@YA_NAEBVPxGeometry@physx@@AEBV?$PxTransformT@M@2@AEBVPxBoxGeometry@2@1AEBVBox@Gu@2@AEBV?$PxVec3T@M@2@MAEAUPxGeomSweepHit@2@V?$PxFlags@W4Enum@PxHitFlag@physx@@G@2@MPEAUPxQueryThreadContext@2@@Z 000000018000df40 f   GuCCTSweepTests.obj
 0001:0000d100       ?sweepBox_CapsuleGeom_Precise@@YA_NAEBVPxGeometry@physx@@AEBV?$PxTransformT@M@2@AEBVPxBoxGeometry@2@1AEBVBox@Gu@2@AEBV?$PxVec3T@M@2@MAEAUPxGeomSweepHit@2@V?$PxFlags@W4Enum@PxHitFlag@physx@@G@2@MPEAUPxQueryThreadContext@2@@Z 000000018000e100 f   GuCCTSweepTests.obj
 0001:0000d4d0       ?sweepBox_HeightFieldGeom_Precise@@YA_NAEBVPxGeometry@physx@@AEBV?$PxTransformT@M@2@AEBVPxBoxGeometry@2@1AEBVBox@Gu@2@AEBV?$PxVec3T@M@2@MAEAUPxGeomSweepHit@2@V?$PxFlags@W4Enum@PxHitFlag@physx@@G@2@MPEAUPxQueryThreadContext@2@@Z 000000018000e4d0 f   GuCCTSweepTests.obj
 0001:0000dcd0       ?sweepBox_SphereGeom_Precise@@YA_NAEBVPxGeometry@physx@@AEBV?$PxTransformT@M@2@AEBVPxBoxGeometry@2@1AEBVBox@Gu@2@AEBV?$PxVec3T@M@2@MAEAUPxGeomSweepHit@2@V?$PxFlags@W4Enum@PxHitFlag@physx@@G@2@MPEAUPxQueryThreadContext@2@@Z 000000018000ecd0 f   GuCCTSweepTests.obj
 0001:0000dfb0       ?sweepCapsule_BoxGeom_Precise@@YA_NAEBVPxGeometry@physx@@AEBV?$PxTransformT@M@2@AEBVPxCapsuleGeometry@2@1AEBVCapsule@Gu@2@AEBV?$PxVec3T@M@2@MAEAUPxGeomSweepHit@2@V?$PxFlags@W4Enum@PxHitFlag@physx@@G@2@MPEAUPxQueryThreadContext@2@@Z 000000018000efb0 f   GuCCTSweepTests.obj
 0001:00010f80       ?getTetrahedraRemap@TetrahedronMesh@Gu@physx@@UEBAPEBIXZ 0000000180011f80 f   GuTetrahedronMesh.obj
 0001:00010f80       ?getMidphaseID@RTreeTriangleMesh@Gu@physx@@UEBA?AW4Enum@PxMeshMidPhase@3@XZ 0000000180011f80 f   GuTriangleMeshRTree.obj
 0001:00010f80       ?getMidphaseID@RTreeTriangleMeshBuilder@physx@@UEBA?AW4Enum@PxMeshMidPhase@2@XZ 0000000180011f80 f   GuCookingTriangleMesh.obj
 0001:00010f80       ?raycast_particlesystem@@YAIAEBVPxGeometry@physx@@AEBV?$PxTransformT@M@2@AEBV?$PxVec3T@M@2@2MV?$PxFlags@W4Enum@PxHitFlag@physx@@G@2@IPEIAUPxGeomRaycastHit@2@IPEAUPxQueryThreadContext@2@@Z 0000000180011f80 f   GuRaycastTests.obj
 0001:00010f80       ?raycast_softbody@@YAIAEBVPxGeometry@physx@@AEBV?$PxTransformT@M@2@AEBV?$PxVec3T@M@2@2MV?$PxFlags@W4Enum@PxHitFlag@physx@@G@2@IPEIAUPxGeomRaycastHit@2@IPEAUPxQueryThreadContext@2@@Z 0000000180011f80 f   GuRaycastTests.obj
 0001:00011a00       ??0AABBTreeBounds@Gu@physx@@QEAA@XZ 0000000180012a00 f   GuMeshFactory.obj
 0001:00011a10       ??0?$CacheMap@UCachedEdge@Gu@physx@@$0IA@@Gu@physx@@QEAA@XZ 0000000180012a10 f i GuGeometryQuery.obj
 0001:00011ad0       ??0?$CacheMap@UCachedVertex@Gu@physx@@$0IA@@Gu@physx@@QEAA@XZ 0000000180012ad0 f i GuGeometryQuery.obj
 0001:00011b90       ??0?$Convex@UConvexShape@Gu@physx@@@RefGjkEpa@Gu@physx@@QEAA@AEBUConvexShape@23@AEBV?$PxTransformT@M@3@@Z 0000000180012b90 f i GuGeometryQuery.obj
 0001:00012030       ??0?$EpaDepth@UConvexShape@Gu@physx@@@RefGjkEpa@Gu@physx@@QEAA@AEAU?$Convex@UConvexShape@Gu@physx@@@123@0@Z 0000000180013030 f i GuGeometryQuery.obj
 0001:00012430       ??0?$GjkDistance@UConvexShape@Gu@physx@@@RefGjkEpa@Gu@physx@@QEAA@AEAU?$Convex@UConvexShape@Gu@physx@@@123@0@Z 0000000180013430 f i GuGeometryQuery.obj
 0001:00012610       ??0MultiplePersistentContactManifold@Gu@physx@@QEAA@XZ 0000000180013610 f i GuGeometryQuery.obj
 0001:00012660       ??0PCMMeshContactGeneration@Gu@physx@@QEAA@AEBT__m128@@0AEBVPxTransformV@aos@2@1AEAVMultiplePersistentContactManifold@12@AEAVPxContactBuffer@2@PEAV?$PxInlineArray@I$0DMA@V?$PxReflectionAllocator@I@physx@@@2@PEAVPxRenderOutput@2@@Z 0000000180013660 f i GuGeometryQuery.obj
 0001:00012f90       ??4MultiplePersistentContactManifold@Gu@physx@@QEAAAEAV012@$$QEAV012@@Z 0000000180013f90 f i GuGeometryQuery.obj
 0001:000132a0       ??4MultiplePersistentContactManifold@Gu@physx@@QEAAAEAV012@AEBV012@@Z 00000001800142a0 f i GuGeometryQuery.obj
 0001:000132c0       ??_E?$SupportLocalImpl@VBoxV@Gu@physx@@@Gu@physx@@UEAAPEAXI@Z 00000001800142c0 f i GuGeometryQuery.obj
 0001:000132c0       ??_E?$SupportLocalImpl@VConvexHullV@Gu@physx@@@Gu@physx@@UEAAPEAXI@Z 00000001800142c0 f i GuGeometryQuery.obj
 0001:000132c0       ??_G?$SupportLocalImpl@VBoxV@Gu@physx@@@Gu@physx@@UEAAPEAXI@Z 00000001800142c0 f i GuGeometryQuery.obj
 0001:000132c0       ??_E?$SupportLocalImpl@VTriangleV@Gu@physx@@@Gu@physx@@UEAAPEAXI@Z 00000001800142c0 f i GuPCMContactConvexCommon.obj
 0001:000132c0       ??_G?$SupportLocalImpl@VConvexHullNoScaleV@Gu@physx@@@Gu@physx@@UEAAPEAXI@Z 00000001800142c0 f i GuMTD.obj
 0001:000132c0       ??_E?$SupportLocalImpl@VConvexHullNoScaleV@Gu@physx@@@Gu@physx@@UEAAPEAXI@Z 00000001800142c0 f i GuMTD.obj
 0001:000132c0       ??_G?$SupportLocalImpl@VConvexHullV@Gu@physx@@@Gu@physx@@UEAAPEAXI@Z 00000001800142c0 f i GuGeometryQuery.obj
 0001:000132c0       ??_G?$SupportLocalImpl@VTriangleV@Gu@physx@@@Gu@physx@@UEAAPEAXI@Z 00000001800142c0 f i GuPCMContactConvexCommon.obj
 0001:000132f0       ??_ESupportLocal@Gu@physx@@UEAAPEAXI@Z 00000001800142f0 f i GuGeometryQuery.obj
 0001:000132f0       ??_GSupportLocal@Gu@physx@@UEAAPEAXI@Z 00000001800142f0 f i GuGeometryQuery.obj
 0001:00013320       ?ComputeCubemapNearestOffset@physx@@YAIAEBV?$PxVec3T@M@1@I@Z 0000000180014320 f i GuGeometryQuery.obj
 0001:00013420       ?addPoint@?$EpaDepth@UConvexShape@Gu@physx@@@RefGjkEpa@Gu@physx@@QEAAMAEBV?$PxVec3T@M@4@@Z 0000000180014420 f i GuGeometryQuery.obj
 0001:00013930       ?addPoint@?$GjkDistance@UConvexShape@Gu@physx@@@RefGjkEpa@Gu@physx@@QEAAMAEBV?$PxVec3T@M@4@@Z 0000000180014930 f i GuGeometryQuery.obj
 0001:00013a70       ?allocate@?$PxArray@IV?$PxInlineAllocator@$0PAA@V?$PxReflectionAllocator@I@physx@@@physx@@@physx@@IEAAPEAIIPEAI@Z 0000000180014a70 f i GuGeometryQuery.obj
 0001:00013b40       ?clearManifold@MultiplePersistentContactManifold@Gu@physx@@QEAAXXZ 0000000180014b40 f i GuGeometryQuery.obj
 0001:00013ba0       ?clip2x2@FaceClipper@Gu@physx@@AEAAXXZ 0000000180014ba0 f i GuGeometryQuery.obj
 0001:00014770       ?clipNone@FaceClipper@Gu@physx@@AEAAXXZ 0000000180015770 f i GuGeometryQuery.obj
 0001:00014830       ?clipNxN@FaceClipper@Gu@physx@@AEAAXXZ 0000000180015830 f i GuGeometryQuery.obj
 0001:00015050       ?computeClosest@?$GjkDistance@UConvexShape@Gu@physx@@@RefGjkEpa@Gu@physx@@QEAAXXZ 0000000180016050 f i GuGeometryQuery.obj
 0001:00016660       ?computeGeomBounds@PxGeometryQuery@physx@@SAXAEAVPxBounds3@2@AEBVPxGeometry@2@AEBV?$PxTransformT@M@2@MMV?$PxFlags@W4Enum@PxGeometryQueryFlag@physx@@I@2@@Z 0000000180017660 f   GuGeometryQuery.obj
 0001:00016770       ?computePenetration@PxGeometryQuery@physx@@SA_NAEAV?$PxVec3T@M@2@AEAMAEBVPxGeometry@2@AEBV?$PxTransformT@M@2@23V?$PxFlags@W4Enum@PxGeometryQueryFlag@physx@@I@2@@Z 0000000180017770 f   GuGeometryQuery.obj
 0001:00016970       ?computePoints@?$EpaDepth@UConvexShape@Gu@physx@@@RefGjkEpa@Gu@physx@@QEAAXAEAV?$PxVec3T@M@4@0@Z 0000000180017970 f i GuGeometryQuery.obj
 0001:00016eb0       ?computePoints@?$GjkDistance@UConvexShape@Gu@physx@@@RefGjkEpa@Gu@physx@@QEAAXAEAV?$PxVec3T@M@4@0@Z 0000000180017eb0 f i GuGeometryQuery.obj
 0001:000172e0       ?contactFace@ConvexShape@Gu@physx@@QEBAIAEBV?$PxVec3T@M@3@0AEAV43@QEAV43@@Z 00000001800182e0 f i GuGeometryQuery.obj
 0001:00017850       ?distancePointSegmentSquared@Gu@physx@@YAMAEBVSegment@12@AEBV?$PxVec3T@M@2@PEAM@Z 0000000180018850 f i GuGeometryQuery.obj
 0001:00017960       ?doSupport@?$SupportLocalImpl@VBoxV@Gu@physx@@@Gu@physx@@UEBA?AT__m128@@AEBT4@@Z 0000000180018960 f i GuGeometryQuery.obj
 0001:00017990       ?doSupport@?$SupportLocalImpl@VBoxV@Gu@physx@@@Gu@physx@@UEBAXAEBT__m128@@AEAT4@1@Z 0000000180018990 f i GuGeometryQuery.obj
 0001:000179e0       ?doSupport@?$SupportLocalImpl@VConvexHullV@Gu@physx@@@Gu@physx@@UEBA?AT__m128@@AEBT4@@Z 00000001800189e0 f i GuGeometryQuery.obj
 0001:00017ac0       ?doSupport@?$SupportLocalImpl@VConvexHullV@Gu@physx@@@Gu@physx@@UEBAXAEBT__m128@@AEAT4@1@Z 0000000180018ac0 f i GuGeometryQuery.obj
 0001:00018540       ?generateTriangleContacts@PxGeometryQuery@physx@@SA_NAEBVPxGeometry@2@AEBV?$PxTransformT@M@2@QEBV?$PxVec3T@M@2@IMMMAEAVPxContactBuffer@2@@Z 0000000180019540 f   GuGeometryQuery.obj
 0001:0001a340       ?getBounds@?$Convex@UConvexShape@Gu@physx@@@RefGjkEpa@Gu@physx@@QEBA?AVPxBounds3@4@XZ 000000018001b340 f i GuGeometryQuery.obj
 0001:0001ac00       ?getEmptyManifold@MultiplePersistentContactManifold@Gu@physx@@QEAAPEAVSinglePersistentContactManifold@23@XZ 000000018001bc00 f i GuGeometryQuery.obj
 0001:0001ac20       ?getManifold@MultiplePersistentContactManifold@Gu@physx@@QEAAPEAVSinglePersistentContactManifold@23@I@Z 000000018001bc20 f i GuGeometryQuery.obj
 0001:0001ac20       ?getManifold@MultiplePersistentContactManifold@Gu@physx@@QEBAPEBVSinglePersistentContactManifold@23@I@Z 000000018001bc20 f i GuGeometryQuery.obj
 0001:0001ac40       ?getUniqueID@PxCustomGeometry@physx@@SAIXZ 000000018001bc40 f   GuGeometryQuery.obj
 0001:0001ac60       ?hillClimbing@ConvexHullV@Gu@physx@@QEBAIAEBT__m128@@@Z 000000018001bc60 f i GuGeometryQuery.obj
 0001:0001ae90       ?initialize@MultiplePersistentContactManifold@Gu@physx@@QEAAXXZ 000000018001be90 f i GuGeometryQuery.obj
 0001:0001aef0       ?invalidate@MultiplePersistentContactManifold@Gu@physx@@QEBAIAEBVPxTransformV@aos@3@AEBT__m128@@1@Z 000000018001bef0 f i GuGeometryQuery.obj
 0001:0001af60       ?invalidate@MultiplePersistentContactManifold@Gu@physx@@QEBAIAEBVPxTransformV@aos@3@AEBT__m128@@@Z 000000018001bf60 f i GuGeometryQuery.obj
 0001:0001afd0       ?isFinite@?$PxQuatT@M@physx@@QEBA_NXZ 000000018001bfd0 f i GuGeometryQuery.obj
 0001:0001b040       ?isFinite@?$PxVec3T@M@physx@@QEBA_NXZ 000000018001c040 f i GuGeometryQuery.obj
 0001:0001b0a0       ?isUnit@?$PxQuatT@M@physx@@QEBA_NXZ 000000018001c0a0 f i GuGeometryQuery.obj
 0001:0001b110       ?isValid@?$PxTransformT@M@physx@@QEBA_NXZ 000000018001c110 f i GuGeometryQuery.obj
 0001:0001b180       ?isValid@PxGeometryQuery@physx@@SA_NAEBVPxGeometry@2@@Z 000000018001c180 f   GuGeometryQuery.obj
 0001:0001b480       ?makePlane@?$EpaDepth@UConvexShape@Gu@physx@@@RefGjkEpa@Gu@physx@@QEAA_NEEEAEAV?$PxVec4T@M@4@@Z 000000018001c480 f i GuGeometryQuery.obj
 0001:0001b840       ?makePlanes@FaceClipper@Gu@physx@@AEAAXPEBV?$PxVec3T@M@3@IPEAV?$PxVec4T@M@3@AEAI@Z 000000018001c840 f i GuGeometryQuery.obj
 0001:0001bcd0       ?makePolygon@FaceClipper@Gu@physx@@AEAAXPEAV?$PxVec3T@M@3@AEAI@Z 000000018001ccd0 f i GuGeometryQuery.obj
 0001:0001c670       ?maxTransformPositionDelta@MultiplePersistentContactManifold@Gu@physx@@QEBA?AT__m128@@AEBT4@@Z 000000018001d670 f i GuGeometryQuery.obj
 0001:0001c6b0       ?overlap@PxGeometryQuery@physx@@SA_NAEBVPxGeometry@2@AEBV?$PxTransformT@M@2@01V?$PxFlags@W4Enum@PxGeometryQueryFlag@physx@@I@2@PEAUPxQueryThreadContext@2@@Z 000000018001d6b0 f   GuGeometryQuery.obj
 0001:0001c800       ?pointDistance@PxGeometryQuery@physx@@SAMAEBV?$PxVec3T@M@2@AEBVPxGeometry@2@AEBV?$PxTransformT@M@2@PEAV32@PEAIV?$PxFlags@W4Enum@PxGeometryQueryFlag@physx@@I@2@@Z 000000018001d800 f   GuGeometryQuery.obj
 0001:0001d100       ?populateVerts@?$SupportLocalImpl@VBoxV@Gu@physx@@@Gu@physx@@UEBAXPEBEIPEBV?$PxVec3T@M@3@PEAT__m128@@@Z 000000018001e100 f i GuGeometryQuery.obj
 0001:0001d140       ?populateVerts@?$SupportLocalImpl@VConvexHullV@Gu@physx@@@Gu@physx@@UEBAXPEBEIPEBV?$PxVec3T@M@3@PEAT__m128@@@Z 000000018001e140 f i GuGeometryQuery.obj
 0001:0001d1a0       ?raycast@PxGeometryQuery@physx@@SAIAEBV?$PxVec3T@M@2@0AEBVPxGeometry@2@AEBV?$PxTransformT@M@2@MV?$PxFlags@W4Enum@PxHitFlag@physx@@G@2@IPEIAUPxGeomRaycastHit@2@IV?$PxFlags@W4Enum@PxGeometryQueryFlag@physx@@I@2@PEAUPxQueryThreadContext@2@@Z 000000018001e1a0 f   GuGeometryQuery.obj
 0001:0001d470       ?reduceManifoldContactsInDifferentPatches@MultiplePersistentContactManifold@Gu@physx@@QEBAIPEAPEAUPCMContactPatch@23@IPEAVMeshPersistentContact@23@IAEBT__m128@@@Z 000000018001e470 f i GuGeometryQuery.obj
 0001:0001ddf0       ?refineContactPatchConnective@MultiplePersistentContactManifold@Gu@physx@@QEBAXPEAPEAUPCMContactPatch@23@IPEAVMeshPersistentContact@23@AEBT__m128@@@Z 000000018001edf0 f i GuGeometryQuery.obj
 0001:0001dee0       ?refreshManifold@MultiplePersistentContactManifold@Gu@physx@@QEAAXAEBVPxMatTransformV@aos@3@AEBT__m128@@1@Z 000000018001eee0 f i GuGeometryQuery.obj
 0001:0001e8e0       ?setRelativeTransform@MultiplePersistentContactManifold@Gu@physx@@QEAAXAEBVPxTransformV@aos@3@@Z 000000018001f8e0 f i GuGeometryQuery.obj
 0001:0001e8f0       ?supportIndex@?$Convex@UConvexShape@Gu@physx@@@RefGjkEpa@Gu@physx@@QEAAEAEBV?$PxVec3T@M@4@@Z 000000018001f8f0 f i GuGeometryQuery.obj
 0001:0001ecb0       ?supportLocal@ConvexShape@Gu@physx@@QEBA?AV?$PxVec3T@M@3@AEBV43@@Z 000000018001fcb0 f i GuGeometryQuery.obj
 0001:0001ed60       ?supportVertexIndex@ConvexHullV@Gu@physx@@QEBAIAEBT__m128@@@Z 000000018001fd60 f i GuGeometryQuery.obj
 0001:0001efe0       ?sweep@PxGeometryQuery@physx@@SA_NAEBV?$PxVec3T@M@2@MAEBVPxGeometry@2@AEBV?$PxTransformT@M@2@12AEAUPxGeomSweepHit@2@V?$PxFlags@W4Enum@PxHitFlag@physx@@G@2@MV?$PxFlags@W4Enum@PxGeometryQueryFlag@physx@@I@2@PEAUPxQueryThreadContext@2@@Z 000000018001ffe0 f   GuGeometryQuery.obj
 0001:0001f610       ?computeBoxPoints@Gu@physx@@YAXAEBVPxBounds3@2@PEIAV?$PxVec3T@M@2@@Z 0000000180020610 f   GuInternal.obj
 0001:0001f6b0       ?computeSweptBox@Gu@physx@@YAXAEAVBox@12@AEBV?$PxVec3T@M@2@1AEBV?$PxMat33T@M@2@1M@Z 00000001800206b0 f   GuInternal.obj
 0001:0001fbe0       ?getPlane@Gu@physx@@YA?AVPxPlane@2@AEBV?$PxTransformT@M@2@@Z 0000000180020be0 f   GuInternal.obj
 0001:0001fc90       ??$copy@V?$PxReflectionAllocator@USlab@NodeAllocator@Gu@physx@@@physx@@@?$PxArray@USlab@NodeAllocator@Gu@physx@@V?$PxReflectionAllocator@USlab@NodeAllocator@Gu@physx@@@4@@physx@@IEAAXAEBV01@@Z 0000000180020c90 f i GuMeshFactory.obj
 0001:0001fd50       ??0AABBTreeBuildNode@Gu@physx@@QEAA@AEBV012@@Z 0000000180020d50 f i GuMeshFactory.obj
 0001:0001fd50       ??4AABBTreeBuildNode@Gu@physx@@QEAAAEAV012@AEBV012@@Z 0000000180020d50 f i GuMeshFactory.obj
 0001:0001fd90       ??0AABBTreeBuildParams@Gu@physx@@QEAA@IIPEBVAABBTreeBounds@12@W4BVHBuildStrategy@12@@Z 0000000180020d90 f i GuMeshFactory.obj
 0001:0001fdb0       ??0DeformableVolumeCollisionData@Gu@physx@@QEAA@XZ 0000000180020db0 f i GuMeshFactory.obj
 0001:0001fe10       ??0MeshFactory@Gu@physx@@QEAA@XZ 0000000180020e10 f   GuMeshFactory.obj
 0001:00020010       ??0NodeAllocator@Gu@physx@@QEAA@AEBV012@@Z 0000000180021010 f i GuMeshFactory.obj
 0001:00020050       ??0TriangleMeshData@Gu@physx@@QEAA@XZ 0000000180021050 f i GuMeshFactory.obj
 0001:00020170       ??1AABBTreeBounds@Gu@physx@@QEAA@XZ 0000000180021170 f i GuMeshFactory.obj
 0001:00020180       ??1AABBTreeBuildParams@Gu@physx@@QEAA@XZ 0000000180021180 f i GuMeshFactory.obj
 0001:00020180       ?reset@AABBTreeBuildParams@Gu@physx@@QEAAXXZ 0000000180021180 f i GuMeshFactory.obj
 0001:000201d0       ??1CollisionMeshMappingData@Gu@physx@@UEAA@XZ 00000001800211d0 f i GuMeshFactory.obj
 0001:00020320       ??1DeformableVolumeCollisionData@Gu@physx@@UEAA@XZ 0000000180021320 f i GuMeshFactory.obj
 0001:00020460       ??1DeformableVolumeSimulationData@Gu@physx@@UEAA@XZ 0000000180021460 f i GuMeshFactory.obj
 0001:00020580       ??1MeshDataBase@Gu@physx@@UEAA@XZ 0000000180021580 f i GuMeshFactory.obj
 0001:000206c0       ??1MeshFactory@Gu@physx@@MEAA@XZ 00000001800216c0 f   GuMeshFactory.obj
 0001:00020800       ??1RTreeTriangleData@Gu@physx@@UEAA@XZ 0000000180021800 f i GuMeshFactory.obj
 0001:00020870       ??1TetrahedronMeshData@Gu@physx@@QEAA@XZ 0000000180021870 f i GuMeshFactory.obj
 0001:00020900       ??1TriangleMeshData@Gu@physx@@UEAA@XZ 0000000180021900 f i GuMeshFactory.obj
 0001:00020a30       ??4NodeAllocator@Gu@physx@@QEAAAEAV012@AEBV012@@Z 0000000180021a30 f i GuMeshFactory.obj
 0001:00020ae0       ??_EMeshFactory@Gu@physx@@MEAAPEAXI@Z 0000000180021ae0 f i GuMeshFactory.obj
 0001:00020c00       ??_FAABBTreeBuildParams@Gu@physx@@QEAAXXZ 0000000180021c00 f i GuMeshFactory.obj
 0001:00020c20       ??_EBV4TriangleData@Gu@physx@@UEAAPEAXI@Z 0000000180021c20 f i GuMeshFactory.obj
 0001:00020c20       ??_GBV4TriangleData@Gu@physx@@UEAAPEAXI@Z 0000000180021c20 f i GuMeshFactory.obj
 0001:00020cb0       ??_ECollisionMeshMappingData@Gu@physx@@UEAAPEAXI@Z 0000000180021cb0 f i GuMeshFactory.obj
 0001:00020cb0       ??_GCollisionMeshMappingData@Gu@physx@@UEAAPEAXI@Z 0000000180021cb0 f i GuMeshFactory.obj
 0001:00020d20       ??_GDeformableVolumeCollisionData@Gu@physx@@UEAAPEAXI@Z 0000000180021d20 f i GuMeshFactory.obj
 0001:00020d20       ??_EDeformableVolumeCollisionData@Gu@physx@@UEAAPEAXI@Z 0000000180021d20 f i GuMeshFactory.obj
 0001:00020d90       ??_GDeformableVolumeSimulationData@Gu@physx@@UEAAPEAXI@Z 0000000180021d90 f i GuMeshFactory.obj
 0001:00020d90       ??_EDeformableVolumeSimulationData@Gu@physx@@UEAAPEAXI@Z 0000000180021d90 f i GuMeshFactory.obj
 0001:00020e00       ??_EMeshDataBase@Gu@physx@@UEAAPEAXI@Z 0000000180021e00 f i GuMeshFactory.obj
 0001:00020e00       ??_GMeshDataBase@Gu@physx@@UEAAPEAXI@Z 0000000180021e00 f i GuMeshFactory.obj
 0001:00020e70       ??_GPxCollisionMeshMappingData@physx@@UEAAPEAXI@Z 0000000180021e70 f i GuMeshFactory.obj
 0001:00020e70       ??_EPxCollisionMeshMappingData@physx@@UEAAPEAXI@Z 0000000180021e70 f i GuMeshFactory.obj
 0001:00020ec0       ??_ECallbackRefit@RTree@Gu@physx@@UEAAPEAXI@Z 0000000180021ec0 f i GuTriangleMeshRTree.obj
 0001:00020ec0       ??_EPxInsertionCallback@physx@@MEAAPEAXI@Z 0000000180021ec0 f i GuMeshFactory.obj
 0001:00020ec0       ??_GCallbackRaycast@RTree@Gu@physx@@UEAAPEAXI@Z 0000000180021ec0 f i GuMidphaseRTree.obj
 0001:00020ec0       ??_GCallbackRefit@RTree@Gu@physx@@UEAAPEAXI@Z 0000000180021ec0 f i GuTriangleMeshRTree.obj
 0001:00020ec0       ??_ECallbackRaycast@RTree@Gu@physx@@UEAAPEAXI@Z 0000000180021ec0 f i GuMidphaseRTree.obj
 0001:00020ec0       ??_GPxInsertionCallback@physx@@MEAAPEAXI@Z 0000000180021ec0 f i GuMeshFactory.obj
 0001:00020ef0       ??_GRTreeTriangleData@Gu@physx@@UEAAPEAXI@Z 0000000180021ef0 f i GuMeshFactory.obj
 0001:00020ef0       ??_ERTreeTriangleData@Gu@physx@@UEAAPEAXI@Z 0000000180021ef0 f i GuMeshFactory.obj
 0001:00020fd0       ??_GTriangleMeshData@Gu@physx@@UEAAPEAXI@Z 0000000180021fd0 f i GuMeshFactory.obj
 0001:00020fd0       ??_ETriangleMeshData@Gu@physx@@UEAAPEAXI@Z 0000000180021fd0 f i GuMeshFactory.obj
 0001:00021040       ??_V@YAXPEAX_K@Z           0000000180022040 f i LIBCMT:delete_array_size.obj
 0001:00021040       ?__global_delete@@YAXPEAX_K@Z 0000000180022040 f i GuMeshFactory.obj
 0001:00021050       ?addBVH@MeshFactory@Gu@physx@@QEAAXPEAVBVH@23@_N@Z 0000000180022050 f   GuMeshFactory.obj
 0001:000210f0       ?addConvexMesh@MeshFactory@Gu@physx@@QEAAXPEAVConvexMesh@23@_N@Z 00000001800220f0 f   GuMeshFactory.obj
 0001:00021190       ?addDeformableVolumeMesh@MeshFactory@Gu@physx@@QEAAXPEAVDeformableVolumeMesh@23@_N@Z 0000000180022190 f   GuMeshFactory.obj
 0001:00021230       ?addFactoryListener@MeshFactory@Gu@physx@@QEAAXAEAVMeshFactoryListener@23@@Z 0000000180022230 f   GuMeshFactory.obj
 0001:000212a0       ?addHeightField@MeshFactory@Gu@physx@@QEAAXPEAVHeightField@23@_N@Z 00000001800222a0 f   GuMeshFactory.obj
 0001:00021340       ?addTetrahedronMesh@MeshFactory@Gu@physx@@QEAAXPEAVTetrahedronMesh@23@_N@Z 0000000180022340 f   GuMeshFactory.obj
 0001:000213e0       ?addTriangleMesh@MeshFactory@Gu@physx@@QEAAXPEAVTriangleMesh@23@_N@Z 00000001800223e0 f   GuMeshFactory.obj
 0001:00021480       ?allocate@?$PxArray@USlab@NodeAllocator@Gu@physx@@V?$PxReflectionAllocator@USlab@NodeAllocator@Gu@physx@@@4@@physx@@IEAAPEAUSlab@NodeAllocator@Gu@2@IPEAI@Z 0000000180022480 f i GuMeshFactory.obj
 0001:00021530       ?allocateAdjacencies@TriangleMeshData@Gu@physx@@QEAAPEAIXZ 0000000180022530 f i GuMeshFactory.obj
 0001:000215a0       ?allocateExtraTrigData@TriangleMeshData@Gu@physx@@QEAAPEAEXZ 00000001800225a0 f i GuMeshFactory.obj
 0001:00021610       ?allocateFaceRemap@TriangleMeshData@Gu@physx@@QEAAPEAIXZ 0000000180022610 f i GuMeshFactory.obj
 0001:00021680       ?allocateGridModelData@DeformableVolumeSimulationData@Gu@physx@@QEAAXIIIIIII@Z 0000000180022680 f i GuMeshFactory.obj
 0001:000218f0       ?allocateMaterials@TetrahedronMeshData@Gu@physx@@QEAAPEAGXZ 00000001800228f0 f i GuMeshFactory.obj
 0001:00021960       ?allocateMaterials@TriangleMeshData@Gu@physx@@QEAAPEAGXZ 0000000180022960 f i GuMeshFactory.obj
 0001:000219d0       ?allocateTetrahedrons@TetrahedronMeshData@Gu@physx@@QEAAXII@Z 00000001800229d0 f i GuMeshFactory.obj
 0001:00021a60       ?allocateTriangles@TriangleMeshData@Gu@physx@@QEAAPEAXI_NI@Z 0000000180022a60 f i GuMeshFactory.obj
 0001:00021b50       ?allocateVertices@MeshDataBase@Gu@physx@@QEAAPEAV?$PxVec3T@M@3@I@Z 0000000180022b50 f i GuMeshFactory.obj
 0001:00021bc0       ?allocateVertices@TetrahedronMeshData@Gu@physx@@QEAAPEAV?$PxVec3T@M@3@II@Z 0000000180022bc0 f i GuMeshFactory.obj
 0001:00021c60       ?allocatemappingData@CollisionMeshMappingData@Gu@physx@@QEAAXIIII@Z 0000000180022c60 f i GuMeshFactory.obj
 0001:00022290       ?create@?$PxHashBase@PEAVTetrahedronMesh@Gu@physx@@PEAV123@U?$PxHash@PEAVTetrahedronMesh@Gu@physx@@@3@UGetKey@?$PxHashSetBase@PEAVTetrahedronMesh@Gu@physx@@U?$PxHash@PEAVTetrahedronMesh@Gu@physx@@@3@VPxAllocator@3@$00@3@VPxAllocator@3@$00@physx@@QEAAPEAPEAVTetrahedronMesh@Gu@2@AEBQEAV342@AEA_N@Z 0000000180023290 f i GuMeshFactory.obj
 0001:00022290       ?create@?$PxHashBase@PEAVTriangleMesh@Gu@physx@@PEAV123@U?$PxHash@PEAVTriangleMesh@Gu@physx@@@3@UGetKey@?$PxHashSetBase@PEAVTriangleMesh@Gu@physx@@U?$PxHash@PEAVTriangleMesh@Gu@physx@@@3@VPxAllocator@3@$00@3@VPxAllocator@3@$00@physx@@QEAAPEAPEAVTriangleMesh@Gu@2@AEBQEAV342@AEA_N@Z 0000000180023290 f i GuMeshFactory.obj
 0001:00022290       ?create@?$PxHashBase@PEAVConvexMesh@Gu@physx@@PEAV123@U?$PxHash@PEAVConvexMesh@Gu@physx@@@3@UGetKey@?$PxHashSetBase@PEAVConvexMesh@Gu@physx@@U?$PxHash@PEAVConvexMesh@Gu@physx@@@3@VPxAllocator@3@$00@3@VPxAllocator@3@$00@physx@@QEAAPEAPEAVConvexMesh@Gu@2@AEBQEAV342@AEA_N@Z 0000000180023290 f i GuMeshFactory.obj
 0001:00022290       ?create@?$PxHashBase@PEAVHeightField@Gu@physx@@PEAV123@U?$PxHash@PEAVHeightField@Gu@physx@@@3@UGetKey@?$PxHashSetBase@PEAVHeightField@Gu@physx@@U?$PxHash@PEAVHeightField@Gu@physx@@@3@VPxAllocator@3@$00@3@VPxAllocator@3@$00@physx@@QEAAPEAPEAVHeightField@Gu@2@AEBQEAV342@AEA_N@Z 0000000180023290 f i GuMeshFactory.obj
 0001:00022290       ?create@?$PxHashBase@PEAVBVH@Gu@physx@@PEAV123@U?$PxHash@PEAVBVH@Gu@physx@@@3@UGetKey@?$PxHashSetBase@PEAVBVH@Gu@physx@@U?$PxHash@PEAVBVH@Gu@physx@@@3@VPxAllocator@3@$00@3@VPxAllocator@3@$00@physx@@QEAAPEAPEAVBVH@Gu@2@AEBQEAV342@AEA_N@Z 0000000180023290 f i GuMeshFactory.obj
 0001:00022290       ?create@?$PxHashBase@PEAVDeformableVolumeMesh@Gu@physx@@PEAV123@U?$PxHash@PEAVDeformableVolumeMesh@Gu@physx@@@3@UGetKey@?$PxHashSetBase@PEAVDeformableVolumeMesh@Gu@physx@@U?$PxHash@PEAVDeformableVolumeMesh@Gu@physx@@@3@VPxAllocator@3@$00@3@VPxAllocator@3@$00@physx@@QEAAPEAPEAVDeformableVolumeMesh@Gu@2@AEBQEAV342@AEA_N@Z 0000000180023290 f i GuMeshFactory.obj
 0001:00022430       ?createBVH@MeshFactory@Gu@physx@@IEAAPEAVPxBVH@3@AEAVBVHData@23@@Z 0000000180023430 f   GuMeshFactory.obj
 0001:00022590       ?createBVH@MeshFactory@Gu@physx@@QEAAPEAVPxBVH@3@AEAVPxInputStream@3@@Z 0000000180023590 f   GuMeshFactory.obj
 0001:00022700       ?createBVH@MeshFactory@Gu@physx@@QEAAPEAVPxBVH@3@PEAX@Z 0000000180023700 f   GuMeshFactory.obj
 0001:00022710       ?createConvexMesh@MeshFactory@Gu@physx@@IEAAPEAVPxConvexMesh@3@AEAUConvexHullInitData@23@@Z 0000000180023710 f   GuMeshFactory.obj
 0001:00022850       ?createConvexMesh@MeshFactory@Gu@physx@@QEAAPEAVPxConvexMesh@3@AEAVPxInputStream@3@@Z 0000000180023850 f   GuMeshFactory.obj
 0001:000229b0       ?createConvexMesh@MeshFactory@Gu@physx@@QEAAPEAVPxConvexMesh@3@PEAX@Z 00000001800239b0 f   GuMeshFactory.obj
 0001:000229c0       ?createDeformableVolumeMesh@MeshFactory@Gu@physx@@IEAAPEAVPxDeformableVolumeMesh@3@AEAVDeformableVolumeMeshData@23@@Z 00000001800239c0 f   GuMeshFactory.obj
 0001:00022b00       ?createDeformableVolumeMesh@MeshFactory@Gu@physx@@QEAAPEAVPxDeformableVolumeMesh@3@AEAVPxInputStream@3@@Z 0000000180023b00 f   GuMeshFactory.obj
 0001:00023100       ?createDeformableVolumeMesh@MeshFactory@Gu@physx@@QEAAPEAVPxDeformableVolumeMesh@3@PEAX@Z 0000000180024100 f   GuMeshFactory.obj
 0001:00023110       ?createHeightField@MeshFactory@Gu@physx@@QEAAPEAVPxHeightField@3@AEAVPxInputStream@3@@Z 0000000180024110 f   GuMeshFactory.obj
 0001:00023280       ?createHeightField@MeshFactory@Gu@physx@@QEAAPEAVPxHeightField@3@PEAX@Z 0000000180024280 f   GuMeshFactory.obj
 0001:000233e0       ?createTetrahedronMesh@MeshFactory@Gu@physx@@IEAAPEAVPxTetrahedronMesh@3@AEAVTetrahedronMeshData@23@@Z 00000001800243e0 f   GuMeshFactory.obj
 0001:00023530       ?createTetrahedronMesh@MeshFactory@Gu@physx@@QEAAPEAVPxTetrahedronMesh@3@AEAVPxInputStream@3@@Z 0000000180024530 f   GuMeshFactory.obj
 0001:000235a0       ?createTetrahedronMesh@MeshFactory@Gu@physx@@QEAAPEAVPxTetrahedronMesh@3@PEAX@Z 00000001800245a0 f   GuMeshFactory.obj
 0001:000235b0       ?createTriangleMesh@MeshFactory@Gu@physx@@IEAAPEAVPxTriangleMesh@3@AEAVTriangleMeshData@23@@Z 00000001800245b0 f   GuMeshFactory.obj
 0001:000237a0       ?createTriangleMesh@MeshFactory@Gu@physx@@QEAAPEAVPxTriangleMesh@3@AEAVPxInputStream@3@@Z 00000001800247a0 f   GuMeshFactory.obj
 0001:00023800       ?createTriangleMesh@MeshFactory@Gu@physx@@QEAAPEAVPxTriangleMesh@3@PEAX@Z 0000000180024800 f   GuMeshFactory.obj
 0001:00023810       ?erase@?$PxHashBase@PEAVTetrahedronMesh@Gu@physx@@PEAV123@U?$PxHash@PEAVTetrahedronMesh@Gu@physx@@@3@UGetKey@?$PxHashSetBase@PEAVTetrahedronMesh@Gu@physx@@U?$PxHash@PEAVTetrahedronMesh@Gu@physx@@@3@VPxAllocator@3@$00@3@VPxAllocator@3@$00@physx@@QEAA_NAEBQEAVTetrahedronMesh@Gu@2@@Z 0000000180024810 f i GuMeshFactory.obj
 0001:00023810       ?erase@?$PxHashBase@PEAVConvexMesh@Gu@physx@@PEAV123@U?$PxHash@PEAVConvexMesh@Gu@physx@@@3@UGetKey@?$PxHashSetBase@PEAVConvexMesh@Gu@physx@@U?$PxHash@PEAVConvexMesh@Gu@physx@@@3@VPxAllocator@3@$00@3@VPxAllocator@3@$00@physx@@QEAA_NAEBQEAVConvexMesh@Gu@2@@Z 0000000180024810 f i GuMeshFactory.obj
 0001:00023810       ?erase@?$PxHashBase@PEAVHeightField@Gu@physx@@PEAV123@U?$PxHash@PEAVHeightField@Gu@physx@@@3@UGetKey@?$PxHashSetBase@PEAVHeightField@Gu@physx@@U?$PxHash@PEAVHeightField@Gu@physx@@@3@VPxAllocator@3@$00@3@VPxAllocator@3@$00@physx@@QEAA_NAEBQEAVHeightField@Gu@2@@Z 0000000180024810 f i GuMeshFactory.obj
 0001:00023810       ?erase@?$PxHashBase@PEAVDeformableVolumeMesh@Gu@physx@@PEAV123@U?$PxHash@PEAVDeformableVolumeMesh@Gu@physx@@@3@UGetKey@?$PxHashSetBase@PEAVDeformableVolumeMesh@Gu@physx@@U?$PxHash@PEAVDeformableVolumeMesh@Gu@physx@@@3@VPxAllocator@3@$00@3@VPxAllocator@3@$00@physx@@QEAA_NAEBQEAVDeformableVolumeMesh@Gu@2@@Z 0000000180024810 f i GuMeshFactory.obj
 0001:00023810       ?erase@?$PxHashBase@PEAVTriangleMesh@Gu@physx@@PEAV123@U?$PxHash@PEAVTriangleMesh@Gu@physx@@@3@UGetKey@?$PxHashSetBase@PEAVTriangleMesh@Gu@physx@@U?$PxHash@PEAVTriangleMesh@Gu@physx@@@3@VPxAllocator@3@$00@3@VPxAllocator@3@$00@physx@@QEAA_NAEBQEAVTriangleMesh@Gu@2@@Z 0000000180024810 f i GuMeshFactory.obj
 0001:00023810       ?erase@?$PxHashBase@PEAVBVH@Gu@physx@@PEAV123@U?$PxHash@PEAVBVH@Gu@physx@@@3@UGetKey@?$PxHashSetBase@PEAVBVH@Gu@physx@@U?$PxHash@PEAVBVH@Gu@physx@@@3@VPxAllocator@3@$00@3@VPxAllocator@3@$00@physx@@QEAA_NAEBQEAVBVH@Gu@2@@Z 0000000180024810 f i GuMeshFactory.obj
 0001:00023980       ?getBVHs@MeshFactory@Gu@physx@@QEBAIPEAPEAVPxBVH@3@II@Z 0000000180024980 f   GuMeshFactory.obj
 0001:00023a20       ?getBounds@AABBTreeBounds@Gu@physx@@QEBAPEBVPxBounds3@3@XZ 0000000180024a20 f i GuMeshFactory.obj
 0001:00023a20       ?getBounds@AABBTreeBounds@Gu@physx@@QEAAPEAVPxBounds3@3@XZ 0000000180024a20 f i GuMeshFactory.obj
 0001:00023a30       ?getConvexMeshes@MeshFactory@Gu@physx@@QEBAIPEAPEAVPxConvexMesh@3@II@Z 0000000180024a30 f   GuMeshFactory.obj
 0001:00023ad0       ?getDeformableVolumeMeshes@MeshFactory@Gu@physx@@QEBAIPEAPEAVPxDeformableVolumeMesh@3@II@Z 0000000180024ad0 f   GuMeshFactory.obj
 0001:00023b70       ?getHeightFields@MeshFactory@Gu@physx@@QEBAIPEAPEAVPxHeightField@3@II@Z 0000000180024b70 f   GuMeshFactory.obj
 0001:00023c10       ?getNbBVHs@MeshFactory@Gu@physx@@QEBAIXZ 0000000180024c10 f   GuMeshFactory.obj
 0001:00023c50       ?getNbConvexMeshes@MeshFactory@Gu@physx@@QEBAIXZ 0000000180024c50 f   GuMeshFactory.obj
 0001:00023c90       ?getNbDeformableVolumeMeshes@MeshFactory@Gu@physx@@QEBAIXZ 0000000180024c90 f   GuMeshFactory.obj
 0001:00023cd0       ?getNbHeightFields@MeshFactory@Gu@physx@@QEBAIXZ 0000000180024cd0 f   GuMeshFactory.obj
 0001:00023d10       ?getNbRuntimePrimitives@AABBTreeBuildNode@Gu@physx@@QEBAIXZ 0000000180024d10 f i GuMeshFactory.obj
 0001:00023d10       ?getNbPrimitives@AABBTreeBuildNode@Gu@physx@@QEBAIXZ 0000000180024d10 f i GuMeshFactory.obj
 0001:00023d20       ?getNbTetrahedronMeshes@MeshFactory@Gu@physx@@QEBAIXZ 0000000180024d20 f   GuMeshFactory.obj
 0001:00023d60       ?getNbTriangleMeshes@MeshFactory@Gu@physx@@QEBAIXZ 0000000180024d60 f   GuMeshFactory.obj
 0001:00023da0       ?getNeg@AABBTreeBuildNode@Gu@physx@@QEBAPEBV123@XZ 0000000180024da0 f i GuMeshFactory.obj
 0001:00023dc0       ?getPrimitives@AABBTreeBuildNode@Gu@physx@@QEBAPEBIPEBI@Z 0000000180024dc0 f i GuMeshFactory.obj
 0001:00023dc0       ?getPrimitives@AABBTreeBuildNode@Gu@physx@@QEAAPEAIPEAI@Z 0000000180024dc0 f i GuMeshFactory.obj
 0001:00023dd0       ?getTetrahedronMeshes@MeshFactory@Gu@physx@@QEBAIPEAPEAVPxTetrahedronMesh@3@II@Z 0000000180024dd0 f   GuMeshFactory.obj
 0001:00023e60       ?getTriangleMeshes@MeshFactory@Gu@physx@@QEBAIPEAPEAVPxTriangleMesh@3@II@Z 0000000180024e60 f   GuMeshFactory.obj
 0001:00023ef0       ?growAndPushBack@?$PxArray@PEAVMeshFactoryListener@Gu@physx@@V?$PxReflectionAllocator@PEAVMeshFactoryListener@Gu@physx@@@3@@physx@@IEAAAEAPEAVMeshFactoryListener@Gu@2@AEBQEAV342@@Z 0000000180024ef0 f i GuMeshFactory.obj
 0001:00024030       ?isLeaf@AABBTreeBuildNode@Gu@physx@@QEBA_NXZ 0000000180025030 f i GuMeshFactory.obj
 0001:00025cc0       ?moveFrom@AABBTreeBounds@Gu@physx@@QEAAXAEAV123@@Z 0000000180026cc0 f i GuMeshFactory.obj
 0001:00025cd0       ?notifyFactoryListener@MeshFactory@Gu@physx@@QEAAXPEBVPxBase@3@G@Z 0000000180026cd0 f   GuMeshFactory.obj
 0001:00025d40       ?notifyListenersAdd@MeshFactory@Gu@physx@@IEAAXPEBVPxBase@3@@Z 0000000180026d40 f   GuMeshFactory.obj
 0001:00025d90       ?notifyListenersRemove@MeshFactory@Gu@physx@@IEAAXPEBVPxBase@3@@Z 0000000180026d90 f   GuMeshFactory.obj
 0001:00025de0       ?ownsMemory@AABBTreeBounds@Gu@physx@@QEBA_NXZ 0000000180026de0 f i GuMeshFactory.obj
 0001:00026060       ?recreate@?$PxArray@USlab@NodeAllocator@Gu@physx@@V?$PxReflectionAllocator@USlab@NodeAllocator@Gu@physx@@@4@@physx@@IEAAXI@Z 0000000180027060 f i GuMeshFactory.obj
 0001:00026170       ?release@CollisionMeshMappingData@Gu@physx@@UEAAXXZ 0000000180027170 f i GuMeshFactory.obj
 0001:00026190       ?release@MeshFactory@Gu@physx@@QEAAXXZ 0000000180027190 f   GuMeshFactory.obj
 0001:00026280       ?remove@MeshFactory@Gu@physx@@QEAA_NAEAVPxBase@3@@Z 0000000180027280 f   GuMeshFactory.obj
 0001:000262d0       ?removeBVH@MeshFactory@Gu@physx@@QEAA_NAEAVPxBVH@3@@Z 00000001800272d0 f   GuMeshFactory.obj
 0001:00026360       ?removeConvexMesh@MeshFactory@Gu@physx@@QEAA_NAEAVPxConvexMesh@3@@Z 0000000180027360 f   GuMeshFactory.obj
 0001:000263f0       ?removeDeformableVolumeMesh@MeshFactory@Gu@physx@@QEAA_NAEAVPxDeformableVolumeMesh@3@@Z 00000001800273f0 f   GuMeshFactory.obj
 0001:00026480       ?removeFactoryListener@MeshFactory@Gu@physx@@QEAAXAEAVMeshFactoryListener@23@@Z 0000000180027480 f   GuMeshFactory.obj
 0001:00026510       ?removeHeightField@MeshFactory@Gu@physx@@QEAA_NAEAVPxHeightField@3@@Z 0000000180027510 f   GuMeshFactory.obj
 0001:000265a0       ?removeTetrahedronMesh@MeshFactory@Gu@physx@@QEAA_NAEAVPxTetrahedronMesh@3@@Z 00000001800275a0 f   GuMeshFactory.obj
 0001:00026630       ?removeTriangleMesh@MeshFactory@Gu@physx@@QEAA_NAEAVPxTriangleMesh@3@@Z 0000000180027630 f   GuMeshFactory.obj
 0001:000266c0       ?reserveInternal@?$PxHashBase@PEAVTetrahedronMesh@Gu@physx@@PEAV123@U?$PxHash@PEAVTetrahedronMesh@Gu@physx@@@3@UGetKey@?$PxHashSetBase@PEAVTetrahedronMesh@Gu@physx@@U?$PxHash@PEAVTetrahedronMesh@Gu@physx@@@3@VPxAllocator@3@$00@3@VPxAllocator@3@$00@physx@@AEAAXI@Z 00000001800276c0 f i GuMeshFactory.obj
 0001:000266c0       ?reserveInternal@?$PxHashBase@PEAVDeformableVolumeMesh@Gu@physx@@PEAV123@U?$PxHash@PEAVDeformableVolumeMesh@Gu@physx@@@3@UGetKey@?$PxHashSetBase@PEAVDeformableVolumeMesh@Gu@physx@@U?$PxHash@PEAVDeformableVolumeMesh@Gu@physx@@@3@VPxAllocator@3@$00@3@VPxAllocator@3@$00@physx@@AEAAXI@Z 00000001800276c0 f i GuMeshFactory.obj
 0001:000266c0       ?reserveInternal@?$PxHashBase@PEAVHeightField@Gu@physx@@PEAV123@U?$PxHash@PEAVHeightField@Gu@physx@@@3@UGetKey@?$PxHashSetBase@PEAVHeightField@Gu@physx@@U?$PxHash@PEAVHeightField@Gu@physx@@@3@VPxAllocator@3@$00@3@VPxAllocator@3@$00@physx@@AEAAXI@Z 00000001800276c0 f i GuMeshFactory.obj
 0001:000266c0       ?reserveInternal@?$PxHashBase@PEAVBVH@Gu@physx@@PEAV123@U?$PxHash@PEAVBVH@Gu@physx@@@3@UGetKey@?$PxHashSetBase@PEAVBVH@Gu@physx@@U?$PxHash@PEAVBVH@Gu@physx@@@3@VPxAllocator@3@$00@3@VPxAllocator@3@$00@physx@@AEAAXI@Z 00000001800276c0 f i GuMeshFactory.obj
 0001:000266c0       ?reserveInternal@?$PxHashBase@PEAVTriangleMesh@Gu@physx@@PEAV123@U?$PxHash@PEAVTriangleMesh@Gu@physx@@@3@UGetKey@?$PxHashSetBase@PEAVTriangleMesh@Gu@physx@@U?$PxHash@PEAVTriangleMesh@Gu@physx@@@3@VPxAllocator@3@$00@3@VPxAllocator@3@$00@physx@@AEAAXI@Z 00000001800276c0 f i GuMeshFactory.obj
 0001:000266c0       ?reserveInternal@?$PxHashBase@PEAVConvexMesh@Gu@physx@@PEAV123@U?$PxHash@PEAVConvexMesh@Gu@physx@@@3@UGetKey@?$PxHashSetBase@PEAVConvexMesh@Gu@physx@@U?$PxHash@PEAVConvexMesh@Gu@physx@@@3@VPxAllocator@3@$00@3@VPxAllocator@3@$00@physx@@AEAAXI@Z 00000001800276c0 f i GuMeshFactory.obj
 0001:00026890       ?setBounds@AABBTreeBounds@Gu@physx@@QEAAXPEAVPxBounds3@3@@Z 0000000180027890 f i GuMeshFactory.obj
 0001:000268a0       ?setNbRunTimePrimitives@AABBTreeBuildNode@Gu@physx@@QEAAXI@Z 00000001800278a0 f i GuMeshFactory.obj
 0001:000268b0       ?takeOwnership@AABBTreeBounds@Gu@physx@@QEAAXXZ 00000001800278b0 f i GuMeshFactory.obj
 0001:000268c0       getInsertionCallback       00000001800278c0 f   GuMeshFactory.obj
 0001:000268d0       ?isDynamic@Pruner@Gu@physx@@UEBA_NXZ 00000001800278d0 f   GuIncrementalAABBPruner.obj
 0001:000268d0       ?getInternalData@TriangleMesh@Gu@physx@@UEBA_NAEAUPxTriangleMeshInternalData@3@_N@Z 00000001800278d0 f   GuTriangleMesh.obj
 0001:00027e70       ??$gjk@U?$LocalConvex@VCapsuleV@Gu@physx@@@Gu@physx@@U?$LocalConvex@VConvexHullV@Gu@physx@@@23@@Gu@physx@@YA?AW4GjkStatus@01@AEBU?$LocalConvex@VCapsuleV@Gu@physx@@@01@AEBU?$LocalConvex@VConvexHullV@Gu@physx@@@01@AEBT__m128@@2AEAT5@333@Z 0000000180028e70 f i GuMTD.obj
 0001:00028be0       ??_G?$LocalConvex@VCapsuleV@Gu@physx@@@Gu@physx@@UEAAPEAXI@Z 0000000180029be0 f i GuMTD.obj
 0001:00028be0       ??_G?$LocalConvex@VTriangleV@Gu@physx@@@Gu@physx@@UEAAPEAXI@Z 0000000180029be0 f i GuSweepTests.obj
 0001:00028be0       ??_EGjkConvex@Gu@physx@@UEAAPEAXI@Z 0000000180029be0 f i GuMTD.obj
 0001:00028be0       ??_G?$LocalConvex@UPointConvexV@@@Gu@physx@@UEAAPEAXI@Z 0000000180029be0 f i GuGjkQuery.obj
 0001:00028be0       ??_G?$LocalConvex@VConvexHullNoScaleV@Gu@physx@@@Gu@physx@@UEAAPEAXI@Z 0000000180029be0 f i GuPCMContactBoxConvex.obj
 0001:00028be0       ??_G?$LocalConvex@VTetrahedronV@Gu@physx@@@Gu@physx@@UEAAPEAXI@Z 0000000180029be0 f i GuCookingTetrahedronMesh.obj
 0001:00028be0       ??_E?$LocalConvex@UCustomConvexV@@@Gu@physx@@UEAAPEAXI@Z 0000000180029be0 f i GuGjkQuery.obj
 0001:00028be0       ??_G?$LocalConvex@VBoxV@Gu@physx@@@Gu@physx@@UEAAPEAXI@Z 0000000180029be0 f i GuSweepTests.obj
 0001:00028be0       ??_GGjkConvex@Gu@physx@@UEAAPEAXI@Z 0000000180029be0 f i GuMTD.obj
 0001:00028be0       ??_E?$LocalConvex@VTriangleV@Gu@physx@@@Gu@physx@@UEAAPEAXI@Z 0000000180029be0 f i GuSweepTests.obj
 0001:00028be0       ??_E?$LocalConvex@VConvexHullNoScaleV@Gu@physx@@@Gu@physx@@UEAAPEAXI@Z 0000000180029be0 f i GuPCMContactBoxConvex.obj
 0001:00028be0       ??_E?$LocalConvex@VCapsuleV@Gu@physx@@@Gu@physx@@UEAAPEAXI@Z 0000000180029be0 f i GuMTD.obj
 0001:00028be0       ??_E?$LocalConvex@UPointConvexV@@@Gu@physx@@UEAAPEAXI@Z 0000000180029be0 f i GuGjkQuery.obj
 0001:00028be0       ??_G?$LocalConvex@UCustomConvexV@@@Gu@physx@@UEAAPEAXI@Z 0000000180029be0 f i GuGjkQuery.obj
 0001:00028be0       ??_E?$LocalConvex@VBoxV@Gu@physx@@@Gu@physx@@UEAAPEAXI@Z 0000000180029be0 f i GuSweepTests.obj
 0001:00028be0       ??_E?$LocalConvex@VConvexHullV@Gu@physx@@@Gu@physx@@UEAAPEAXI@Z 0000000180029be0 f i GuMTD.obj
 0001:00028be0       ??_G?$LocalConvex@VConvexHullV@Gu@physx@@@Gu@physx@@UEAAPEAXI@Z 0000000180029be0 f i GuMTD.obj
 0001:00028be0       ??_E?$LocalConvex@VTetrahedronV@Gu@physx@@@Gu@physx@@UEAAPEAXI@Z 0000000180029be0 f i GuCookingTetrahedronMesh.obj
 0001:0002daf0       ?doSupport@?$SupportLocalImpl@VConvexHullNoScaleV@Gu@physx@@@Gu@physx@@UEBA?AT__m128@@AEBT4@@Z 000000018002eaf0 f i GuMTD.obj
 0001:0002db40       ?doSupport@?$SupportLocalImpl@VConvexHullNoScaleV@Gu@physx@@@Gu@physx@@UEBAXAEBT__m128@@AEAT4@1@Z 000000018002eb40 f i GuMTD.obj
 0001:0002dcc0       ?getCenter@?$LocalConvex@VCapsuleV@Gu@physx@@@Gu@physx@@UEBA?AT__m128@@XZ 000000018002ecc0 f i GuMTD.obj
 0001:0002dcc0       ?getCenter@?$LocalConvex@UPointConvexV@@@Gu@physx@@UEBA?AT__m128@@XZ 000000018002ecc0 f i GuGjkQuery.obj
 0001:0002dcc0       ?getCenter@?$LocalConvex@VTriangleV@Gu@physx@@@Gu@physx@@UEBA?AT__m128@@XZ 000000018002ecc0 f i GuSweepTests.obj
 0001:0002dcc0       ?getCenter@?$LocalConvex@VTetrahedronV@Gu@physx@@@Gu@physx@@UEBA?AT__m128@@XZ 000000018002ecc0 f i GuCookingTetrahedronMesh.obj
 0001:0002dcc0       ?getCenter@?$LocalConvex@VConvexHullNoScaleV@Gu@physx@@@Gu@physx@@UEBA?AT__m128@@XZ 000000018002ecc0 f i GuPCMContactBoxConvex.obj
 0001:0002dcc0       ?getCenter@?$LocalConvex@UCustomConvexV@@@Gu@physx@@UEBA?AT__m128@@XZ 000000018002ecc0 f i GuGjkQuery.obj
 0001:0002dcc0       ?getCenter@?$LocalConvex@VBoxV@Gu@physx@@@Gu@physx@@UEBA?AT__m128@@XZ 000000018002ecc0 f i GuSweepTests.obj
 0001:0002dcc0       ?getCenter@?$LocalConvex@VConvexHullV@Gu@physx@@@Gu@physx@@UEBA?AT__m128@@XZ 000000018002ecc0 f i GuMTD.obj
 0001:0002dcd0       ?getSweepMargin@?$RelativeConvex@VCapsuleV@Gu@physx@@@Gu@physx@@UEBA?AT__m128@@XZ 000000018002ecd0 f i GuCCDSweepPrimitives.obj
 0001:0002dcd0       ?getSweepMargin@?$LocalConvex@VCapsuleV@Gu@physx@@@Gu@physx@@UEBA?AT__m128@@XZ 000000018002ecd0 f i GuMTD.obj
 0001:0002dce0       ?getSweepMargin@?$RelativeConvex@VBoxV@Gu@physx@@@Gu@physx@@UEBA?AT__m128@@XZ 000000018002ece0 f i GuOverlapTests.obj
 0001:0002dce0       ?getSweepMargin@?$LocalConvex@VBoxV@Gu@physx@@@Gu@physx@@UEBA?AT__m128@@XZ 000000018002ece0 f i GuSweepTests.obj
 0001:0002dce0       ?getSweepMargin@?$LocalConvex@VConvexHullV@Gu@physx@@@Gu@physx@@UEBA?AT__m128@@XZ 000000018002ece0 f i GuMTD.obj
 0001:0002dce0       ?getSweepMargin@?$LocalConvex@UPointConvexV@@@Gu@physx@@UEBA?AT__m128@@XZ 000000018002ece0 f i GuGjkQuery.obj
 0001:0002dce0       ?getSweepMargin@?$LocalConvex@VConvexHullNoScaleV@Gu@physx@@@Gu@physx@@UEBA?AT__m128@@XZ 000000018002ece0 f i GuPCMContactBoxConvex.obj
 0001:0002dce0       ?getSweepMargin@?$LocalConvex@UCustomConvexV@@@Gu@physx@@UEBA?AT__m128@@XZ 000000018002ece0 f i GuGjkQuery.obj
 0001:0002dce0       ?getSweepMargin@?$RelativeConvex@VConvexHullNoScaleV@Gu@physx@@@Gu@physx@@UEBA?AT__m128@@XZ 000000018002ece0 f i GuPCMContactConvexConvex.obj
 0001:0002dce0       ?getSweepMargin@?$RelativeConvex@VConvexHullV@Gu@physx@@@Gu@physx@@UEBA?AT__m128@@XZ 000000018002ece0 f i GuOverlapTests.obj
 0001:0002dce0       ?getSweepMargin@?$RelativeConvex@UCustomConvexV@@@Gu@physx@@UEBA?AT__m128@@XZ 000000018002ece0 f i GuGjkQuery.obj
 0001:0002dd00       ?getSweepMargin@GjkConvex@Gu@physx@@UEBA?AT__m128@@XZ 000000018002ed00 f i GuMTD.obj
 0001:0002dd20       ?pointConvexDistance@@YA_NAEAV?$PxVec3T@M@physx@@0AEAMAEBV12@PEBVConvexMesh@Gu@2@AEBVPxMeshScale@2@AEBUPxTransformPadded@2@@Z 000000018002ed20 f   GuMTD.obj
 0001:0002e6f0       ?populateVerts@?$SupportLocalImpl@VConvexHullNoScaleV@Gu@physx@@@Gu@physx@@UEBAXPEBEIPEBV?$PxVec3T@M@3@PEAT__m128@@@Z 000000018002f6f0 f i GuMTD.obj
 0001:0002eac0       ?support@?$LocalConvex@VCapsuleV@Gu@physx@@@Gu@physx@@UEBA?AT__m128@@AEBT4@@Z 000000018002fac0 f i GuMTD.obj
 0001:0002eb20       ?support@?$LocalConvex@VCapsuleV@Gu@physx@@@Gu@physx@@UEBA?AT__m128@@AEBT4@AEAH@Z 000000018002fb20 f i GuMTD.obj
 0001:0002eb90       ?support@?$LocalConvex@VConvexHullV@Gu@physx@@@Gu@physx@@UEBA?AT__m128@@AEBT4@@Z 000000018002fb90 f i GuMTD.obj
 0001:0002ec70       ?support@?$LocalConvex@VConvexHullV@Gu@physx@@@Gu@physx@@UEBA?AT__m128@@AEBT4@AEAH@Z 000000018002fc70 f i GuMTD.obj
 0001:0002ed40       ?support@GjkConvex@Gu@physx@@UEBA?AT__m128@@AEBT4@@Z 000000018002fd40 f i GuMTD.obj
 0001:0002ed60       ?support@GjkConvex@Gu@physx@@UEBA?AT__m128@@AEBT4@AEAH@Z 000000018002fd60 f i GuMTD.obj
 0001:0002ed80       ?supportPoint@?$LocalConvex@VCapsuleV@Gu@physx@@@Gu@physx@@UEBA?AT__m128@@H@Z 000000018002fd80 f i GuMTD.obj
 0001:0002edb0       ?supportPoint@?$LocalConvex@VConvexHullV@Gu@physx@@@Gu@physx@@UEBA?AT__m128@@H@Z 000000018002fdb0 f i GuMTD.obj
 0001:0002ee00       ?supportPoint@GjkConvex@Gu@physx@@UEBA?AT__m128@@H@Z 000000018002fe00 f i GuMTD.obj
 0001:00031190       ?GeomOverlapCallback_ConvexCoreHeightfield@@YA_NAEBVPxGeometry@physx@@AEBV?$PxTransformT@M@2@01PEAUTriggerCache@Gu@2@PEAUPxQueryThreadContext@2@@Z 0000000180032190 f   GuOverlapTests.obj
 0001:000312a0       ??$gjk@U?$RelativeConvex@VBoxV@Gu@physx@@@Gu@physx@@U?$LocalConvex@VConvexHullV@Gu@physx@@@23@@Gu@physx@@YA?AW4GjkStatus@01@AEBU?$RelativeConvex@VBoxV@Gu@physx@@@01@AEBU?$LocalConvex@VConvexHullV@Gu@physx@@@01@AEBT__m128@@2AEAT5@333@Z 00000001800322a0 f i GuOverlapTests.obj
 0001:00032070       ??$gjk@U?$RelativeConvex@VConvexHullV@Gu@physx@@@Gu@physx@@U?$LocalConvex@VConvexHullV@Gu@physx@@@23@@Gu@physx@@YA?AW4GjkStatus@01@AEBU?$RelativeConvex@VConvexHullV@Gu@physx@@@01@AEBU?$LocalConvex@VConvexHullV@Gu@physx@@@01@AEBT__m128@@2AEAT5@333@Z 0000000180033070 f i GuOverlapTests.obj
 0001:00032f00       ??_G?$RelativeConvex@VBoxV@Gu@physx@@@Gu@physx@@UEAAPEAXI@Z 0000000180033f00 f i GuOverlapTests.obj
 0001:00032f00       ??_E?$RelativeConvex@VBoxV@Gu@physx@@@Gu@physx@@UEAAPEAXI@Z 0000000180033f00 f i GuOverlapTests.obj
 0001:00032f00       ??_G?$RelativeConvex@VCapsuleV@Gu@physx@@@Gu@physx@@UEAAPEAXI@Z 0000000180033f00 f i GuCCDSweepPrimitives.obj
 0001:00032f00       ??_E?$RelativeConvex@VConvexHullNoScaleV@Gu@physx@@@Gu@physx@@UEAAPEAXI@Z 0000000180033f00 f i GuPCMContactConvexConvex.obj
 0001:00032f00       ??_E?$RelativeConvex@VTriangleV@Gu@physx@@@Gu@physx@@UEAAPEAXI@Z 0000000180033f00 f i GuCCDSweepPrimitives.obj
 0001:00032f00       ??_G?$RelativeConvex@VConvexHullNoScaleV@Gu@physx@@@Gu@physx@@UEAAPEAXI@Z 0000000180033f00 f i GuPCMContactConvexConvex.obj
 0001:00032f00       ??_G?$RelativeConvex@VConvexHullV@Gu@physx@@@Gu@physx@@UEAAPEAXI@Z 0000000180033f00 f i GuOverlapTests.obj
 0001:00032f00       ??_G?$RelativeConvex@UCustomConvexV@@@Gu@physx@@UEAAPEAXI@Z 0000000180033f00 f i GuGjkQuery.obj
 0001:00032f00       ??_E?$RelativeConvex@UCustomConvexV@@@Gu@physx@@UEAAPEAXI@Z 0000000180033f00 f i GuGjkQuery.obj
 0001:00032f00       ??_G?$RelativeConvex@VTriangleV@Gu@physx@@@Gu@physx@@UEAAPEAXI@Z 0000000180033f00 f i GuCCDSweepPrimitives.obj
 0001:00032f00       ??_E?$RelativeConvex@VCapsuleV@Gu@physx@@@Gu@physx@@UEAAPEAXI@Z 0000000180033f00 f i GuCCDSweepPrimitives.obj
 0001:00032f00       ??_E?$RelativeConvex@VConvexHullV@Gu@physx@@@Gu@physx@@UEAAPEAXI@Z 0000000180033f00 f i GuOverlapTests.obj
 0001:00032f60       ?getCenter@?$RelativeConvex@VConvexHullNoScaleV@Gu@physx@@@Gu@physx@@UEBA?AT__m128@@XZ 0000000180033f60 f i GuPCMContactConvexConvex.obj
 0001:00032f60       ?getCenter@?$RelativeConvex@UCustomConvexV@@@Gu@physx@@UEBA?AT__m128@@XZ 0000000180033f60 f i GuGjkQuery.obj
 0001:00032f60       ?getCenter@?$RelativeConvex@VCapsuleV@Gu@physx@@@Gu@physx@@UEBA?AT__m128@@XZ 0000000180033f60 f i GuCCDSweepPrimitives.obj
 0001:00032f60       ?getCenter@?$RelativeConvex@VTriangleV@Gu@physx@@@Gu@physx@@UEBA?AT__m128@@XZ 0000000180033f60 f i GuCCDSweepPrimitives.obj
 0001:00032f60       ?getCenter@?$RelativeConvex@VConvexHullV@Gu@physx@@@Gu@physx@@UEBA?AT__m128@@XZ 0000000180033f60 f i GuOverlapTests.obj
 0001:00032f60       ?getCenter@?$RelativeConvex@VBoxV@Gu@physx@@@Gu@physx@@UEBA?AT__m128@@XZ 0000000180033f60 f i GuOverlapTests.obj
 0001:00032fa0       ?getOverlapFuncTable@Gu@physx@@YAPEAY0L@Q6A_NAEBVPxGeometry@2@AEBV?$PxTransformT@M@2@01PEAUTriggerCache@12@PEAUPxQueryThreadContext@2@@ZXZ 0000000180033fa0 f   GuOverlapTests.obj
 0001:00034c90       ?support@?$RelativeConvex@VBoxV@Gu@physx@@@Gu@physx@@UEBA?AT__m128@@AEBT4@@Z 0000000180035c90 f i GuOverlapTests.obj
 0001:00034d10       ?support@?$RelativeConvex@VBoxV@Gu@physx@@@Gu@physx@@UEBA?AT__m128@@AEBT4@AEAH@Z 0000000180035d10 f i GuOverlapTests.obj
 0001:00034da0       ?support@?$RelativeConvex@VConvexHullV@Gu@physx@@@Gu@physx@@UEBA?AT__m128@@AEBT4@@Z 0000000180035da0 f i GuOverlapTests.obj
 0001:00034ed0       ?support@?$RelativeConvex@VConvexHullV@Gu@physx@@@Gu@physx@@UEBA?AT__m128@@AEBT4@AEAH@Z 0000000180035ed0 f i GuOverlapTests.obj
 0001:00034ff0       ?support@ConvexShape@Gu@physx@@QEBA?AV?$PxVec3T@M@3@AEBV43@@Z 0000000180035ff0 f i GuOverlapTests.obj
 0001:00035350       ?supportPoint@?$RelativeConvex@VBoxV@Gu@physx@@@Gu@physx@@UEBA?AT__m128@@H@Z 0000000180036350 f i GuOverlapTests.obj
 0001:000353c0       ?supportPoint@?$RelativeConvex@VConvexHullV@Gu@physx@@@Gu@physx@@UEBA?AT__m128@@H@Z 00000001800363c0 f i GuOverlapTests.obj
 0001:00035440       ?raycast_box@@YAIAEBVPxGeometry@physx@@AEBV?$PxTransformT@M@2@AEBV?$PxVec3T@M@2@2MV?$PxFlags@W4Enum@PxHitFlag@physx@@G@2@IPEIAUPxGeomRaycastHit@2@IPEAUPxQueryThreadContext@2@@Z 0000000180036440 f   GuRaycastTests.obj
 0001:00035a70       ?raycast_sphere@@YAIAEBVPxGeometry@physx@@AEBV?$PxTransformT@M@2@AEBV?$PxVec3T@M@2@2MV?$PxFlags@W4Enum@PxHitFlag@physx@@G@2@IPEIAUPxGeomRaycastHit@2@IPEAUPxQueryThreadContext@2@@Z 0000000180036a70 f   GuRaycastTests.obj
 0001:00035c00       ?raycast_capsule@@YAIAEBVPxGeometry@physx@@AEBV?$PxTransformT@M@2@AEBV?$PxVec3T@M@2@2MV?$PxFlags@W4Enum@PxHitFlag@physx@@G@2@IPEIAUPxGeomRaycastHit@2@IPEAUPxQueryThreadContext@2@@Z 0000000180036c00 f   GuRaycastTests.obj
 0001:00036160       ?raycast_plane@@YAIAEBVPxGeometry@physx@@AEBV?$PxTransformT@M@2@AEBV?$PxVec3T@M@2@2MV?$PxFlags@W4Enum@PxHitFlag@physx@@G@2@IPEIAUPxGeomRaycastHit@2@IPEAUPxQueryThreadContext@2@@Z 0000000180037160 f   GuRaycastTests.obj
 0001:000362d0       ?raycast_convexMesh@@YAIAEBVPxGeometry@physx@@AEBV?$PxTransformT@M@2@AEBV?$PxVec3T@M@2@2MV?$PxFlags@W4Enum@PxHitFlag@physx@@G@2@IPEIAUPxGeomRaycastHit@2@IPEAUPxQueryThreadContext@2@@Z 00000001800372d0 f   GuRaycastTests.obj
 0001:00036de0       ?raycast_triangleMesh@@YAIAEBVPxGeometry@physx@@AEBV?$PxTransformT@M@2@AEBV?$PxVec3T@M@2@2MV?$PxFlags@W4Enum@PxHitFlag@physx@@G@2@IPEIAUPxGeomRaycastHit@2@IPEAUPxQueryThreadContext@2@@Z 0000000180037de0 f   GuRaycastTests.obj
 0001:00036e70       ?raycast_heightField@@YAIAEBVPxGeometry@physx@@AEBV?$PxTransformT@M@2@AEBV?$PxVec3T@M@2@2MV?$PxFlags@W4Enum@PxHitFlag@physx@@G@2@IPEIAUPxGeomRaycastHit@2@IPEAUPxQueryThreadContext@2@@Z 0000000180037e70 f   GuRaycastTests.obj
 0001:00038ac0       ??Dphysx@@YA?AV?$PxMat34T@M@0@AEBVPxMeshScale@0@AEBV?$PxTransformT@M@0@@Z 0000000180039ac0 f i GuRaycastTests.obj
 0001:000390e0       ??_ESupport@PxGjkQuery@physx@@UEAAPEAXI@Z 000000018003a0e0 f i GuRaycastTests.obj
 0001:000390e0       ??_GSupport@PxGjkQuery@physx@@UEAAPEAXI@Z 000000018003a0e0 f i GuRaycastTests.obj
 0001:00039610       ?getRaycastFuncTable@Gu@physx@@YAAEAY0L@Q6AIAEBVPxGeometry@2@AEBV?$PxTransformT@M@2@AEBV?$PxVec3T@M@2@2MV?$PxFlags@W4Enum@PxHitFlag@physx@@G@2@IPEIAUPxGeomRaycastHit@2@IPEAUPxQueryThreadContext@2@@ZXZ 000000018003a610 f   GuRaycastTests.obj
 0001:00039640       ??Dphysx@@YA?AV?$PxMat34T@M@0@AEBV?$PxTransformT@M@0@AEBVPxMeshScale@0@@Z 000000018003a640 f i GuSweepMTD.obj
 0001:00039b80       ??_G?$MeshHitCallback@UPxGeomRaycastHit@physx@@@Gu@physx@@UEAAPEAXI@Z 000000018003ab80 f i GuSweepMTD.obj
 0001:00039b80       ??_E?$MeshHitCallback@UPxGeomRaycastHit@physx@@@Gu@physx@@UEAAPEAXI@Z 000000018003ab80 f i GuSweepMTD.obj
 0001:00039bb0       ??_EMeshMTDGenerationCallback@@UEAAPEAXI@Z 000000018003abb0 f i GuSweepMTD.obj
 0001:00039bb0       ??_GMeshMTDGenerationCallback@@UEAAPEAXI@Z 000000018003abb0 f i GuSweepMTD.obj
 0001:00039be0       ??_GRTreeCookerRemap@@UEAAPEAXI@Z 000000018003abe0 f i GuCookingTriangleMesh.obj
 0001:00039be0       ??_ERTreeCookerRemap@@UEAAPEAXI@Z 000000018003abe0 f i GuCookingTriangleMesh.obj
 0001:00039be0       ??_GMidPhaseQueryLocalReport@@UEAAPEAXI@Z 000000018003abe0 f i GuSweepMTD.obj
 0001:00039be0       ??_EMidPhaseQueryLocalReport@@UEAAPEAXI@Z 000000018003abe0 f i GuSweepMTD.obj
 0001:00039c10       ?allocate@?$PxArray@IV?$PxReflectionAllocator@I@physx@@@physx@@IEAAPEAIIPEAI@Z 000000018003ac10 f i GuSweepMTD.obj
 0001:00039cc0       ?computeBox_HeightFieldMTD@Gu@physx@@YA_NAEBVPxHeightFieldGeometry@2@AEBV?$PxTransformT@M@2@AEBVBox@12@1M_NAEAUPxGeomSweepHit@2@@Z 000000018003acc0 f   GuSweepMTD.obj
 0001:0003aa50       ?computeBox_TriangleMeshMTD@Gu@physx@@YA_NAEBVPxTriangleMeshGeometry@2@AEBV?$PxTransformT@M@2@AEBVBox@12@1M_NAEAUPxGeomSweepHit@2@@Z 000000018003ba50 f   GuSweepMTD.obj
 0001:0003ba10       ?computeCapsule_CapsuleMTD@Gu@physx@@YA_NAEBVCapsule@12@0AEAUPxGeomSweepHit@2@@Z 000000018003ca10 f   GuSweepMTD.obj
 0001:0003bc50       ?computeCapsule_HeightFieldMTD@Gu@physx@@YA_NAEBVPxHeightFieldGeometry@2@AEBV?$PxTransformT@M@2@AEAVCapsuleV@12@M_NAEAUPxGeomSweepHit@2@@Z 000000018003cc50 f   GuSweepMTD.obj
 0001:0003c430       ?computeCapsule_TriangleMeshMTD@Gu@physx@@YA_NAEBVPxTriangleMeshGeometry@2@AEBV?$PxTransformT@M@2@AEAVCapsuleV@12@M_NAEAUPxGeomSweepHit@2@@Z 000000018003d430 f   GuSweepMTD.obj
 0001:0003ccf0       ?computeConvex_HeightFieldMTD@Gu@physx@@YA_NAEBVPxHeightFieldGeometry@2@AEBV?$PxTransformT@M@2@AEBVPxConvexMeshGeometry@2@1M_NAEAUPxGeomSweepHit@2@@Z 000000018003dcf0 f   GuSweepMTD.obj
 0001:0003dfc0       ?computeConvex_TriangleMeshMTD@Gu@physx@@YA_NAEBVPxTriangleMeshGeometry@2@AEBV?$PxTransformT@M@2@AEBVPxConvexMeshGeometry@2@1M_NAEAUPxGeomSweepHit@2@@Z 000000018003efc0 f   GuSweepMTD.obj
 0001:0003f540       ?computePlane_BoxMTD@Gu@physx@@YA_NAEBVPxPlane@2@AEBVBox@12@AEAUPxGeomSweepHit@2@@Z 0000000180040540 f   GuSweepMTD.obj
 0001:0003f870       ?computePlane_CapsuleMTD@Gu@physx@@YA_NAEBVPxPlane@2@AEBVCapsule@12@AEAUPxGeomSweepHit@2@@Z 0000000180040870 f   GuSweepMTD.obj
 0001:0003f990       ?computePlane_ConvexMTD@Gu@physx@@YA_NAEBVPxPlane@2@AEBVPxConvexMeshGeometry@2@AEBV?$PxTransformT@M@2@AEAUPxGeomSweepHit@2@@Z 0000000180040990 f   GuSweepMTD.obj
 0001:00040500       ?computeSphere_CapsuleMTD@Gu@physx@@YA_NAEBVSphere@12@AEBVCapsule@12@AEAUPxGeomSweepHit@2@@Z 0000000180041500 f   GuSweepMTD.obj
 0001:000406b0       ?computeSphere_SphereMTD@Gu@physx@@YA_NAEBVSphere@12@0AEAUPxGeomSweepHit@2@@Z 00000001800416b0 f   GuSweepMTD.obj
 0001:000407a0       ?getInverse@?$PxMat33T@M@physx@@QEBA?BV12@XZ 00000001800417a0 f i GuSweepMTD.obj
 0001:000409f0       ?growAndPushBack@?$PxArray@IV?$PxReflectionAllocator@I@physx@@@physx@@IEAAAEAIAEBI@Z 00000001800419f0 f i GuSweepMTD.obj
 0001:00040b30       ?init@FastVertex2ShapeScaling@Cm@physx@@QEAAXAEBV?$PxVec3T@M@3@AEBV?$PxQuatT@M@3@@Z 0000000180041b30 f i GuSweepMTD.obj
 0001:00041400       ?processHit@MeshMTDGenerationCallback@@UEAA_NAEBUPxGeomRaycastHit@physx@@AEBV?$PxVec3T@M@3@11AEAMPEBI@Z 0000000180042400 f i GuSweepMTD.obj
 0001:00041450       ?recreate@?$PxArray@IV?$PxReflectionAllocator@I@physx@@@physx@@IEAAXI@Z 0000000180042450 f i GuSweepMTD.obj
 0001:00041560       ?reportTouchedTris@MidPhaseQueryLocalReport@@UEAA_NIPEBI@Z 0000000180042560 f i GuSweepMTD.obj
 0001:000415d0       ??$gjkPenetration@U?$LocalConvex@VCapsuleV@Gu@physx@@@Gu@physx@@U?$LocalConvex@VConvexHullV@Gu@physx@@@23@@Gu@physx@@YA?AW4GjkStatus@01@AEBU?$LocalConvex@VCapsuleV@Gu@physx@@@01@AEBU?$LocalConvex@VConvexHullV@Gu@physx@@@01@AEBT__m128@@2_NPEIAE4AEAEAEAUGjkOutput@01@@Z 00000001800425d0 f i GuSweepSharedTests.obj
 0001:00041640       ??$gjkPenetration@U?$LocalConvex@VCapsuleV@Gu@physx@@@Gu@physx@@U?$LocalConvex@VConvexHullV@Gu@physx@@@23@@Gu@physx@@YA?AW4GjkStatus@01@AEBU?$LocalConvex@VCapsuleV@Gu@physx@@@01@AEBU?$LocalConvex@VConvexHullV@Gu@physx@@@01@AEBT__m128@@2_NPEIAE4PEIAT5@5AEAEAEAUGjkOutput@01@@Z 0000000180042640 f i GuSweepSharedTests.obj
 0001:00042b70       ??$gjkPenetration@U?$RelativeConvex@VBoxV@Gu@physx@@@Gu@physx@@U?$LocalConvex@VConvexHullV@Gu@physx@@@23@@Gu@physx@@YA?AW4GjkStatus@01@AEBU?$RelativeConvex@VBoxV@Gu@physx@@@01@AEBU?$LocalConvex@VConvexHullV@Gu@physx@@@01@AEBT__m128@@2_NPEIAE4AEAEAEAUGjkOutput@01@@Z 0000000180043b70 f i GuSweepSharedTests.obj
 0001:00042be0       ??$gjkPenetration@U?$RelativeConvex@VBoxV@Gu@physx@@@Gu@physx@@U?$LocalConvex@VConvexHullV@Gu@physx@@@23@@Gu@physx@@YA?AW4GjkStatus@01@AEBU?$RelativeConvex@VBoxV@Gu@physx@@@01@AEBU?$LocalConvex@VConvexHullV@Gu@physx@@@01@AEBT__m128@@2_NPEIAE4PEIAT5@5AEAEAEAUGjkOutput@01@@Z 0000000180043be0 f i GuSweepSharedTests.obj
 0001:00044150       ??$gjkPenetration@U?$RelativeConvex@VConvexHullV@Gu@physx@@@Gu@physx@@U?$LocalConvex@VConvexHullV@Gu@physx@@@23@@Gu@physx@@YA?AW4GjkStatus@01@AEBU?$RelativeConvex@VConvexHullV@Gu@physx@@@01@AEBU?$LocalConvex@VConvexHullV@Gu@physx@@@01@AEBT__m128@@2_NPEIAE4AEAEAEAUGjkOutput@01@@Z 0000000180045150 f i GuSweepSharedTests.obj
 0001:000441c0       ??$gjkPenetration@U?$RelativeConvex@VConvexHullV@Gu@physx@@@Gu@physx@@U?$LocalConvex@VConvexHullV@Gu@physx@@@23@@Gu@physx@@YA?AW4GjkStatus@01@AEBU?$RelativeConvex@VConvexHullV@Gu@physx@@@01@AEBU?$LocalConvex@VConvexHullV@Gu@physx@@@01@AEBT__m128@@2_NPEIAE4PEIAT5@5AEAEAEAUGjkOutput@01@@Z 00000001800451c0 f i GuSweepSharedTests.obj
 0001:000457e0       ??$gjkRaycast@U?$LocalConvex@VCapsuleV@Gu@physx@@@Gu@physx@@U?$LocalConvex@VConvexHullV@Gu@physx@@@23@@Gu@physx@@YA_NAEBU?$LocalConvex@VCapsuleV@Gu@physx@@@01@AEBU?$LocalConvex@VConvexHullV@Gu@physx@@@01@AEBT__m128@@222AEAT4@33M@Z 00000001800467e0 f i GuSweepSharedTests.obj
 0001:00046510       ??$gjkRaycast@U?$RelativeConvex@VBoxV@Gu@physx@@@Gu@physx@@U?$LocalConvex@VConvexHullV@Gu@physx@@@23@@Gu@physx@@YA_NAEBU?$RelativeConvex@VBoxV@Gu@physx@@@01@AEBU?$LocalConvex@VConvexHullV@Gu@physx@@@01@AEBT__m128@@222AEAT4@33M@Z 0000000180047510 f i GuSweepSharedTests.obj
 0001:000472d0       ??$gjkRaycast@U?$RelativeConvex@VConvexHullV@Gu@physx@@@Gu@physx@@U?$LocalConvex@VConvexHullV@Gu@physx@@@23@@Gu@physx@@YA_NAEBU?$RelativeConvex@VConvexHullV@Gu@physx@@@01@AEBU?$LocalConvex@VConvexHullV@Gu@physx@@@01@AEBT__m128@@222AEAT4@33M@Z 00000001800482d0 f i GuSweepSharedTests.obj
 0001:00048150       ??$gjkRaycastPenetration@U?$RelativeConvex@VConvexHullV@Gu@physx@@@Gu@physx@@U?$LocalConvex@VConvexHullV@Gu@physx@@@23@@Gu@physx@@YA_NAEBU?$RelativeConvex@VConvexHullV@Gu@physx@@@01@AEBU?$LocalConvex@VConvexHullV@Gu@physx@@@01@AEBT__m128@@222AEAT4@33M_N@Z 0000000180049150 f i GuSweepSharedTests.obj
 0001:00048d80       ?sweepBox_ConvexGeom@@YA_NAEBVPxGeometry@physx@@AEBV?$PxTransformT@M@2@AEBVPxBoxGeometry@2@1AEBVBox@Gu@2@AEBV?$PxVec3T@M@2@MAEAUPxGeomSweepHit@2@V?$PxFlags@W4Enum@PxHitFlag@physx@@G@2@MPEAUPxQueryThreadContext@2@@Z 0000000180049d80 f   GuSweepSharedTests.obj
 0001:00049b90       ?sweepBox_PlaneGeom@@YA_NAEBVPxGeometry@physx@@AEBV?$PxTransformT@M@2@AEBVPxBoxGeometry@2@1AEBVBox@Gu@2@AEBV?$PxVec3T@M@2@MAEAUPxGeomSweepHit@2@V?$PxFlags@W4Enum@PxHitFlag@physx@@G@2@MPEAUPxQueryThreadContext@2@@Z 000000018004ab90 f   GuSweepSharedTests.obj
 0001:0004a030       ?sweepCapsuleTriangles@Gu@physx@@YA_NIPEBVPxTriangle@2@_NAEBVPxCapsuleGeometry@2@AEBV?$PxTransformT@M@2@AEBV?$PxVec3T@M@2@MAEAUPxGeomSweepHit@2@PEBIMV?$PxFlags@W4Enum@PxHitFlag@physx@@G@2@@Z 000000018004b030 f   GuSweepSharedTests.obj
 0001:0004a220       ?sweepCapsule_CapsuleGeom@@YA_NAEBVPxGeometry@physx@@AEBV?$PxTransformT@M@2@AEBVPxCapsuleGeometry@2@1AEBVCapsule@Gu@2@AEBV?$PxVec3T@M@2@MAEAUPxGeomSweepHit@2@V?$PxFlags@W4Enum@PxHitFlag@physx@@G@2@MPEAUPxQueryThreadContext@2@@Z 000000018004b220 f   GuSweepSharedTests.obj
 0001:0004a400       ?sweepCapsule_ConvexGeom@@YA_NAEBVPxGeometry@physx@@AEBV?$PxTransformT@M@2@AEBVPxCapsuleGeometry@2@1AEBVCapsule@Gu@2@AEBV?$PxVec3T@M@2@MAEAUPxGeomSweepHit@2@V?$PxFlags@W4Enum@PxHitFlag@physx@@G@2@MPEAUPxQueryThreadContext@2@@Z 000000018004b400 f   GuSweepSharedTests.obj
 0001:0004b150       ?sweepCapsule_PlaneGeom@@YA_NAEBVPxGeometry@physx@@AEBV?$PxTransformT@M@2@AEBVPxCapsuleGeometry@2@1AEBVCapsule@Gu@2@AEBV?$PxVec3T@M@2@MAEAUPxGeomSweepHit@2@V?$PxFlags@W4Enum@PxHitFlag@physx@@G@2@MPEAUPxQueryThreadContext@2@@Z 000000018004c150 f   GuSweepSharedTests.obj
 0001:0004b440       ?sweepCapsule_SphereGeom@@YA_NAEBVPxGeometry@physx@@AEBV?$PxTransformT@M@2@AEBVPxCapsuleGeometry@2@1AEBVCapsule@Gu@2@AEBV?$PxVec3T@M@2@MAEAUPxGeomSweepHit@2@V?$PxFlags@W4Enum@PxHitFlag@physx@@G@2@MPEAUPxQueryThreadContext@2@@Z 000000018004c440 f   GuSweepSharedTests.obj
 0001:0004b5d0       ?sweepConvex_BoxGeom@@YA_NAEBVPxGeometry@physx@@AEBV?$PxTransformT@M@2@AEBVPxConvexMeshGeometry@2@1AEBV?$PxVec3T@M@2@MAEAUPxGeomSweepHit@2@V?$PxFlags@W4Enum@PxHitFlag@physx@@G@2@MPEAUPxQueryThreadContext@2@@Z 000000018004c5d0 f   GuSweepSharedTests.obj
 0001:0004b7f0       ?sweepConvex_CapsuleGeom@@YA_NAEBVPxGeometry@physx@@AEBV?$PxTransformT@M@2@AEBVPxConvexMeshGeometry@2@1AEBV?$PxVec3T@M@2@MAEAUPxGeomSweepHit@2@V?$PxFlags@W4Enum@PxHitFlag@physx@@G@2@MPEAUPxQueryThreadContext@2@@Z 000000018004c7f0 f   GuSweepSharedTests.obj
 0001:0004ba20       ?sweepConvex_ConvexGeom@@YA_NAEBVPxGeometry@physx@@AEBV?$PxTransformT@M@2@AEBVPxConvexMeshGeometry@2@1AEBV?$PxVec3T@M@2@MAEAUPxGeomSweepHit@2@V?$PxFlags@W4Enum@PxHitFlag@physx@@G@2@MPEAUPxQueryThreadContext@2@@Z 000000018004ca20 f   GuSweepSharedTests.obj
 0001:0004c960       ?sweepConvex_PlaneGeom@@YA_NAEBVPxGeometry@physx@@AEBV?$PxTransformT@M@2@AEBVPxConvexMeshGeometry@2@1AEBV?$PxVec3T@M@2@MAEAUPxGeomSweepHit@2@V?$PxFlags@W4Enum@PxHitFlag@physx@@G@2@MPEAUPxQueryThreadContext@2@@Z 000000018004d960 f   GuSweepSharedTests.obj
 0001:0004cdb0       ?sweepConvex_SphereGeom@@YA_NAEBVPxGeometry@physx@@AEBV?$PxTransformT@M@2@AEBVPxConvexMeshGeometry@2@1AEBV?$PxVec3T@M@2@MAEAUPxGeomSweepHit@2@V?$PxFlags@W4Enum@PxHitFlag@physx@@G@2@MPEAUPxQueryThreadContext@2@@Z 000000018004ddb0 f   GuSweepSharedTests.obj
 0001:0004d980       ?transformPlaneToShapeSpace@FastVertex2ShapeScaling@Cm@physx@@QEBAXAEBV?$PxVec3T@M@3@MAEAV43@AEAM@Z 000000018004e980 f i GuSweepSharedTests.obj
 0001:0004da70       ?sweepCapsule_BoxGeom@@YA_NAEBVPxGeometry@physx@@AEBV?$PxTransformT@M@2@AEBVPxCapsuleGeometry@2@1AEBVCapsule@Gu@2@AEBV?$PxVec3T@M@2@MAEAUPxGeomSweepHit@2@V?$PxFlags@W4Enum@PxHitFlag@physx@@G@2@MPEAUPxQueryThreadContext@2@@Z 000000018004ea70 f   GuSweepTests.obj
 0001:0004e330       ?sweepBox_SphereGeom@@YA_NAEBVPxGeometry@physx@@AEBV?$PxTransformT@M@2@AEBVPxBoxGeometry@2@1AEBVBox@Gu@2@AEBV?$PxVec3T@M@2@MAEAUPxGeomSweepHit@2@V?$PxFlags@W4Enum@PxHitFlag@physx@@G@2@MPEAUPxQueryThreadContext@2@@Z 000000018004f330 f   GuSweepTests.obj
 0001:0004ea10       ?sweepBox_CapsuleGeom@@YA_NAEBVPxGeometry@physx@@AEBV?$PxTransformT@M@2@AEBVPxBoxGeometry@2@1AEBVBox@Gu@2@AEBV?$PxVec3T@M@2@MAEAUPxGeomSweepHit@2@V?$PxFlags@W4Enum@PxHitFlag@physx@@G@2@MPEAUPxQueryThreadContext@2@@Z 000000018004fa10 f   GuSweepTests.obj
 0001:0004f2d0       ?sweepBox_BoxGeom@@YA_NAEBVPxGeometry@physx@@AEBV?$PxTransformT@M@2@AEBVPxBoxGeometry@2@1AEBVBox@Gu@2@AEBV?$PxVec3T@M@2@MAEAUPxGeomSweepHit@2@V?$PxFlags@W4Enum@PxHitFlag@physx@@G@2@MPEAUPxQueryThreadContext@2@@Z 00000001800502d0 f   GuSweepTests.obj
 0001:0004fc90       ?sweepConvex_ConvexCoreGeom@@YA_NAEBVPxGeometry@physx@@AEBV?$PxTransformT@M@2@AEBVPxConvexMeshGeometry@2@1AEBV?$PxVec3T@M@2@MAEAUPxGeomSweepHit@2@V?$PxFlags@W4Enum@PxHitFlag@physx@@G@2@MPEAUPxQueryThreadContext@2@@Z 0000000180050c90 f   GuSweepTests.obj
 0001:00051750       ?sweepConvexCore_HeightFieldGeom@@YA_NAEBVPxGeometry@physx@@AEBV?$PxTransformT@M@2@AEBVPxConvexCoreGeometry@2@1AEBV?$PxVec3T@M@2@MAEAUPxGeomSweepHit@2@V?$PxFlags@W4Enum@PxHitFlag@physx@@G@2@MPEAUPxQueryThreadContext@2@@Z 0000000180052750 f   GuSweepTests.obj
 0001:00051f80       ??$gjkPenetration@U?$LocalConvex@VCapsuleV@Gu@physx@@@Gu@physx@@U?$LocalConvex@VBoxV@Gu@physx@@@23@@Gu@physx@@YA?AW4GjkStatus@01@AEBU?$LocalConvex@VCapsuleV@Gu@physx@@@01@AEBU?$LocalConvex@VBoxV@Gu@physx@@@01@AEBT__m128@@2_NPEIAE4AEAEAEAUGjkOutput@01@@Z 0000000180052f80 f i GuSweepTests.obj
 0001:00051ff0       ??$gjkPenetration@U?$LocalConvex@VCapsuleV@Gu@physx@@@Gu@physx@@U?$LocalConvex@VBoxV@Gu@physx@@@23@@Gu@physx@@YA?AW4GjkStatus@01@AEBU?$LocalConvex@VCapsuleV@Gu@physx@@@01@AEBU?$LocalConvex@VBoxV@Gu@physx@@@01@AEBT__m128@@2_NPEIAE4PEIAT5@5AEAEAEAUGjkOutput@01@@Z 0000000180052ff0 f i GuSweepTests.obj
 0001:00053430       ??$gjkPenetration@U?$RelativeConvex@VBoxV@Gu@physx@@@Gu@physx@@U?$LocalConvex@VBoxV@Gu@physx@@@23@@Gu@physx@@YA?AW4GjkStatus@01@AEBU?$RelativeConvex@VBoxV@Gu@physx@@@01@AEBU?$LocalConvex@VBoxV@Gu@physx@@@01@AEBT__m128@@2_NPEIAE4AEAEAEAUGjkOutput@01@@Z 0000000180054430 f i GuSweepTests.obj
 0001:000534a0       ??$gjkPenetration@U?$RelativeConvex@VBoxV@Gu@physx@@@Gu@physx@@U?$LocalConvex@VBoxV@Gu@physx@@@23@@Gu@physx@@YA?AW4GjkStatus@01@AEBU?$RelativeConvex@VBoxV@Gu@physx@@@01@AEBU?$LocalConvex@VBoxV@Gu@physx@@@01@AEBT__m128@@2_NPEIAE4PEIAT5@5AEAEAEAUGjkOutput@01@@Z 00000001800544a0 f i GuSweepTests.obj
 0001:00054940       ??$gjkRaycast@U?$LocalConvex@VCapsuleV@Gu@physx@@@Gu@physx@@U?$LocalConvex@VBoxV@Gu@physx@@@23@@Gu@physx@@YA_NAEBU?$LocalConvex@VCapsuleV@Gu@physx@@@01@AEBU?$LocalConvex@VBoxV@Gu@physx@@@01@AEBT__m128@@222AEAT4@33M@Z 0000000180055940 f i GuSweepTests.obj
 0001:000554f0       ??$gjkRaycast@U?$LocalConvex@VTriangleV@Gu@physx@@@Gu@physx@@U?$LocalConvex@VBoxV@Gu@physx@@@23@@Gu@physx@@YA_NAEBU?$LocalConvex@VTriangleV@Gu@physx@@@01@AEBU?$LocalConvex@VBoxV@Gu@physx@@@01@AEBT__m128@@222AEAT4@33M@Z 00000001800564f0 f i GuSweepTests.obj
 0001:00056160       ??$gjkRaycast@U?$RelativeConvex@VBoxV@Gu@physx@@@Gu@physx@@U?$LocalConvex@VBoxV@Gu@physx@@@23@@Gu@physx@@YA_NAEBU?$RelativeConvex@VBoxV@Gu@physx@@@01@AEBU?$LocalConvex@VBoxV@Gu@physx@@@01@AEBT__m128@@222AEAT4@33M@Z 0000000180057160 f i GuSweepTests.obj
 0001:00056f10       ?getSweepFuncTable@Gu@physx@@YAAEBUGeomSweepFuncs@12@XZ 0000000180057f10 f   GuSweepTests.obj
 0001:00056f20       ?getSweepMargin@?$RelativeConvex@VTriangleV@Gu@physx@@@Gu@physx@@UEBA?AT__m128@@XZ 0000000180057f20 f i GuCCDSweepPrimitives.obj
 0001:00056f20       ?getSweepMargin@?$LocalConvex@VTriangleV@Gu@physx@@@Gu@physx@@UEBA?AT__m128@@XZ 0000000180057f20 f i GuSweepTests.obj
 0001:00056f20       ?getSweepMargin@?$LocalConvex@VTetrahedronV@Gu@physx@@@Gu@physx@@UEBA?AT__m128@@XZ 0000000180057f20 f i GuCookingTetrahedronMesh.obj
 0001:00057260       ?support@?$LocalConvex@VBoxV@Gu@physx@@@Gu@physx@@UEBA?AT__m128@@AEBT4@@Z 0000000180058260 f i GuSweepTests.obj
 0001:00057290       ?support@?$LocalConvex@VBoxV@Gu@physx@@@Gu@physx@@UEBA?AT__m128@@AEBT4@AEAH@Z 0000000180058290 f i GuSweepTests.obj
 0001:000572d0       ?support@?$LocalConvex@VTriangleV@Gu@physx@@@Gu@physx@@UEBA?AT__m128@@AEBT4@@Z 00000001800582d0 f i GuSweepTests.obj
 0001:00057360       ?support@?$LocalConvex@VTriangleV@Gu@physx@@@Gu@physx@@UEBA?AT__m128@@AEBT4@AEAH@Z 0000000180058360 f i GuSweepTests.obj
 0001:00057bb0       ?supportPoint@?$LocalConvex@VBoxV@Gu@physx@@@Gu@physx@@UEBA?AT__m128@@H@Z 0000000180058bb0 f i GuSweepTests.obj
 0001:00057bf0       ?supportPoint@?$LocalConvex@VTetrahedronV@Gu@physx@@@Gu@physx@@UEBA?AT__m128@@H@Z 0000000180058bf0 f i GuCookingTetrahedronMesh.obj
 0001:00057bf0       ?supportPoint@?$LocalConvex@VTriangleV@Gu@physx@@@Gu@physx@@UEBA?AT__m128@@H@Z 0000000180058bf0 f i GuSweepTests.obj
 0001:00057c10       ?sweepBoxTriangles@Gu@physx@@YA_NIPEBVPxTriangle@2@_NAEBVPxBoxGeometry@2@AEBV?$PxTransformT@M@2@AEBV?$PxVec3T@M@2@MAEAUPxGeomSweepHit@2@PEBIMV?$PxFlags@W4Enum@PxHitFlag@physx@@G@2@@Z 0000000180058c10 f   GuSweepTests.obj
 0001:00058680       ??$PxSmallSort@H$$CBU?$Comparer@V?$PxVec3T@M@physx@@@MeshAnalyzer@Gu@physx@@@physx@@YAXPEAHHHAEBU?$Comparer@V?$PxVec3T@M@physx@@@MeshAnalyzer@Gu@0@@Z 0000000180059680 f i GuSDF.obj
 0001:00058890       ??$PxSort@HU?$Comparer@V?$PxVec3T@M@physx@@@MeshAnalyzer@Gu@physx@@V?$PxReflectionAllocator@H@4@@physx@@YAXPEAHIAEBU?$Comparer@V?$PxVec3T@M@physx@@@MeshAnalyzer@Gu@0@AEBV?$PxReflectionAllocator@H@0@I@Z 0000000180059890 f i GuSDF.obj
 0001:00058d60       ??$PxSort@HU?$PxLess@H@physx@@V?$PxReflectionAllocator@H@2@@physx@@YAXPEAHIAEBU?$PxLess@H@0@AEBV?$PxReflectionAllocator@H@0@I@Z 0000000180059d60 f i GuSDF.obj
 0001:000591b0       ??$copy@V?$PxReflectionAllocator@I@physx@@@?$PxArray@IV?$PxReflectionAllocator@I@physx@@@physx@@IEAAXAEBV01@@Z 000000018005a1b0 f i GuSDF.obj
 0001:00059220       ??$copy@V?$PxReflectionAllocator@M@physx@@@?$PxArray@MV?$PxReflectionAllocator@M@physx@@@physx@@IEAAXAEBV01@@Z 000000018005a220 f i GuSDF.obj
 0001:00059280       ??$copy@V?$PxReflectionAllocator@V?$PxVec3T@M@physx@@@physx@@@?$PxArray@V?$PxVec3T@M@physx@@V?$PxReflectionAllocator@V?$PxVec3T@M@physx@@@2@@physx@@IEAAXAEBV01@@Z 000000018005a280 f i GuSDF.obj
 0001:000592e0       ??$mapDuplicatePoints@V?$PxVec3T@M@physx@@M@MeshAnalyzer@Gu@physx@@SAXPEBV?$PxVec3T@M@2@IAEAV?$PxArray@HV?$PxReflectionAllocator@H@physx@@@2@M@Z 000000018005a2e0 f i GuSDF.obj
 0001:00059660       ??$splitRanges@V?$PxVec3T@M@physx@@M@MeshAnalyzer@Gu@physx@@CAXAEAV?$PxArray@URange@MeshAnalyzer@Gu@physx@@V?$PxReflectionAllocator@URange@MeshAnalyzer@Gu@physx@@@4@@2@AEBV?$PxArray@HV?$PxReflectionAllocator@H@physx@@@2@PEBV?$PxVec3T@M@2@HM@Z 000000018005a660 f i GuSDF.obj
 0001:000598d0       ??$traverseBVH@VClosestDistanceToTrimeshTraversalController@Gu@physx@@@Gu@physx@@YAXPEBUBVHNode@01@AEAVClosestDistanceToTrimeshTraversalController@01@H@Z 000000018005a8d0 f i GuSDF.obj
 0001:00059cf0       ??$traverseBVH@VLineSegmentTrimeshIntersectionTraversalController@Gu@physx@@@Gu@physx@@YAXPEBUBVHNode@01@AEAVLineSegmentTrimeshIntersectionTraversalController@01@H@Z 000000018005acf0 f i GuSDF.obj
 0001:0005a210       ??0CellToPoint@Gu@physx@@QEAA@I@Z 000000018005b210 f i GuSDF.obj
 0001:0005a310       ??0IsosurfaceThreadData@Gu@physx@@QEAA@AEBU012@@Z 000000018005b310 f i GuSDF.obj
 0001:0005a390       ??1CellToPoint@Gu@physx@@QEAA@XZ 000000018005b390 f i GuSDF.obj
 0001:0005a470       ??1IsosurfaceThreadData@Gu@physx@@QEAA@XZ 000000018005b470 f i GuSDF.obj
 0001:0005a520       ??1SDF@Gu@physx@@QEAA@XZ   000000018005b520 f   GuSDF.obj
 0001:0005a5c0       ??_E?$PxThreadT@V?$PxReflectionAllocator@VPxThreadImpl@physx@@@physx@@@physx@@UEAAPEAXI@Z 000000018005b5c0 f i GuSDF.obj
 0001:0005a5c0       ??_G?$PxThreadT@V?$PxReflectionAllocator@VPxThreadImpl@physx@@@physx@@@physx@@UEAAPEAXI@Z 000000018005b5c0 f i GuSDF.obj
 0001:0005a670       ??_EPxRunnable@physx@@UEAAPEAXI@Z 000000018005b670 f i GuSDF.obj
 0001:0005a670       ??_GPxRunnable@physx@@UEAAPEAXI@Z 000000018005b670 f i GuSDF.obj
 0001:0005a6a0       ?PxCreatePointOntoTriangleMeshProjector@Gu@physx@@YAPEAVPxPointOntoTriangleMeshProjector@12@PEBV?$PxVec3T@M@2@PEBII@Z 000000018005b6a0 f   GuSDF.obj
 0001:0005a7a0       ?SDFUsingWindingNumbers@Gu@physx@@YAXAEAV?$PxArray@UBVHNode@Gu@physx@@V?$PxReflectionAllocator@UBVHNode@Gu@physx@@@3@@2@AEAV?$PxHashMap@IU?$ClusterApproximationT@MV?$PxVec3T@M@physx@@@Gu@physx@@U?$PxHash@I@3@VPxAllocator@3@@2@PEBV?$PxVec3T@M@2@PEBIIIIIPEAMAEAUGridQueryPointSampler@12@PEAV52@I_N7@Z 000000018005b7a0 f   GuSDF.obj
 0001:0005ac90       ?SDFUsingWindingNumbers@Gu@physx@@YAXPEBV?$PxVec3T@M@2@PEBIIIIIPEAMV32@3PEAV32@_NIPEAVPxSDFBuilder@2@@Z 000000018005bc90 f   GuSDF.obj
 0001:0005b160       ?SDFUsingWindingNumbersSparse@Gu@physx@@YAXPEBV?$PxVec3T@M@2@PEBIIIIIAEBV32@2MIAEAV?$PxArray@MV?$PxReflectionAllocator@M@physx@@@2@AEAV?$PxArray@IV?$PxReflectionAllocator@I@physx@@@2@33AEAM5IPEAVPxSDFBuilder@2@@Z 000000018005c160 f   GuSDF.obj
 0001:0005bbe0       ?allocate@?$PxArray@HV?$PxInlineAllocator@$0EAA@V?$PxReflectionAllocator@H@physx@@@physx@@@physx@@IEAAPEAHIPEAI@Z 000000018005cbe0 f i GuSDF.obj
 0001:0005bcb0       ?allocate@?$PxArray@MV?$PxReflectionAllocator@M@physx@@@physx@@IEAAPEAMIPEAI@Z 000000018005ccb0 f i GuSDF.obj
 0001:0005bd60       ?allocate@?$PxArray@V?$PxVec3T@M@physx@@V?$PxReflectionAllocator@V?$PxVec3T@M@physx@@@2@@physx@@IEAAPEAV?$PxVec3T@M@2@IPEAI@Z 000000018005cd60 f i GuSDF.obj
 0001:0005be10       ?allocateSdfs@SDF@Gu@physx@@QEAAPEAMAEBV?$PxVec3T@M@3@AEBMIIIIIIIMMI@Z 000000018005ce10 f   GuSDF.obj
 0001:0005c020       ?analyzeAndFixMesh@Gu@physx@@YAXPEBV?$PxVec3T@M@2@PEBIIAEAV?$PxArray@IV?$PxReflectionAllocator@I@physx@@@2@@Z 000000018005d020 f   GuSDF.obj
 0001:0005c9f0       ?buildTree@Gu@physx@@YAXPEBIIPEBV?$PxVec3T@M@2@AEAV?$PxArray@UBVHNode@Gu@physx@@V?$PxReflectionAllocator@UBVHNode@Gu@physx@@@3@@2@M@Z 000000018005d9f0 f   GuSDF.obj
 0001:0005cc20       ?computeIsosurfaceTrianglesThreadJob@Gu@physx@@YAPEAXPEAX@Z 000000018005dc20 f   GuSDF.obj
 0001:0005d2a0       ?computeIsosurfaceVerticesThreadJob@Gu@physx@@YAPEAXPEAX@Z 000000018005e2a0 f   GuSDF.obj
 0001:0005da30       ?computeSDFThreadJob@Gu@physx@@YAPEAXPEAX@Z 000000018005ea30 f   GuSDF.obj
 0001:0005e500       ?convertSparseSDFTo3DTextureLayout@Gu@physx@@YAXIIIIPEAIPEBMIAEAV?$PxArray@MV?$PxReflectionAllocator@M@physx@@@2@AEAI33@Z 000000018005f500 f   GuSDF.obj
 0001:0005e870       ?copy@?$PxArray@MV?$PxReflectionAllocator@M@physx@@@physx@@KAXPEAM0PEBM@Z 000000018005f870 f i GuSDF.obj
 0001:0005e8d0       ?copy@?$PxArray@V?$PxVec3T@M@physx@@V?$PxReflectionAllocator@V?$PxVec3T@M@physx@@@2@@physx@@KAXPEAV?$PxVec3T@M@2@0PEBV32@@Z 000000018005f8d0 f i GuSDF.obj
 0001:0005e9a0       ?create@?$PxHashBase@V?$PxPair@$$CB_KH@physx@@_KU?$PxHash@_K@2@UGetKey@?$PxHashMapBase@_KHU?$PxHash@_K@physx@@VPxAllocator@2@@2@VPxAllocator@2@$00@physx@@QEAAPEAV?$PxPair@$$CB_KH@2@AEB_KAEA_N@Z 000000018005f9a0 f i GuMeshAnalysis.obj
 0001:0005e9a0       ?create@?$PxHashBase@V?$PxPair@$$CB_KI@physx@@_KU?$PxHash@_K@2@UGetKey@?$PxHashMapBase@_KIU?$PxHash@_K@physx@@VPxAllocator@2@@2@VPxAllocator@2@$00@physx@@QEAAPEAV?$PxPair@$$CB_KI@2@AEB_KAEA_N@Z 000000018005f9a0 f i GuSDF.obj
 0001:0005eb40       ?createTriangles@Gu@physx@@YAXHHHMQEAMAEBUCellToPoint@12@AEBV?$PxArray@V?$PxVec3T@M@physx@@V?$PxReflectionAllocator@V?$PxVec3T@M@physx@@@2@@2@AEAV?$PxArray@IV?$PxReflectionAllocator@I@physx@@@2@@Z 000000018005fb40 f i GuSDF.obj
 0001:0005f3b0       ?decodeDense@SDF@Gu@physx@@QEBAMHHH@Z 00000001800603b0 f   GuSDF.obj
 0001:0005f6b0       ?decodeSparse@SDF@Gu@physx@@QEBAMHHH@Z 00000001800606b0 f   GuSDF.obj
 0001:0005f6c0       ?destroy@?$PxArray@V?$PxArray@IV?$PxReflectionAllocator@I@physx@@@physx@@V?$PxReflectionAllocator@V?$PxArray@IV?$PxReflectionAllocator@I@physx@@@physx@@@2@@physx@@KAXPEAV?$PxArray@IV?$PxReflectionAllocator@I@physx@@@2@0@Z 00000001800606c0 f i GuSDF.obj
 0001:0005f730       ?exportExtraData@SDF@Gu@physx@@QEAAXAEAVPxSerializationContext@3@@Z 0000000180060730 f   GuSDF.obj
 0001:0005f7d0       ?extractIsosurfaceFromSDF@Gu@physx@@YAXAEBVSDF@12@AEAV?$PxArray@V?$PxVec3T@M@physx@@V?$PxReflectionAllocator@V?$PxVec3T@M@physx@@@2@@2@AEAV?$PxArray@IV?$PxReflectionAllocator@I@physx@@@2@I@Z 00000001800607d0 f   GuSDF.obj
 0001:00060180       ?extractIsosurfaceFromSDFSerial@Gu@physx@@YAXAEBVSDF@12@AEAV?$PxArray@V?$PxVec3T@M@physx@@V?$PxReflectionAllocator@V?$PxVec3T@M@physx@@@2@@2@AEAV?$PxArray@IV?$PxReflectionAllocator@I@physx@@@2@@Z 0000000180061180 f   GuSDF.obj
 0001:00061340       ?find@CellToPoint@Gu@physx@@QEBAPEBV?$PxPair@$$CB_KI@3@HHH@Z 0000000180062340 f i GuSDF.obj
 0001:00061450       ?fixSdfForNonClosedGeometry@Gu@physx@@YAXIIIPEAMAEBV?$PxVec3T@M@2@@Z 0000000180062450 f   GuSDF.obj
 0001:00062500       ?generatePointInCell@Gu@physx@@YA_NAEBVSDF@12@HHHAEAV?$PxVec3T@M@2@QEAY111M@Z 0000000180063500 f   GuSDF.obj
 0001:00062960       ?growAndPushBack@?$PxArray@HV?$PxInlineAllocator@$0EAA@V?$PxReflectionAllocator@H@physx@@@physx@@@physx@@IEAAAEAHAEBH@Z 0000000180063960 f i GuSDF.obj
 0001:00062a50       ?growAndPushBack@?$PxArray@MV?$PxReflectionAllocator@M@physx@@@physx@@IEAAAEAMAEBM@Z 0000000180063a50 f i GuSDF.obj
 0001:00062bb0       ?growAndPushBack@?$PxArray@PEAV?$PxThreadT@V?$PxReflectionAllocator@VPxThreadImpl@physx@@@physx@@@physx@@V?$PxReflectionAllocator@PEAV?$PxThreadT@V?$PxReflectionAllocator@VPxThreadImpl@physx@@@physx@@@physx@@@2@@physx@@IEAAAEAPEAV?$PxThreadT@V?$PxReflectionAllocator@VPxThreadImpl@physx@@@physx@@@2@AEBQEAV32@@Z 0000000180063bb0 f i GuSDF.obj
 0001:00062cf0       ?growAndPushBack@?$PxArray@UIsosurfaceThreadData@Gu@physx@@V?$PxReflectionAllocator@UIsosurfaceThreadData@Gu@physx@@@3@@physx@@IEAAAEAUIsosurfaceThreadData@Gu@2@AEBU342@@Z 0000000180063cf0 f i GuSDF.obj
 0001:00062ee0       ?growAndPushBack@?$PxArray@UMutation@Gu@physx@@V?$PxReflectionAllocator@UMutation@Gu@physx@@@3@@physx@@IEAAAEAUMutation@Gu@2@AEBU342@@Z 0000000180063ee0 f i GuSDF.obj
 0001:00063020       ?growAndPushBack@?$PxArray@URange@Gu@physx@@V?$PxReflectionAllocator@URange@Gu@physx@@@3@@physx@@IEAAAEAURange@Gu@2@AEBU342@@Z 0000000180064020 f i GuSDF.obj
 0001:00063170       ?growAndPushBack@?$PxArray@URange@MeshAnalyzer@Gu@physx@@V?$PxReflectionAllocator@URange@MeshAnalyzer@Gu@physx@@@4@@physx@@IEAAAEAURange@MeshAnalyzer@Gu@2@AEBU3452@@Z 0000000180064170 f i GuSDF.obj
 0001:000632b0       ?growAndPushBack@?$PxArray@USDFCalculationData@Gu@physx@@V?$PxReflectionAllocator@USDFCalculationData@Gu@physx@@@3@@physx@@IEAAAEAUSDFCalculationData@Gu@2@AEBU342@@Z 00000001800642b0 f i GuSDF.obj
 0001:00063450       ?growAndPushBack@?$PxArray@V?$PxVec3T@M@physx@@V?$PxReflectionAllocator@V?$PxVec3T@M@physx@@@2@@physx@@IEAAAEAV?$PxVec3T@M@2@AEBV32@@Z 0000000180064450 f i GuSDF.obj
 0001:00063590       ?importExtraData@SDF@Gu@physx@@QEAAXAEAVPxDeserializationContext@3@@Z 0000000180064590 f   GuSDF.obj
 0001:00063600       ?populateSubgridCache@Gu@physx@@YAXAEBVSDF@12@AEAV?$PxArray@MV?$PxReflectionAllocator@M@physx@@@2@HHH@Z 0000000180064600 f i GuSDF.obj
 0001:000639a0       ?projectPoint@PointOntoTriangleMeshProjector@Gu@physx@@UEAA?AV?$PxVec3T@M@3@AEBV43@@Z 00000001800649a0 f i GuSDF.obj
 0001:00063a10       ?projectPoint@PointOntoTriangleMeshProjector@Gu@physx@@UEAA?AV?$PxVec3T@M@3@AEBV43@AEAI@Z 0000000180064a10 f i GuSDF.obj
 0001:00063a90       ?recreate@?$PxArray@HV?$PxReflectionAllocator@H@physx@@@physx@@IEAAXI@Z 0000000180064a90 f i GuSDF.obj
 0001:00063ba0       ?recreate@?$PxArray@MV?$PxReflectionAllocator@M@physx@@@physx@@IEAAXI@Z 0000000180064ba0 f i GuSDF.obj
 0001:00063cf0       ?recreate@?$PxArray@PEAUMap@Gu@physx@@V?$PxReflectionAllocator@PEAUMap@Gu@physx@@@3@@physx@@IEAAXI@Z 0000000180064cf0 f i GuSDF.obj
 0001:00063e00       ?recreate@?$PxArray@UBVHNode@Gu@physx@@V?$PxReflectionAllocator@UBVHNode@Gu@physx@@@3@@physx@@IEAAXI@Z 0000000180064e00 f i GuSDF.obj
 0001:00064050       ?recreate@?$PxArray@V?$PxVec3T@M@physx@@V?$PxReflectionAllocator@V?$PxVec3T@M@physx@@@2@@physx@@IEAAXI@Z 0000000180065050 f i GuSDF.obj
 0001:00064150       ?release@PointOntoTriangleMeshProjector@Gu@physx@@UEAAXXZ 0000000180065150 f i GuSDF.obj
 0001:000641a0       ?reserveInternal@?$PxHashBase@V?$PxPair@$$CBIU?$ClusterApproximationT@MV?$PxVec3T@M@physx@@@Gu@physx@@@physx@@IU?$PxHash@I@2@UGetKey@?$PxHashMapBase@IU?$ClusterApproximationT@MV?$PxVec3T@M@physx@@@Gu@physx@@U?$PxHash@I@3@VPxAllocator@3@@2@VPxAllocator@2@$00@physx@@AEAAXI@Z 00000001800651a0 f i GuSDF.obj
 0001:000643b0       ?reserveInternal@?$PxHashBase@V?$PxPair@$$CBUSortedTriangle@Gu@physx@@H@physx@@USortedTriangle@Gu@2@UTriangleHash@42@UGetKey@?$PxHashMapBase@USortedTriangle@Gu@physx@@HUTriangleHash@23@VPxAllocator@3@@2@VPxAllocator@2@$00@physx@@AEAAXI@Z 00000001800653b0 f i GuSDF.obj
 0001:00064560       ?reserveInternal@?$PxHashBase@V?$PxPair@$$CB_KI@physx@@_KU?$PxHash@_K@2@UGetKey@?$PxHashMapBase@_KIU?$PxHash@_K@physx@@VPxAllocator@2@@2@VPxAllocator@2@$00@physx@@AEAAXI@Z 0000000180065560 f i GuSDF.obj
 0001:00064560       ?reserveInternal@?$PxHashBase@V?$PxPair@$$CB_KH@physx@@_KU?$PxHash@_K@2@UGetKey@?$PxHashMapBase@_KHU?$PxHash@_K@physx@@VPxAllocator@2@@2@VPxAllocator@2@$00@physx@@AEAAXI@Z 0000000180065560 f i GuSDF.obj
 0001:00064750       ?resize@?$PxArray@IV?$PxReflectionAllocator@I@physx@@@physx@@QEAAXIAEBI@Z 0000000180065750 f i GuSDF.obj
 0001:00064810       ?resize@?$PxArray@MV?$PxReflectionAllocator@M@physx@@@physx@@QEAAXIAEBM@Z 0000000180065810 f i GuSDF.obj
 0001:00064920       ?resize@?$PxArray@PEAUMap@Gu@physx@@V?$PxReflectionAllocator@PEAUMap@Gu@physx@@@3@@physx@@QEAAXIAEBQEAUMap@Gu@2@@Z 0000000180065920 f i GuSDF.obj
 0001:000649e0       ?resize@?$PxArray@UBVHNode@Gu@physx@@V?$PxReflectionAllocator@UBVHNode@Gu@physx@@@3@@physx@@QEAAXIAEBUBVHNode@Gu@2@@Z 00000001800659e0 f i GuSDF.obj
 0001:00064b60       ?sampleSDFDirect@DenseSDF@Gu@physx@@QEAAMAEBV?$PxVec3T@M@3@@Z 0000000180065b60 f i GuSDF.obj
 0001:00064d00       ?signedVolume@Gu@physx@@YAMPEBV?$PxVec3T@M@2@PEBII1I@Z 0000000180065d00 f   GuSDF.obj
 0001:00065100       ?windingNumbers@Gu@physx@@YAXPEBV?$PxVec3T@M@2@PEBIIIIIPEAMV32@3PEAV32@@Z 0000000180066100 f   GuSDF.obj
 0001:000654a0       ?windingNumbersInsideCheck@Gu@physx@@YAXPEBV?$PxVec3T@M@2@PEBIIIIIPEA_NV32@3PEAV32@@Z 00000001800664a0 f   GuSDF.obj
 0001:00065df0       ??$gjk@U?$RelativeConvex@UCustomConvexV@@@Gu@physx@@U?$LocalConvex@UCustomConvexV@@@23@@Gu@physx@@YA?AW4GjkStatus@01@AEBU?$RelativeConvex@UCustomConvexV@@@01@AEBU?$LocalConvex@UCustomConvexV@@@01@AEBT__m128@@2AEAT5@333@Z 0000000180066df0 f i GuGjkQuery.obj
 0001:00066b80       ??$gjkPenetration@U?$RelativeConvex@UCustomConvexV@@@Gu@physx@@U?$LocalConvex@UCustomConvexV@@@23@@Gu@physx@@YA?AW4GjkStatus@01@AEBU?$RelativeConvex@UCustomConvexV@@@01@AEBU?$LocalConvex@UCustomConvexV@@@01@AEBT__m128@@2_NPEIAE4PEIAT5@5AEAEAEAUGjkOutput@01@@Z 0000000180067b80 f i GuGjkQuery.obj
 0001:000680d0       ??$gjkPenetration@U?$RelativeConvex@UCustomConvexV@@@Gu@physx@@U?$LocalConvex@UCustomConvexV@@@23@@Gu@physx@@YA?AW4GjkStatus@01@AEBU?$RelativeConvex@UCustomConvexV@@@01@AEBU?$LocalConvex@UCustomConvexV@@@01@AEBT__m128@@2_NPEIAT5@4AEAEAEAUGjkOutput@01@@Z 00000001800690d0 f i GuGjkQuery.obj
 0001:00068130       ??$gjkRaycast@U?$RelativeConvex@UCustomConvexV@@@Gu@physx@@U?$LocalConvex@UCustomConvexV@@@23@@Gu@physx@@YA_NAEBU?$RelativeConvex@UCustomConvexV@@@01@AEBU?$LocalConvex@UCustomConvexV@@@01@AEBT__m128@@222AEAT4@33M@Z 0000000180069130 f i GuGjkQuery.obj
 0001:00068e90       ??$gjkRaycast@U?$RelativeConvex@UCustomConvexV@@@Gu@physx@@U?$LocalConvex@UPointConvexV@@@23@@Gu@physx@@YA_NAEBU?$RelativeConvex@UCustomConvexV@@@01@AEBU?$LocalConvex@UPointConvexV@@@01@AEBT__m128@@222AEAT4@33M@Z 0000000180069e90 f i GuGjkQuery.obj
 0001:00069ae0       ?overlap@PxGjkQuery@physx@@SA_NAEBUSupport@12@0AEBV?$PxTransformT@M@2@1@Z 000000018006aae0 f   GuGjkQuery.obj
 0001:00069e70       ?proximityInfo@PxGjkQuery@physx@@SA_NAEBUSupport@12@0AEBV?$PxTransformT@M@2@1MMAEAV?$PxVec3T@M@2@22AEAM@Z 000000018006ae70 f   GuGjkQuery.obj
 0001:0006aa90       ?raycast@PxGjkQuery@physx@@SA_NAEBUSupport@12@AEBV?$PxTransformT@M@2@AEBV?$PxVec3T@M@2@2MAEAMAEAV52@4@Z 000000018006ba90 f   GuGjkQuery.obj
 0001:0006af40       ?support@?$LocalConvex@UCustomConvexV@@@Gu@physx@@UEBA?AT__m128@@AEBT4@@Z 000000018006bf40 f i GuGjkQuery.obj
 0001:0006afc0       ?support@?$LocalConvex@UCustomConvexV@@@Gu@physx@@UEBA?AT__m128@@AEBT4@AEAH@Z 000000018006bfc0 f i GuGjkQuery.obj
 0001:0006b040       ?support@?$LocalConvex@UPointConvexV@@@Gu@physx@@UEBA?AT__m128@@AEBT4@@Z 000000018006c040 f i GuGjkQuery.obj
 0001:0006b040       ?supportPoint@?$LocalConvex@UPointConvexV@@@Gu@physx@@UEBA?AT__m128@@H@Z 000000018006c040 f i GuGjkQuery.obj
 0001:0006b050       ?support@?$LocalConvex@UPointConvexV@@@Gu@physx@@UEBA?AT__m128@@AEBT4@AEAH@Z 000000018006c050 f i GuGjkQuery.obj
 0001:0006b070       ?support@?$RelativeConvex@UCustomConvexV@@@Gu@physx@@UEBA?AT__m128@@AEBT4@@Z 000000018006c070 f i GuGjkQuery.obj
 0001:0006b140       ?support@?$RelativeConvex@UCustomConvexV@@@Gu@physx@@UEBA?AT__m128@@AEBT4@AEAH@Z 000000018006c140 f i GuGjkQuery.obj
 0001:0006b220       ?supportPoint@?$LocalConvex@UCustomConvexV@@@Gu@physx@@UEBA?AT__m128@@H@Z 000000018006c220 f i GuGjkQuery.obj
 0001:0006b290       ?supportPoint@?$RelativeConvex@UCustomConvexV@@@Gu@physx@@UEBA?AT__m128@@H@Z 000000018006c290 f i GuGjkQuery.obj
 0001:0006b330       ?sweep@PxGjkQuery@physx@@SA_NAEBUSupport@12@0AEBV?$PxTransformT@M@2@1AEBV?$PxVec3T@M@2@MAEAMAEAV52@4@Z 000000018006c330 f   GuGjkQuery.obj
 0001:0006baf0       ??$approximateCluster@MV?$PxVec3T@M@physx@@@Gu@physx@@YAXAEBV?$PxArray@HV?$PxReflectionAllocator@H@physx@@@1@IIPEBIPEBV?$PxVec3T@M@1@AEBV?$PxArray@MV?$PxReflectionAllocator@M@physx@@@1@AEBV?$PxArray@V?$PxVec3T@M@physx@@V?$PxReflectionAllocator@V?$PxVec3T@M@physx@@@2@@1@4AEAU?$ClusterApproximationT@MV?$PxVec3T@M@physx@@@01@@Z 000000018006caf0 f i GuWindingNumber.obj
 0001:0006c330       ??$precomputeClusterInformation@MV?$PxVec3T@M@physx@@@Gu@physx@@YAXHPEBUBVHNode@01@PEBIIPEBV?$PxVec3T@M@1@AEAV?$PxHashMap@IU?$ClusterApproximationT@MV?$PxVec3T@M@physx@@@Gu@physx@@U?$PxHash@I@3@VPxAllocator@3@@1@V?$PxArray@MV?$PxReflectionAllocator@M@physx@@@1@AEBV?$PxArray@V?$PxVec3T@M@physx@@V?$PxReflectionAllocator@V?$PxVec3T@M@physx@@@2@@1@5@Z 000000018006d330 f i GuWindingNumber.obj
 0001:0006c700       ??$precomputeClusterInformation@MV?$PxVec3T@M@physx@@@Gu@physx@@YAXPEBUBVHNode@01@PEBIIPEBV?$PxVec3T@M@1@AEAV?$PxHashMap@IU?$ClusterApproximationT@MV?$PxVec3T@M@physx@@@Gu@physx@@U?$PxHash@I@3@VPxAllocator@3@@1@H@Z 000000018006d700 f i GuWindingNumber.obj
 0001:0006cb10       ??$traverseBVH@V?$WindingNumberTraversalController@MV?$PxVec3T@M@physx@@@Gu@physx@@@Gu@physx@@YAXPEBUBVHNode@01@AEAV?$WindingNumberTraversalController@MV?$PxVec3T@M@physx@@@01@H@Z 000000018006db10 f i GuWindingNumber.obj
 0001:0006d0b0       ?computeWindingNumber@Gu@physx@@YAMAEBV?$PxVec3T@M@2@PEBIIPEBV32@@Z 000000018006e0b0 f   GuWindingNumber.obj
 0001:0006d3e0       ?computeWindingNumber@Gu@physx@@YAMPEBUBVHNode@12@AEBV?$PxVec3T@M@2@AEBV?$PxHashMap@IU?$ClusterApproximationT@MV?$PxVec3T@M@physx@@@Gu@physx@@U?$PxHash@I@3@VPxAllocator@3@@2@PEBIPEBV42@@Z 000000018006e3e0 f   GuWindingNumber.obj
 0001:0006d450       ?computeWindingNumber@Gu@physx@@YAMPEBUBVHNode@12@AEBV?$PxVec3T@M@2@MAEBV?$PxHashMap@IU?$ClusterApproximationT@MV?$PxVec3T@M@physx@@@Gu@physx@@U?$PxHash@I@3@VPxAllocator@3@@2@PEBIPEBV42@@Z 000000018006e450 f   GuWindingNumber.obj
 0001:0006d4c0       ?create@?$PxHashBase@V?$PxPair@$$CBIU?$ClusterApproximationT@MV?$PxVec3T@M@physx@@@Gu@physx@@@physx@@IU?$PxHash@I@2@UGetKey@?$PxHashMapBase@IU?$ClusterApproximationT@MV?$PxVec3T@M@physx@@@Gu@physx@@U?$PxHash@I@3@VPxAllocator@3@@2@VPxAllocator@2@$00@physx@@QEAAPEAV?$PxPair@$$CBIU?$ClusterApproximationT@MV?$PxVec3T@M@physx@@@Gu@physx@@@2@AEBIAEA_N@Z 000000018006e4c0 f i GuWindingNumber.obj
 0001:0006d620       ?growAndPushBack@?$PxArray@HV?$PxReflectionAllocator@H@physx@@@physx@@IEAAAEAHAEBH@Z 000000018006e620 f i GuWindingNumber.obj
 0001:0006d760       ?growAndPushBack@?$PxArray@USection@Gu@physx@@V?$PxReflectionAllocator@USection@Gu@physx@@@3@@physx@@IEAAAEAUSection@Gu@2@AEBU342@@Z 000000018006e760 f i GuWindingNumber.obj
 0001:0006d8a0       ?precomputeClusterInformation@Gu@physx@@YAXPEBUBVHNode@12@PEBIIPEBV?$PxVec3T@M@2@AEAV?$PxHashMap@IU?$ClusterApproximationT@MV?$PxVec3T@M@physx@@@Gu@physx@@U?$PxHash@I@3@VPxAllocator@3@@2@H@Z 000000018006e8a0 f   GuWindingNumber.obj
 0001:0006d8b0       ?resize@?$PxArray@V?$PxVec3T@M@physx@@V?$PxReflectionAllocator@V?$PxVec3T@M@physx@@@2@@physx@@QEAAXIAEBV?$PxVec3T@M@2@@Z 000000018006e8b0 f i GuWindingNumber.obj
 0001:0006d9a0       ?computeMassInfo@Gu@physx@@YAXAEBVPxConvexCoreGeometry@2@AEAMAEAV?$PxMat33T@M@2@AEAV?$PxVec3T@M@2@@Z 000000018006e9a0 f   GuConvexGeometry.obj
 0001:0006e3d0       ?coneRadiusAtHeight@aux@@YAMMMMM@Z 000000018006f3d0 f   GuConvexGeometry.obj
 0001:00070a80       ?isGPUCompatible@Gu@physx@@YA_NAEBVPxConvexCoreGeometry@2@@Z 0000000180071a80 f   GuConvexGeometry.obj
 0001:00070ac0       ?isValid@PxConvexCoreGeometry@physx@@QEBA_NXZ 0000000180071ac0 f   GuConvexGeometry.obj
 0001:00070b90       ?makeConvexShape@Gu@physx@@YA_NAEBVPxGeometry@2@AEBV?$PxTransformT@M@2@AEAUConvexShape@12@@Z 0000000180071b90 f   GuConvexGeometry.obj
 0001:00070d20       ?visualize@Gu@physx@@YAXAEBVPxConvexCoreGeometry@2@AEBV?$PxTransformT@M@2@_NAEBVPxBounds3@2@AEAVPxRenderOutput@2@@Z 0000000180071d20 f   GuConvexGeometry.obj
 0001:00071260       ?generateContacts@Gu@physx@@YAIAEBVPxPlane@2@AEBUConvexShape@12@MAEAV?$PxVec3T@M@2@QEAV52@QEAM@Z 0000000180072260 f   GuConvexSupport.obj
 0001:00071790       ?SweepAnyShapeHeightfield@Gu@physx@@YAMAEBUCCDShape@12@0AEBUPxTransformPadded@2@111MAEAV?$PxVec3T@M@2@2MAEAIM@Z 0000000180072790 f   GuCCDSweepConvexMesh.obj
 0001:00072d20       ?SweepAnyShapeMesh@Gu@physx@@YAMAEBUCCDShape@12@0AEBUPxTransformPadded@2@111MAEAV?$PxVec3T@M@2@2MAEAIM@Z 0000000180073d20 f   GuCCDSweepConvexMesh.obj
 0001:00074320       ?SweepEstimateAnyShapeHeightfield@Gu@physx@@YAMAEBUCCDShape@12@0MM@Z 0000000180075320 f   GuCCDSweepConvexMesh.obj
 0001:00074fb0       ?SweepEstimateAnyShapeMesh@Gu@physx@@YAMAEBUCCDShape@12@0MM@Z 0000000180075fb0 f   GuCCDSweepConvexMesh.obj
 0001:00075250       ?allocate@?$PxArray@IV?$PxInlineAllocator@$0BAA@V?$PxReflectionAllocator@I@physx@@@physx@@@physx@@IEAAPEAIIPEAI@Z 0000000180076250 f i GuCCDSweepConvexMesh.obj
 0001:00075d30       ?growAndPushBack@?$PxArray@IV?$PxInlineAllocator@$0BAA@V?$PxReflectionAllocator@I@physx@@@physx@@@physx@@IEAAAEAIAEBI@Z 0000000180076d30 f i GuCCDSweepConvexMesh.obj
 0001:00076370       ?recreate@?$PxArray@IV?$PxInlineAllocator@$0BAA@V?$PxReflectionAllocator@I@physx@@@physx@@@physx@@IEAAXI@Z 0000000180077370 f i GuCCDSweepConvexMesh.obj
 0001:000764c0       ?resize@?$PxArray@IV?$PxInlineAllocator@$0BAA@V?$PxReflectionAllocator@I@physx@@@physx@@@physx@@QEAAXIAEBI@Z 00000001800774c0 f i GuCCDSweepConvexMesh.obj
 0001:00076590       ?transformBoxOrthonormal@physx@@YA?AVBox@Gu@1@AEBV231@AEBV?$PxTransformT@M@1@@Z 0000000180077590 f i GuCCDSweepConvexMesh.obj
 0001:00076a20       ?UnimplementedSweep@Gu@physx@@YAMAEBUCCDShape@12@0AEBUPxTransformPadded@2@111MAEAV?$PxVec3T@M@2@2MAEAIM@Z 0000000180077a20 f   GuCCDSweepPrimitives.obj
 0001:0007a720       ?UnimplementedTriangleSweep@Gu@physx@@YAMAEBVPxGeometry@2@0AEBUPxTransformPadded@2@111MAEAV?$PxVec3T@M@2@2AEBVFastVertex2ShapeScaling@Cm@2@AEAVTriangleV@12@M@Z 000000018007b720 f   GuCCDSweepPrimitives.obj
 0001:0007a730       ??$SweepGeomTriangles@VCapsuleV@Gu@physx@@@Gu@physx@@YAMAEBVPxGeometry@1@0AEBUPxTransformPadded@1@111MAEAV?$PxVec3T@M@1@2AEBVFastVertex2ShapeScaling@Cm@1@AEAVTriangleV@01@M@Z 000000018007b730 f i GuCCDSweepPrimitives.obj
 0001:0007ae60       ??$SweepGeomTriangles@VBoxV@Gu@physx@@@Gu@physx@@YAMAEBVPxGeometry@1@0AEBUPxTransformPadded@1@111MAEAV?$PxVec3T@M@1@2AEBVFastVertex2ShapeScaling@Cm@1@AEAVTriangleV@01@M@Z 000000018007be60 f i GuCCDSweepPrimitives.obj
 0001:0007b5b0       ??$SweepGeomTriangles@VConvexHullV@Gu@physx@@@Gu@physx@@YAMAEBVPxGeometry@1@0AEBUPxTransformPadded@1@111MAEAV?$PxVec3T@M@1@2AEBVFastVertex2ShapeScaling@Cm@1@AEAVTriangleV@01@M@Z 000000018007c5b0 f i GuCCDSweepPrimitives.obj
 0001:0007c0a0       ??$gjkPenetration@U?$RelativeConvex@VCapsuleV@Gu@physx@@@Gu@physx@@U?$LocalConvex@VBoxV@Gu@physx@@@23@@Gu@physx@@YA?AW4GjkStatus@01@AEBU?$RelativeConvex@VCapsuleV@Gu@physx@@@01@AEBU?$LocalConvex@VBoxV@Gu@physx@@@01@AEBT__m128@@2_NPEIAE4AEAEAEAUGjkOutput@01@@Z 000000018007d0a0 f i GuCCDSweepPrimitives.obj
 0001:0007c110       ??$gjkPenetration@U?$RelativeConvex@VCapsuleV@Gu@physx@@@Gu@physx@@U?$LocalConvex@VBoxV@Gu@physx@@@23@@Gu@physx@@YA?AW4GjkStatus@01@AEBU?$RelativeConvex@VCapsuleV@Gu@physx@@@01@AEBU?$LocalConvex@VBoxV@Gu@physx@@@01@AEBT__m128@@2_NPEIAE4PEIAT5@5AEAEAEAUGjkOutput@01@@Z 000000018007d110 f i GuCCDSweepPrimitives.obj
 0001:0007d5e0       ??$gjkPenetration@U?$RelativeConvex@VCapsuleV@Gu@physx@@@Gu@physx@@U?$LocalConvex@VCapsuleV@Gu@physx@@@23@@Gu@physx@@YA?AW4GjkStatus@01@AEBU?$RelativeConvex@VCapsuleV@Gu@physx@@@01@AEBU?$LocalConvex@VCapsuleV@Gu@physx@@@01@AEBT__m128@@2_NPEIAE4AEAEAEAUGjkOutput@01@@Z 000000018007e5e0 f i GuCCDSweepPrimitives.obj
 0001:0007d650       ??$gjkPenetration@U?$RelativeConvex@VCapsuleV@Gu@physx@@@Gu@physx@@U?$LocalConvex@VCapsuleV@Gu@physx@@@23@@Gu@physx@@YA?AW4GjkStatus@01@AEBU?$RelativeConvex@VCapsuleV@Gu@physx@@@01@AEBU?$LocalConvex@VCapsuleV@Gu@physx@@@01@AEBT__m128@@2_NPEIAE4PEIAT5@5AEAEAEAUGjkOutput@01@@Z 000000018007e650 f i GuCCDSweepPrimitives.obj
 0001:0007eb10       ??$gjkPenetration@U?$RelativeConvex@VCapsuleV@Gu@physx@@@Gu@physx@@U?$LocalConvex@VConvexHullV@Gu@physx@@@23@@Gu@physx@@YA?AW4GjkStatus@01@AEBU?$RelativeConvex@VCapsuleV@Gu@physx@@@01@AEBU?$LocalConvex@VConvexHullV@Gu@physx@@@01@AEBT__m128@@2_NPEIAE4AEAEAEAUGjkOutput@01@@Z 000000018007fb10 f i GuCCDSweepPrimitives.obj
 0001:0007eb80       ??$gjkPenetration@U?$RelativeConvex@VCapsuleV@Gu@physx@@@Gu@physx@@U?$LocalConvex@VConvexHullV@Gu@physx@@@23@@Gu@physx@@YA?AW4GjkStatus@01@AEBU?$RelativeConvex@VCapsuleV@Gu@physx@@@01@AEBU?$LocalConvex@VConvexHullV@Gu@physx@@@01@AEBT__m128@@2_NPEIAE4PEIAT5@5AEAEAEAUGjkOutput@01@@Z 000000018007fb80 f i GuCCDSweepPrimitives.obj
 0001:00080120       ??$gjkPenetration@U?$RelativeConvex@VTriangleV@Gu@physx@@@Gu@physx@@U?$LocalConvex@VBoxV@Gu@physx@@@23@@Gu@physx@@YA?AW4GjkStatus@01@AEBU?$RelativeConvex@VTriangleV@Gu@physx@@@01@AEBU?$LocalConvex@VBoxV@Gu@physx@@@01@AEBT__m128@@2_NPEIAE4AEAEAEAUGjkOutput@01@@Z 0000000180081120 f i GuCCDSweepPrimitives.obj
 0001:00080190       ??$gjkPenetration@U?$RelativeConvex@VTriangleV@Gu@physx@@@Gu@physx@@U?$LocalConvex@VBoxV@Gu@physx@@@23@@Gu@physx@@YA?AW4GjkStatus@01@AEBU?$RelativeConvex@VTriangleV@Gu@physx@@@01@AEBU?$LocalConvex@VBoxV@Gu@physx@@@01@AEBT__m128@@2_NPEIAE4PEIAT5@5AEAEAEAUGjkOutput@01@@Z 0000000180081190 f i GuCCDSweepPrimitives.obj
 0001:000816a0       ??$gjkPenetration@U?$RelativeConvex@VTriangleV@Gu@physx@@@Gu@physx@@U?$LocalConvex@VCapsuleV@Gu@physx@@@23@@Gu@physx@@YA?AW4GjkStatus@01@AEBU?$RelativeConvex@VTriangleV@Gu@physx@@@01@AEBU?$LocalConvex@VCapsuleV@Gu@physx@@@01@AEBT__m128@@2_NPEIAE4AEAEAEAUGjkOutput@01@@Z 00000001800826a0 f i GuCCDSweepPrimitives.obj
 0001:00081710       ??$gjkPenetration@U?$RelativeConvex@VTriangleV@Gu@physx@@@Gu@physx@@U?$LocalConvex@VCapsuleV@Gu@physx@@@23@@Gu@physx@@YA?AW4GjkStatus@01@AEBU?$RelativeConvex@VTriangleV@Gu@physx@@@01@AEBU?$LocalConvex@VCapsuleV@Gu@physx@@@01@AEBT__m128@@2_NPEIAE4PEIAT5@5AEAEAEAUGjkOutput@01@@Z 0000000180082710 f i GuCCDSweepPrimitives.obj
 0001:00082c20       ??$gjkPenetration@U?$RelativeConvex@VTriangleV@Gu@physx@@@Gu@physx@@U?$LocalConvex@VConvexHullV@Gu@physx@@@23@@Gu@physx@@YA?AW4GjkStatus@01@AEBU?$RelativeConvex@VTriangleV@Gu@physx@@@01@AEBU?$LocalConvex@VConvexHullV@Gu@physx@@@01@AEBT__m128@@2_NPEIAE4AEAEAEAUGjkOutput@01@@Z 0000000180083c20 f i GuCCDSweepPrimitives.obj
 0001:00082c90       ??$gjkPenetration@U?$RelativeConvex@VTriangleV@Gu@physx@@@Gu@physx@@U?$LocalConvex@VConvexHullV@Gu@physx@@@23@@Gu@physx@@YA?AW4GjkStatus@01@AEBU?$RelativeConvex@VTriangleV@Gu@physx@@@01@AEBU?$LocalConvex@VConvexHullV@Gu@physx@@@01@AEBT__m128@@2_NPEIAE4PEIAT5@5AEAEAEAUGjkOutput@01@@Z 0000000180083c90 f i GuCCDSweepPrimitives.obj
 0001:00084240       ??$gjkRaycast@U?$RelativeConvex@VCapsuleV@Gu@physx@@@Gu@physx@@U?$LocalConvex@VBoxV@Gu@physx@@@23@@Gu@physx@@YA_NAEBU?$RelativeConvex@VCapsuleV@Gu@physx@@@01@AEBU?$LocalConvex@VBoxV@Gu@physx@@@01@AEBT__m128@@222AEAT4@33M@Z 0000000180085240 f i GuCCDSweepPrimitives.obj
 0001:00084eb0       ??$gjkRaycast@U?$RelativeConvex@VCapsuleV@Gu@physx@@@Gu@physx@@U?$LocalConvex@VCapsuleV@Gu@physx@@@23@@Gu@physx@@YA_NAEBU?$RelativeConvex@VCapsuleV@Gu@physx@@@01@AEBU?$LocalConvex@VCapsuleV@Gu@physx@@@01@AEBT__m128@@222AEAT4@33M@Z 0000000180085eb0 f i GuCCDSweepPrimitives.obj
 0001:00085ba0       ??$gjkRaycast@U?$RelativeConvex@VCapsuleV@Gu@physx@@@Gu@physx@@U?$LocalConvex@VConvexHullV@Gu@physx@@@23@@Gu@physx@@YA_NAEBU?$RelativeConvex@VCapsuleV@Gu@physx@@@01@AEBU?$LocalConvex@VConvexHullV@Gu@physx@@@01@AEBT__m128@@222AEAT4@33M@Z 0000000180086ba0 f i GuCCDSweepPrimitives.obj
 0001:000869b0       ??$gjkRaycast@U?$RelativeConvex@VTriangleV@Gu@physx@@@Gu@physx@@U?$LocalConvex@VBoxV@Gu@physx@@@23@@Gu@physx@@YA_NAEBU?$RelativeConvex@VTriangleV@Gu@physx@@@01@AEBU?$LocalConvex@VBoxV@Gu@physx@@@01@AEBT__m128@@222AEAT4@33M@Z 00000001800879b0 f i GuCCDSweepPrimitives.obj
 0001:000876b0       ??$gjkRaycast@U?$RelativeConvex@VTriangleV@Gu@physx@@@Gu@physx@@U?$LocalConvex@VCapsuleV@Gu@physx@@@23@@Gu@physx@@YA_NAEBU?$RelativeConvex@VTriangleV@Gu@physx@@@01@AEBU?$LocalConvex@VCapsuleV@Gu@physx@@@01@AEBT__m128@@222AEAT4@33M@Z 00000001800886b0 f i GuCCDSweepPrimitives.obj
 0001:00088420       ??$gjkRaycast@U?$RelativeConvex@VTriangleV@Gu@physx@@@Gu@physx@@U?$LocalConvex@VConvexHullV@Gu@physx@@@23@@Gu@physx@@YA_NAEBU?$RelativeConvex@VTriangleV@Gu@physx@@@01@AEBU?$LocalConvex@VConvexHullV@Gu@physx@@@01@AEBT__m128@@222AEAT4@33M@Z 0000000180089420 f i GuCCDSweepPrimitives.obj
 0001:000892a0       ?SweepShapeShape@Gu@physx@@YAMAEBUCCDShape@12@0AEBUPxTransformPadded@2@111MAEAV?$PxVec3T@M@2@2MAEAIM@Z 000000018008a2a0 f   GuCCDSweepPrimitives.obj
 0001:000892c0       ?SweepShapeTriangle@Gu@physx@@YAMAEBVPxGeometry@2@0AEBUPxTransformPadded@2@111MAEAV?$PxVec3T@M@2@2AEBVFastVertex2ShapeScaling@Cm@2@AEAVTriangleV@12@M@Z 000000018008a2c0 f   GuCCDSweepPrimitives.obj
 0001:000892e0       ?support@?$RelativeConvex@VCapsuleV@Gu@physx@@@Gu@physx@@UEBA?AT__m128@@AEBT4@@Z 000000018008a2e0 f i GuCCDSweepPrimitives.obj
 0001:00089390       ?support@?$RelativeConvex@VCapsuleV@Gu@physx@@@Gu@physx@@UEBA?AT__m128@@AEBT4@AEAH@Z 000000018008a390 f i GuCCDSweepPrimitives.obj
 0001:00089450       ?support@?$RelativeConvex@VTriangleV@Gu@physx@@@Gu@physx@@UEBA?AT__m128@@AEBT4@@Z 000000018008a450 f i GuCCDSweepPrimitives.obj
 0001:00089550       ?support@?$RelativeConvex@VTriangleV@Gu@physx@@@Gu@physx@@UEBA?AT__m128@@AEBT4@AEAH@Z 000000018008a550 f i GuCCDSweepPrimitives.obj
 0001:00089690       ?supportPoint@?$RelativeConvex@VCapsuleV@Gu@physx@@@Gu@physx@@UEBA?AT__m128@@H@Z 000000018008a690 f i GuCCDSweepPrimitives.obj
 0001:000896f0       ?supportPoint@?$RelativeConvex@VTriangleV@Gu@physx@@@Gu@physx@@UEBA?AT__m128@@H@Z 000000018008a6f0 f i GuCCDSweepPrimitives.obj
 0001:00089740       ?barycentricCoordinates@Gu@physx@@YAXAEBT__m128@@000AEAT3@1@Z 000000018008a740 f   GuBarycentricCoordinates.obj
 0001:00089880       ?barycentricCoordinates@Gu@physx@@YAXAEBT__m128@@00AEAT3@@Z 000000018008a880 f   GuBarycentricCoordinates.obj
 0001:000898f0       ??$?_UV?$PxReflectionAllocator@VAdjTriangle@Gu@physx@@@physx@@@PxUserAllocated@physx@@SAPEAX_KV?$PxReflectionAllocator@VAdjTriangle@Gu@physx@@@1@PEBDH@Z 000000018008a8f0 f i GuAdjacencies.obj
 0001:000899d0       ??0AdjacenciesBuilder@Gu@physx@@QEAA@XZ 000000018008a9d0 f   GuAdjacencies.obj
 0001:000899e0       ??1AdjacenciesBuilder@Gu@physx@@QEAA@XZ 000000018008a9e0 f   GuAdjacencies.obj
 0001:00089a30       ?ComputeNbBoundaryEdges@Adjacencies@Gu@physx@@QEBAIXZ 000000018008aa30 f   GuAdjacencies.obj
 0001:00089cc0       ?Init@AdjacenciesBuilder@Gu@physx@@QEAA_NAEBUADJACENCIESCREATE@23@@Z 000000018008acc0 f   GuAdjacencies.obj
 0001:0008a290       ??0EdgeList@Gu@physx@@QEAA@XZ 000000018008b290 f   GuEdgeList.obj
 0001:0008a2b0       ??1EdgeList@Gu@physx@@QEAA@XZ 000000018008b2b0 f   GuEdgeList.obj
 0001:0008a360       ?computeActiveEdges@EdgeList@Gu@physx@@AEAA_NIPEBIPEBGPEBV?$PxVec3T@M@3@M@Z 000000018008b360 f   GuEdgeList.obj
 0001:0008b700       ?createEdgesToFaces@EdgeList@Gu@physx@@AEAA_NIPEBIPEBG@Z 000000018008c700 f   GuEdgeList.obj
 0001:0008b970       ?createFacesToEdges@EdgeList@Gu@physx@@AEAA_NIPEBIPEBG@Z 000000018008c970 f   GuEdgeList.obj
 0001:0008bdb0       ?init@EdgeList@Gu@physx@@QEAA_NAEBUEDGELISTCREATE@23@@Z 000000018008cdb0 f   GuEdgeList.obj
 0001:0008bef0       ?addAxis@SeparatingAxes@Gu@physx@@QEAA_NAEBV?$PxVec3T@M@3@@Z 000000018008cef0 f   GuSeparatingAxes.obj
 0001:0008bfb0       ??$kmeans_cluster@V?$PxVec3T@M@physx@@M@@YAIPEBV?$PxVec3T@M@physx@@IIPEAV01@PEAIMM@Z 000000018008cfb0 f i GuQuantizer.obj
 0001:0008c910       ??_GQuantizer@Gu@physx@@MEAAPEAXI@Z 000000018008d910 f i GuQuantizer.obj
 0001:0008c910       ??_EQuantizer@Gu@physx@@MEAAPEAXI@Z 000000018008d910 f i GuQuantizer.obj
 0001:0008c940       ??_GQuantizerImpl@@EEAAPEAXI@Z 000000018008d940 f i GuQuantizer.obj
 0001:0008c940       ??_EQuantizerImpl@@EEAAPEAXI@Z 000000018008d940 f i GuQuantizer.obj
 0001:0008ca10       ?createQuantizer@Gu@physx@@YAPEAVQuantizer@12@XZ 000000018008da10 f   GuQuantizer.obj
 0001:0008cac0       ?getDenormalizeCenter@QuantizerImpl@@UEBAAEBV?$PxVec3T@M@physx@@XZ 000000018008dac0 f i GuQuantizer.obj
 0001:0008cad0       ?getCurrentAABBTreeBounds@PruningPool@Gu@physx@@QEBAAEBVAABBTreeBounds@23@XZ 000000018008dad0 f i GuIncrementalAABBPrunerCore.obj
 0001:0008cad0       ?getDenormalizeScale@QuantizerImpl@@UEBAAEBV?$PxVec3T@M@physx@@XZ 000000018008dad0 f i GuQuantizer.obj
 0001:0008cae0       ?kmeansQuantize3D@QuantizerImpl@@UEAAPEBV?$PxVec3T@M@physx@@IPEBV23@I_NIAEAI@Z 000000018008dae0 f i GuQuantizer.obj
 0001:0008cd40       ?normalizeInput@QuantizerImpl@@AEAAXIPEBV?$PxVec3T@M@physx@@I@Z 000000018008dd40 f i GuQuantizer.obj
 0001:0008d170       ?release@QuantizerImpl@@UEAAXXZ 000000018008e170 f i GuQuantizer.obj
 0001:0008d190       ??0MeshCleaner@Gu@physx@@QEAA@IPEBV?$PxVec3T@M@2@IPEBIMM@Z 000000018008e190 f   GuMeshCleaner.obj
 0001:0008db80       ??1MeshCleaner@Gu@physx@@QEAA@XZ 000000018008eb80 f   GuMeshCleaner.obj
 0001:0008dc10       ??0ReducedVertexCloud@Gu@physx@@QEAA@PEBV?$PxVec3T@M@2@I@Z 000000018008ec10 f   GuVertexReducer.obj
 0001:0008dc30       ??1ReducedVertexCloud@Gu@physx@@QEAA@XZ 000000018008ec30 f   GuVertexReducer.obj
 0001:0008dc40       ?clean@ReducedVertexCloud@Gu@physx@@QEAAAEAV123@XZ 000000018008ec40 f   GuVertexReducer.obj
 0001:0008dcb0       ?reduce@ReducedVertexCloud@Gu@physx@@QEAA_NPEAUREDUCEDCLOUD@23@@Z 000000018008ecb0 f   GuVertexReducer.obj
 0001:0008df60       ?buildConsistentTriangleOrientationMap@MeshAnalyzer@Gu@physx@@SA_NPEBU?$IndexedTriangleT@H@23@IAEAV?$PxArray@_NV?$PxReflectionAllocator@_N@physx@@@3@AEAV?$PxHashMap@_KHU?$PxHash@_K@physx@@VPxAllocator@2@@3@AEAV?$PxArray@V?$PxArray@IV?$PxReflectionAllocator@I@physx@@@physx@@V?$PxReflectionAllocator@V?$PxArray@IV?$PxReflectionAllocator@I@physx@@@physx@@@2@@3@@Z 000000018008ef60 f   GuMeshAnalysis.obj
 0001:0008e310       ?buildTriangleAdjacency@MeshAnalyzer@Gu@physx@@SA_NPEBU?$IndexedTriangleT@H@23@IAEAV?$PxArray@HV?$PxReflectionAllocator@H@physx@@@3@AEAV?$PxHashMap@_KHU?$PxHash@_K@physx@@VPxAllocator@2@@3@@Z 000000018008f310 f   GuMeshAnalysis.obj
 0001:0008e7d0       ?checkConsistentTriangleOrientation@MeshAnalyzer@Gu@physx@@SA_NPEBU?$IndexedTriangleT@H@23@I@Z 000000018008f7d0 f   GuMeshAnalysis.obj
 0001:0008e980       ?checkMeshWatertightness@MeshAnalyzer@Gu@physx@@SA_NPEBU?$IndexedTriangleT@H@23@I_N@Z 000000018008f980 f   GuMeshAnalysis.obj
 0001:0008eb90       ?growAndPushBack@?$PxArray@V?$PxArray@IV?$PxReflectionAllocator@I@physx@@@physx@@V?$PxReflectionAllocator@V?$PxArray@IV?$PxReflectionAllocator@I@physx@@@physx@@@2@@physx@@IEAAAEAV?$PxArray@IV?$PxReflectionAllocator@I@physx@@@2@AEBV32@@Z 000000018008fb90 f i GuMeshAnalysis.obj
 0001:0008ed00       ?makeTriOrientationConsistent@MeshAnalyzer@Gu@physx@@SA_NPEAU?$IndexedTriangleT@H@23@I_N@Z 000000018008fd00 f   GuMeshAnalysis.obj
 0001:0008eeb0       ?recreate@?$PxArray@_NV?$PxReflectionAllocator@_N@physx@@@physx@@IEAAXI@Z 000000018008feb0 f i GuMeshAnalysis.obj
 0001:0008efa0       ?resize@?$PxArray@HV?$PxReflectionAllocator@H@physx@@@physx@@QEAAXIAEBH@Z 000000018008ffa0 f i GuMeshAnalysis.obj
 0001:0008f060       ?resize@?$PxArray@_NV?$PxReflectionAllocator@_N@physx@@@physx@@QEAAXIAEB_N@Z 0000000180090060 f i GuMeshAnalysis.obj
 0001:0008f120       ?contactBoxBox@Gu@physx@@YA_NAEBVPxGeometry@2@0AEBUPxTransformPadded@2@1AEBUNarrowPhaseParams@12@AEAUCache@12@AEAVPxContactBuffer@2@PEAVPxRenderOutput@2@@Z 0000000180090120 f   GuContactBoxBox.obj
 0001:00093580       ?contactCapsuleBox@Gu@physx@@YA_NAEBVPxGeometry@2@0AEBUPxTransformPadded@2@1AEBUNarrowPhaseParams@12@AEAUCache@12@AEAVPxContactBuffer@2@PEAVPxRenderOutput@2@@Z 0000000180094580 f   GuContactCapsuleBox.obj
 0001:00093b20       ?contactCapsuleCapsule@Gu@physx@@YA_NAEBVPxGeometry@2@0AEBUPxTransformPadded@2@1AEBUNarrowPhaseParams@12@AEAUCache@12@AEAVPxContactBuffer@2@PEAVPxRenderOutput@2@@Z 0000000180094b20 f   GuContactCapsuleCapsule.obj
 0001:00096400       ?contactCapsuleConvex@Gu@physx@@YA_NAEBVPxGeometry@2@0AEBUPxTransformPadded@2@1AEBUNarrowPhaseParams@12@AEAUCache@12@AEAVPxContactBuffer@2@PEAVPxRenderOutput@2@@Z 0000000180097400 f   GuContactCapsuleConvex.obj
 0001:00098910       ?contactCapsuleHeightfield@Gu@physx@@YA_NAEBVPxGeometry@2@0AEBUPxTransformPadded@2@1AEBUNarrowPhaseParams@12@AEAUCache@12@AEAVPxContactBuffer@2@PEAVPxRenderOutput@2@@Z 0000000180099910 f   GuContactCapsuleMesh.obj
 0001:00099120       ?contactCapsuleMesh@Gu@physx@@YA_NAEBVPxGeometry@2@0AEBUPxTransformPadded@2@1AEBUNarrowPhaseParams@12@AEAUCache@12@AEAVPxContactBuffer@2@PEAVPxRenderOutput@2@@Z 000000018009a120 f   GuContactCapsuleMesh.obj
 0001:0009a2a0       ?transformQueryBounds@FastVertex2ShapeScaling@Cm@physx@@QEBAXAEAV?$PxVec3T@M@3@0AEAV?$PxMat33T@M@3@@Z 000000018009b2a0 f i GuContactCapsuleMesh.obj
 0001:0009e5d0       ?contactBoxConvex@Gu@physx@@YA_NAEBVPxGeometry@2@0AEBUPxTransformPadded@2@1AEBUNarrowPhaseParams@12@AEAUCache@12@AEAVPxContactBuffer@2@PEAVPxRenderOutput@2@@Z 000000018009f5d0 f   GuContactConvexConvex.obj
 0001:0009e7a0       ?contactConvexConvex@Gu@physx@@YA_NAEBVPxGeometry@2@0AEBUPxTransformPadded@2@1AEBUNarrowPhaseParams@12@AEAUCache@12@AEAVPxContactBuffer@2@PEAVPxRenderOutput@2@@Z 000000018009f7a0 f   GuContactConvexConvex.obj
 0001:0009efe0       ??_GConvexMeshContactGenerationCallback@@UEAAPEAXI@Z 000000018009ffe0 f i GuContactConvexMesh.obj
 0001:0009efe0       ??_EConvexMeshContactGenerationCallback@@UEAAPEAXI@Z 000000018009ffe0 f i GuContactConvexMesh.obj
 0001:0009f040       ?addData@?$CacheMap@UCachedEdge@Gu@physx@@$0IA@@Gu@physx@@QEAA_NAEBUCachedEdge@23@@Z 00000001800a0040 f i GuContactConvexMesh.obj
 0001:0009f120       ?addData@?$CacheMap@UCachedVertex@Gu@physx@@$0IA@@Gu@physx@@QEAA_NAEBUCachedVertex@23@@Z 00000001800a0120 f i GuContactConvexMesh.obj
 0001:0009f1b0       ?allocate@?$PxArray@IV?$PxInlineAllocator@$0BBAA@V?$PxReflectionAllocator@I@physx@@@physx@@@physx@@IEAAPEAIIPEAI@Z 00000001800a01b0 f i GuContactConvexMesh.obj
 0001:0009f5c0       ?contactBoxHeightfield@Gu@physx@@YA_NAEBVPxGeometry@2@0AEBUPxTransformPadded@2@1AEBUNarrowPhaseParams@12@AEAUCache@12@AEAVPxContactBuffer@2@PEAVPxRenderOutput@2@@Z 00000001800a05c0 f   GuContactConvexMesh.obj
 0001:0009f740       ?contactBoxMesh@Gu@physx@@YA_NAEBVPxGeometry@2@0AEBUPxTransformPadded@2@1AEBUNarrowPhaseParams@12@AEAUCache@12@AEAVPxContactBuffer@2@PEAVPxRenderOutput@2@@Z 00000001800a0740 f   GuContactConvexMesh.obj
 0001:0009f910       ?contactConvexHeightfield@Gu@physx@@YA_NAEBVPxGeometry@2@0AEBUPxTransformPadded@2@1AEBUNarrowPhaseParams@12@AEAUCache@12@AEAVPxContactBuffer@2@PEAVPxRenderOutput@2@@Z 00000001800a0910 f   GuContactConvexMesh.obj
 0001:0009fa60       ?contactConvexMesh@Gu@physx@@YA_NAEBVPxGeometry@2@0AEBUPxTransformPadded@2@1AEBUNarrowPhaseParams@12@AEAUCache@12@AEAVPxContactBuffer@2@PEAVPxRenderOutput@2@@Z 00000001800a0a60 f   GuContactConvexMesh.obj
 0001:000a31c0       ?processHit@ConvexMeshContactGenerationCallback@@UEAA_NAEBUPxGeomRaycastHit@physx@@AEBV?$PxVec3T@M@3@11AEAMPEBI@Z 00000001800a41c0 f i GuContactConvexMesh.obj
 0001:000a3b30       ?recreate@?$PxArray@IV?$PxInlineAllocator@$0BBAA@V?$PxReflectionAllocator@I@physx@@@physx@@@physx@@IEAAXI@Z 00000001800a4b30 f i GuContactConvexMesh.obj
 0001:000a57e0       ?addPatch@Contact@Gu@physx@@IEAAXAEBV?$PxVec3T@M@3@AEBUPoint@123@@Z 00000001800a67e0 f i GuContactConvexCoreMesh.obj
 0001:000a5c00       ?addPatchPoint@Contact@Gu@physx@@IEAAXIAEBUPoint@123@@Z 00000001800a6c00 f i GuContactConvexCoreMesh.obj
 0001:000a5ec0       ?contactConvexCoreHeightfield@Gu@physx@@YA_NAEBVPxGeometry@2@0AEBUPxTransformPadded@2@1AEBUNarrowPhaseParams@12@AEAUCache@12@AEAVPxContactBuffer@2@PEAVPxRenderOutput@2@@Z 00000001800a6ec0 f   GuContactConvexCoreMesh.obj
 0001:000a66b0       ?contactConvexCoreTrimesh@Gu@physx@@YA_NAEBVPxGeometry@2@0AEBUPxTransformPadded@2@1AEBUNarrowPhaseParams@12@AEAUCache@12@AEAVPxContactBuffer@2@PEAVPxRenderOutput@2@@Z 00000001800a76b0 f   GuContactConvexCoreMesh.obj
 0001:000a6e20       ?getTriangleVertexIndices@HeightField@Gu@physx@@QEBAXIAEAI00@Z 00000001800a7e20 f i GuContactConvexCoreMesh.obj
 0001:000a7e20       ?transform@PxMeshScale@physx@@QEBA?AV?$PxVec3T@M@2@AEBV32@@Z 00000001800a8e20 f i GuContactConvexCoreMesh.obj
 0001:000a8060       ?contactConvexCoreConvex@Gu@physx@@YA_NAEBVPxGeometry@2@0AEBUPxTransformPadded@2@1AEBUNarrowPhaseParams@12@AEAUCache@12@AEAVPxContactBuffer@2@PEAVPxRenderOutput@2@@Z 00000001800a9060 f   GuContactConvexCoreConvex.obj
 0001:000a84b0       ?contactPlaneConvexCore@Gu@physx@@YA_NAEBVPxGeometry@2@0AEBUPxTransformPadded@2@1AEBUNarrowPhaseParams@12@AEAUCache@12@AEAVPxContactBuffer@2@PEAVPxRenderOutput@2@@Z 00000001800a94b0 f   GuContactPlaneConvexCore.obj
 0001:000a8870       ?contactPlaneBox@Gu@physx@@YA_NAEBVPxGeometry@2@0AEBUPxTransformPadded@2@1AEBUNarrowPhaseParams@12@AEAUCache@12@AEAVPxContactBuffer@2@PEAVPxRenderOutput@2@@Z 00000001800a9870 f   GuContactPlaneBox.obj
 0001:000a9530       ?contactPlaneCapsule@Gu@physx@@YA_NAEBVPxGeometry@2@0AEBUPxTransformPadded@2@1AEBUNarrowPhaseParams@12@AEAUCache@12@AEAVPxContactBuffer@2@PEAVPxRenderOutput@2@@Z 00000001800aa530 f   GuContactPlaneCapsule.obj
 0001:000a9be0       ?contactPlaneConvex@Gu@physx@@YA_NAEBVPxGeometry@2@0AEBUPxTransformPadded@2@1AEBUNarrowPhaseParams@12@AEAUCache@12@AEAVPxContactBuffer@2@PEAVPxRenderOutput@2@@Z 00000001800aabe0 f   GuContactPlaneConvex.obj
 0001:000aa490       ?contactPlaneMesh@Gu@physx@@YA_NAEBVPxGeometry@2@0AEBUPxTransformPadded@2@1AEBUNarrowPhaseParams@12@AEAUCache@12@AEAVPxContactBuffer@2@PEAVPxRenderOutput@2@@Z 00000001800ab490 f   GuContactPlaneMesh.obj
 0001:000ab640       ?reduce@?$BufferedPatch@$05$0EA@$00@Gu@physx@@QEAAXXZ 00000001800ac640 f i GuContactPlaneMesh.obj
 0001:000ad760       ?contactPolygonPolygonExt@Gu@physx@@YA_NIPEBV?$PxVec3T@M@2@PEBEAEBV?$PxMat34T@M@2@AEBVPxPlane@2@AEBV?$PxMat33T@M@2@I01234AEBV32@22IIAEAVPxContactBuffer@2@_N5M@Z 00000001800ae760 f   GuContactPolygonPolygon.obj
 0001:000aeee0       ?findRotationMatrixFromZ@Gu@physx@@YA?AV?$PxMat33T@M@2@AEBV?$PxVec3T@M@2@@Z 00000001800afee0 f   GuContactPolygonPolygon.obj
 0001:000af910       ??$PxSort@PEAV?$BufferedPatch@$04$0CA@$00@Gu@physx@@UPatchPenetrationPredicate@?$SDFContactReduction@$04$0CHBA@$0CA@@23@V?$PxReflectionAllocator@PEAV?$BufferedPatch@$04$0CA@$00@Gu@physx@@@3@@physx@@YAXPEAPEAV?$BufferedPatch@$04$0CA@$00@Gu@0@IAEBUPatchPenetrationPredicate@?$SDFContactReduction@$04$0CHBA@$0CA@@20@AEBV?$PxReflectionAllocator@PEAV?$BufferedPatch@$04$0CA@$00@Gu@physx@@@0@I@Z 00000001800b0910 f i GuContactMeshMesh.obj
 0001:000afe70       ??$copy@V?$PxReflectionAllocator@V?$BufferedPatch@$04$0CA@$00@Gu@physx@@@physx@@@?$PxArray@V?$BufferedPatch@$04$0CA@$00@Gu@physx@@V?$PxReflectionAllocator@V?$BufferedPatch@$04$0CA@$00@Gu@physx@@@3@@physx@@IEAAXAEBV01@@Z 00000001800b0e70 f i GuContactMeshMesh.obj
 0001:000afed0       ??$sdfTriangleCollision@$0A@$0CA@$00@Gu@physx@@YAMAEIBUCollisionSDF@01@AEIBV?$PxVec3T@M@1@11AEAV31@2M@Z 00000001800b0ed0 f i GuContactMeshMesh.obj
 0001:000b0620       ??0?$BufferedPatch@$04$0CA@$00@Gu@physx@@QEAA@AEBV012@@Z 00000001800b1620 f i GuContactMeshMesh.obj
 0001:000b06f0       ??0CollisionSDF@Gu@physx@@QEAA@AEBVSDF@12@@Z 00000001800b16f0 f i GuContactMeshMesh.obj
 0001:000b08c0       ?TriLerpWithGradient@CollisionSDF@Gu@physx@@SAMMMMMMMMMMMMPEAV?$PxVec3T@M@3@@Z 00000001800b18c0 f i GuContactMeshMesh.obj
 0001:000b0aa0       ?addContact@?$BufferedPatch@$04$0CA@$00@Gu@physx@@QEAAXAEBUTinyContact@23@@Z 00000001800b1aa0 f i GuContactMeshMesh.obj
 0001:000b0b50       ?allocate@?$PxArray@V?$BufferedPatch@$04$0CA@$00@Gu@physx@@V?$PxReflectionAllocator@V?$BufferedPatch@$04$0CA@$00@Gu@physx@@@3@@physx@@IEAAPEAV?$BufferedPatch@$04$0CA@$00@Gu@2@IPEAI@Z 00000001800b1b50 f i GuContactMeshMesh.obj
 0001:000b0c00       ?clampToBox@CollisionSDF@Gu@physx@@QEBA?AV?$PxVec3T@M@3@AEBV43@@Z 00000001800b1c00 f i GuContactMeshMesh.obj
 0001:000b0cc0       ?contactMeshMesh@Gu@physx@@YA_NAEBVPxGeometry@2@0AEBUPxTransformPadded@2@1AEBUNarrowPhaseParams@12@AEAUCache@12@AEAVPxContactBuffer@2@PEAVPxRenderOutput@2@@Z 00000001800b1cc0 f   GuContactMeshMesh.obj
 0001:000b0f90       ?copy@?$PxArray@V?$BufferedPatch@$04$0CA@$00@Gu@physx@@V?$PxReflectionAllocator@V?$BufferedPatch@$04$0CA@$00@Gu@physx@@@3@@physx@@KAXPEAV?$BufferedPatch@$04$0CA@$00@Gu@2@0PEBV342@@Z 00000001800b1f90 f i GuContactMeshMesh.obj
 0001:000b1080       ?cullPatches@?$SDFContactReduction@$04$0CHBA@$0CA@@Gu@physx@@QEAAXM@Z 00000001800b2080 f i GuContactMeshMesh.obj
 0001:000b1450       ?dist@CollisionSDF@Gu@physx@@QEBAMAEBV?$PxVec3T@M@3@PEAV43@@Z 00000001800b2450 f i GuContactMeshMesh.obj
 0001:000b1600       ?distUsingGradient@CollisionSDF@Gu@physx@@QEBAMAEBV?$PxVec3T@M@3@AEAV43@AEBM@Z 00000001800b2600 f i GuContactMeshMesh.obj
 0001:000b18b0       ?evaluateCoarse@CollisionSDF@Gu@physx@@QEBAMAEBV?$PxVec3T@M@3@PEAV43@@Z 00000001800b28b0 f i GuContactMeshMesh.obj
 0001:000b1a00       ?evaluateSubgrid@CollisionSDF@Gu@physx@@QEBAMIAEBV?$PxVec3T@M@3@PEAV43@@Z 00000001800b2a00 f i GuContactMeshMesh.obj
 0001:000b1db0       ?flushToContactBuffer@?$SDFContactReduction@$04$0CHBA@$0CA@@Gu@physx@@QEAAIAEAVPxContactBuffer@3@@Z 00000001800b2db0 f i GuContactMeshMesh.obj
 0001:000b2170       ?grad@CollisionSDF@Gu@physx@@QEBA?AV?$PxVec3T@M@3@AEBV43@@Z 00000001800b3170 f i GuContactMeshMesh.obj
 0001:000b2500       ?growAndPushBack@?$PxArray@PEAV?$BufferedPatch@$04$0CA@$00@Gu@physx@@V?$PxReflectionAllocator@PEAV?$BufferedPatch@$04$0CA@$00@Gu@physx@@@3@@physx@@IEAAAEAPEAV?$BufferedPatch@$04$0CA@$00@Gu@2@AEBQEAV342@@Z 00000001800b3500 f i GuContactMeshMesh.obj
 0001:000b2640       ?growAndPushBack@?$PxArray@V?$BufferedPatch@$04$0CA@$00@Gu@physx@@V?$PxReflectionAllocator@V?$BufferedPatch@$04$0CA@$00@Gu@physx@@@3@@physx@@IEAAAEAV?$BufferedPatch@$04$0CA@$00@Gu@2@AEBV342@@Z 00000001800b3640 f i GuContactMeshMesh.obj
 0001:000b2770       ?recreate@?$PxArray@PEAV?$BufferedPatch@$04$0CA@$00@Gu@physx@@V?$PxReflectionAllocator@PEAV?$BufferedPatch@$04$0CA@$00@Gu@physx@@@3@@physx@@IEAAXI@Z 00000001800b3770 f i GuContactMeshMesh.obj
 0001:000b2880       ?recreate@?$PxArray@V?$BufferedPatch@$04$0CA@$00@Gu@physx@@V?$PxReflectionAllocator@V?$BufferedPatch@$04$0CA@$00@Gu@physx@@@3@@physx@@IEAAXI@Z 00000001800b3880 f i GuContactMeshMesh.obj
 0001:000b2980       ?reduce@?$BufferedPatch@$04$0CA@$00@Gu@physx@@QEAAXXZ 00000001800b3980 f i GuContactMeshMesh.obj
 0001:000b3440       ?sample@CollisionSDF@Gu@physx@@QEBAMV?$PxVec3T@M@3@PEAV43@@Z 00000001800b4440 f i GuContactMeshMesh.obj
 0001:000b3600       ?sdfMeshCollision@@YAIAEIBUPxTransformPadded@physx@@AEIBVPxTriangleMeshGeometry@2@01AEAV?$SDFContactReduction@$04$0CHBA@$0CA@@Gu@2@M_N@Z 00000001800b4600 f   GuContactMeshMesh.obj
 0001:000b5e10       ?contactSphereBox@Gu@physx@@YA_NAEBVPxGeometry@2@0AEBUPxTransformPadded@2@1AEBUNarrowPhaseParams@12@AEAUCache@12@AEAVPxContactBuffer@2@PEAVPxRenderOutput@2@@Z 00000001800b6e10 f   GuContactSphereBox.obj
 0001:000b63f0       ?contactSphereCapsule@Gu@physx@@YA_NAEBVPxGeometry@2@0AEBUPxTransformPadded@2@1AEBUNarrowPhaseParams@12@AEAUCache@12@AEAVPxContactBuffer@2@PEAVPxRenderOutput@2@@Z 00000001800b73f0 f   GuContactSphereCapsule.obj
 0001:000b71d0       ?contactSphereHeightfield@Gu@physx@@YA_NAEBVPxGeometry@2@0AEBUPxTransformPadded@2@1AEBUNarrowPhaseParams@12@AEAUCache@12@AEAVPxContactBuffer@2@PEAVPxRenderOutput@2@@Z 00000001800b81d0 f   GuContactSphereMesh.obj
 0001:000b7c00       ?contactSphereMesh@Gu@physx@@YA_NAEBVPxGeometry@2@0AEBUPxTransformPadded@2@1AEBUNarrowPhaseParams@12@AEAUCache@12@AEAVPxContactBuffer@2@PEAVPxRenderOutput@2@@Z 00000001800b8c00 f   GuContactSphereMesh.obj
 0001:000ba000       ?contactSpherePlane@Gu@physx@@YA_NAEBVPxGeometry@2@0AEBUPxTransformPadded@2@1AEBUNarrowPhaseParams@12@AEAUCache@12@AEAVPxContactBuffer@2@PEAVPxRenderOutput@2@@Z 00000001800bb000 f   GuContactSpherePlane.obj
 0001:000ba210       ?contactSphereSphere@Gu@physx@@YA_NAEBVPxGeometry@2@0AEBUPxTransformPadded@2@1AEBUNarrowPhaseParams@12@AEAUCache@12@AEAVPxContactBuffer@2@PEAVPxRenderOutput@2@@Z 00000001800bb210 f   GuContactSphereSphere.obj
 0001:000ba390       ?contactCustomGeometryGeometry@Gu@physx@@YA_NAEBVPxGeometry@2@0AEBUPxTransformPadded@2@1AEBUNarrowPhaseParams@12@AEAUCache@12@AEAVPxContactBuffer@2@PEAVPxRenderOutput@2@@Z 00000001800bb390 f   GuContactCustomGeometry.obj
 0001:000ba3f0       ?contactGeometryCustomGeometry@Gu@physx@@YA_NAEBVPxGeometry@2@0AEBUPxTransformPadded@2@1AEBUNarrowPhaseParams@12@AEAUCache@12@AEAVPxContactBuffer@2@PEAVPxRenderOutput@2@@Z 00000001800bb3f0 f   GuContactCustomGeometry.obj
 0001:000ba4b0       ?selectNormal@Gu@physx@@YA_NEMM@Z 00000001800bb4b0 f   GuFeatureCode.obj
 0001:000ba530       ??0BigConvexData@physx@@QEAA@XZ 00000001800bb530 f   GuBigConvexData.obj
 0001:000ba550       ??1BigConvexData@physx@@QEAA@XZ 00000001800bb550 f   GuBigConvexData.obj
 0001:000ba610       ??4BigConvexData@physx@@QEAAAEAV01@AEBV01@@Z 00000001800bb610 f i GuBigConvexData.obj
 0001:000ba630       ?ComputeNearestOffset@BigConvexData@physx@@QEBAIAEBV?$PxVec3T@M@2@@Z 00000001800bb630 f   GuBigConvexData.obj
 0001:000ba730       ?ComputeOffset@BigConvexData@physx@@QEBAIAEBV?$PxVec3T@M@2@@Z 00000001800bb730 f   GuBigConvexData.obj
 0001:000ba830       ?CreateOffsets@BigConvexData@physx@@IEAAXXZ 00000001800bb830 f   GuBigConvexData.obj
 0001:000ba880       ?getDeformableVolumeAuxData@DeformableVolumeMesh@Gu@physx@@UEBAPEBVPxDeformableVolumeAuxData@3@XZ 00000001800bb880 f i GuTetrahedronMesh.obj
 0001:000ba880       ?getTransforms@PruningPool@Gu@physx@@QEBAPEBV?$PxTransformT@M@3@XZ 00000001800bb880 f i GuIncrementalAABBPrunerCore.obj
 0001:000ba880       ?getTriangles@TriangleMesh@Gu@physx@@UEBAPEBXXZ 00000001800bb880 f i GuTriangleMesh.obj
 0001:000ba880       ?getDeformableVolumeAuxData@DeformableVolumeMesh@Gu@physx@@UEAAPEAVPxDeformableVolumeAuxData@3@XZ 00000001800bb880 f i GuTetrahedronMesh.obj
 0001:000ba880       ?GetAdjacentVerts@BigConvexData@physx@@QEBAPEBEXZ 00000001800bb880 f i GuBigConvexData.obj
 0001:000ba880       ?getTransforms@PruningPool@Gu@physx@@QEAAPEAV?$PxTransformT@M@3@XZ 00000001800bb880 f i GuIncrementalAABBPrunerCore.obj
 0001:000ba890       ?GetNbNeighbors@BigConvexData@physx@@QEBAGI@Z 00000001800bb890 f i GuBigConvexData.obj
 0001:000ba890       ?GetValency@BigConvexData@physx@@QEBAGI@Z 00000001800bb890 f i GuBigConvexData.obj
 0001:000ba8a0       ?GetNbSamples@BigConvexData@physx@@QEBAIXZ 00000001800bb8a0 f i GuBigConvexData.obj
 0001:000ba8b0       ?GetNbVerts@BigConvexData@physx@@QEBAIXZ 00000001800bb8b0 f i GuBigConvexData.obj
 0001:000ba8b0       ?raw_length@pcharNode@@UEBAHXZ 00000001800bb8b0 f i libvcruntime:undname.obj
 0001:000ba8b0       ?getNbVertices@TriangleMesh@Gu@physx@@UEBAIXZ 00000001800bb8b0 f i GuTriangleMesh.obj
 0001:000ba8b0       ?getNbVertices@TetrahedronMesh@Gu@physx@@UEBAIXZ 00000001800bb8b0 f i GuTetrahedronMesh.obj
 0001:000ba8b0       ?length@pcharNode@@UEBAHXZ 00000001800bb8b0 f i libvcruntime:undname.obj
 0001:000ba8c0       ?GetNeighbors@BigConvexData@physx@@QEBAPEBEI@Z 00000001800bb8c0 f i GuBigConvexData.obj
 0001:000ba8d0       ?GetOffset@BigConvexData@physx@@QEBAGI@Z 00000001800bb8d0 f i GuBigConvexData.obj
 0001:000ba8e0       ?GetSubdiv@BigConvexData@physx@@QEBAIXZ 00000001800bb8e0 f i GuBigConvexData.obj
 0001:000ba8f0       ?Load@BigConvexData@physx@@QEAA_NAEAVPxInputStream@2@@Z 00000001800bb8f0 f   GuBigConvexData.obj
 0001:000baa10       ?VLoad@BigConvexData@physx@@IEAA_NAEAVPxInputStream@2@@Z 00000001800bba10 f   GuBigConvexData.obj
 0001:000babb0       ?exportExtraData@BigConvexData@physx@@QEAAXAEAVPxSerializationContext@2@@Z 00000001800bbbb0 f   GuBigConvexData.obj
 0001:000bac30       ?importExtraData@BigConvexData@physx@@QEAAXAEAVPxDeserializationContext@2@@Z 00000001800bbc30 f   GuBigConvexData.obj
 0001:000baca0       ?findUniqueConvexEdges@Gu@physx@@YAIIPEIAUConvexEdge@12@IPEIBUHullPolygonData@12@PEIBE@Z 00000001800bbca0 f   GuConvexHelper.obj
 0001:000bade0       ?getConvexData@Gu@physx@@YA_NAEBVPxConvexMeshGeometry@2@AEAVFastVertex2ShapeScaling@Cm@2@AEAVPxBounds3@2@AEAUPolygonalData@12@@Z 00000001800bbde0 f   GuConvexHelper.obj
 0001:000bb060       ?getScaledConvex@Gu@physx@@YAXAEAPEAV?$PxVec3T@M@2@AEAPEAEPEAV32@PEAE_NPEBV32@PEBEIAEBVFastVertex2ShapeScaling@Cm@2@@Z 00000001800bc060 f   GuConvexHelper.obj
 0001:000bb190       ??0ConvexMesh@Gu@physx@@QEAA@PEAVMeshFactory@12@@Z 00000001800bc190 f   GuConvexMesh.obj
 0001:000bb220       ??0ConvexMesh@Gu@physx@@QEAA@PEAVMeshFactory@12@AEAUConvexHullInitData@12@@Z 00000001800bc220 f   GuConvexMesh.obj
 0001:000bb360       ??_GConvexMesh@Gu@physx@@UEAAPEAXI@Z 00000001800bc360 f i GuConvexMesh.obj
 0001:000bb360       ??_EConvexMesh@Gu@physx@@UEAAPEAXI@Z 00000001800bc360 f i GuConvexMesh.obj
 0001:000bb470       ??_EPxBVH@physx@@MEAAPEAXI@Z 00000001800bc470 f i GuBVH.obj
 0001:000bb470       ??_GPxBVH@physx@@MEAAPEAXI@Z 00000001800bc470 f i GuBVH.obj
 0001:000bb470       ??_EPxBase@physx@@MEAAPEAXI@Z 00000001800bc470 f i GuConvexMesh.obj
 0001:000bb470       ??_GPxBase@physx@@MEAAPEAXI@Z 00000001800bc470 f i GuConvexMesh.obj
 0001:000bb4a0       ?acquireReference@TetrahedronMesh@Gu@physx@@UEAAXXZ 00000001800bc4a0 f   GuTetrahedronMesh.obj
 0001:000bb4a0       ?acquireReference@TriangleMesh@Gu@physx@@UEAAXXZ 00000001800bc4a0 f   GuTriangleMesh.obj
 0001:000bb4a0       ?acquireReference@DeformableVolumeAuxData@Gu@physx@@UEAAXXZ 00000001800bc4a0 f   GuTetrahedronMesh.obj
 0001:000bb4a0       ?acquireReference@ConvexMesh@Gu@physx@@UEAAXXZ 00000001800bc4a0 f   GuConvexMesh.obj
 0001:000bb4a0       ?acquireReference@DeformableVolumeMesh@Gu@physx@@UEAAXXZ 00000001800bc4a0 f   GuTetrahedronMesh.obj
 0001:000bb4a0       ?acquireReference@HeightField@Gu@physx@@UEAAXXZ 00000001800bc4a0 f   GuHeightField.obj
 0001:000bb970       ?createObject@ConvexMesh@Gu@physx@@SAPEAV123@AEAPEAEAEAVPxDeserializationContext@3@@Z 00000001800bc970 f   GuConvexMesh.obj
 0001:000bba90       ?exportExtraData@ConvexMesh@Gu@physx@@UEAAXAEAVPxSerializationContext@3@@Z 00000001800bca90 f   GuConvexMesh.obj
 0001:000bbb90       ?getConcreteTypeName@PxConvexMesh@physx@@UEBAPEBDXZ 00000001800bcb90 f i GuConvexMesh.obj
 0001:000bbba0       ?getIndexBuffer@ConvexMesh@Gu@physx@@UEBAPEBEXZ 00000001800bcba0 f i GuConvexMesh.obj
 0001:000bbbe0       ?getLocalBounds@ConvexMesh@Gu@physx@@UEBA?AVPxBounds3@3@XZ 00000001800bcbe0 f   GuConvexMesh.obj
 0001:000bbc70       ?getMassInformation@ConvexMesh@Gu@physx@@UEBAXAEAMAEAV?$PxMat33T@M@3@AEAV?$PxVec3T@M@3@@Z 00000001800bcc70 f   GuConvexMesh.obj
 0001:000bbce0       ?getNbPolygons@ConvexMesh@Gu@physx@@UEBAIXZ 00000001800bcce0 f i GuConvexMesh.obj
 0001:000bbcf0       ?getNbVertices@ConvexMesh@Gu@physx@@UEBAIXZ 00000001800bccf0 f i GuConvexMesh.obj
 0001:000bbd00       ?getPolygonData@ConvexMesh@Gu@physx@@UEBA_NIAEAUPxHullPolygon@3@@Z 00000001800bcd00 f   GuConvexMesh.obj
 0001:000bbd50       ?getReferenceCount@TriangleMesh@Gu@physx@@UEBAIXZ 00000001800bcd50 f   GuTriangleMesh.obj
 0001:000bbd50       ?getReferenceCount@TetrahedronMesh@Gu@physx@@UEBAIXZ 00000001800bcd50 f   GuTetrahedronMesh.obj
 0001:000bbd50       ?getReferenceCount@DeformableVolumeAuxData@Gu@physx@@UEBAIXZ 00000001800bcd50 f   GuTetrahedronMesh.obj
 0001:000bbd50       ?getReferenceCount@DeformableVolumeMesh@Gu@physx@@UEBAIXZ 00000001800bcd50 f   GuTetrahedronMesh.obj
 0001:000bbd50       ?getReferenceCount@HeightField@Gu@physx@@UEBAIXZ 00000001800bcd50 f   GuHeightField.obj
 0001:000bbd50       ?getReferenceCount@ConvexMesh@Gu@physx@@UEBAIXZ 00000001800bcd50 f   GuConvexMesh.obj
 0001:000bbd50       ?raw_length@DNameStatusNode@@UEBAHXZ 00000001800bcd50 f   libvcruntime:undname.obj
 0001:000bbd50       ?length@DNameStatusNode@@UEBAHXZ 00000001800bcd50 f   libvcruntime:undname.obj
 0001:000bbd60       ?getSDF@ConvexMesh@Gu@physx@@UEBAPEBMXZ 00000001800bcd60 f   GuConvexMesh.obj
 0001:000bbd70       ?getVertices@ConvexMesh@Gu@physx@@UEBAPEBV?$PxVec3T@M@3@XZ 00000001800bcd70 f i GuConvexMesh.obj
 0001:000bbd90       ?isGpuCompatible@ConvexMesh@Gu@physx@@UEBA_NXZ 00000001800bcd90 f   GuConvexMesh.obj
 0001:000bbdd0       ?isKindOf@PxBase@physx@@MEBA_NPEBD@Z 00000001800bcdd0 f i GuConvexMesh.obj
 0001:000bbdf0       ?isKindOf@PxConvexMesh@physx@@MEBA_NPEBD@Z 00000001800bcdf0 f i GuConvexMesh.obj
 0001:000bbe80       ?isReleasable@PxBase@physx@@UEBA_NXZ 00000001800bce80 f i GuConvexMesh.obj
 0001:000bbe90       ?load@ConvexMesh@Gu@physx@@QEAA_NAEAVPxInputStream@3@@Z 00000001800bce90 f   GuConvexMesh.obj
 0001:000bc450       ?onRefCountZero@ConvexMesh@Gu@physx@@UEAAXXZ 00000001800bd450 f   GuConvexMesh.obj
 0001:000bc580       ?release@ConvexMesh@Gu@physx@@UEAAXXZ 00000001800bd580 f   GuConvexMesh.obj
 0001:000bc580       ?release@TetrahedronMesh@Gu@physx@@UEAAXXZ 00000001800bd580 f   GuTetrahedronMesh.obj
 0001:000bc580       ?release@DeformableVolumeMesh@Gu@physx@@UEAAXXZ 00000001800bd580 f   GuTetrahedronMesh.obj
 0001:000bc580       ?release@DeformableVolumeAuxData@Gu@physx@@UEAAXXZ 00000001800bd580 f   GuTetrahedronMesh.obj
 0001:000bc580       ?release@HeightField@Gu@physx@@UEAAXXZ 00000001800bd580 f   GuHeightField.obj
 0001:000bc580       ?release@TriangleMesh@Gu@physx@@UEAAXXZ 00000001800bd580 f   GuTriangleMesh.obj
 0001:000bc5b0       ??Dphysx@@YA?AV?$PxMat34T@M@0@AEBVPxMeshScale@0@AEBV10@@Z 00000001800bd5b0 f i GuConvexUtilsInternal.obj
 0001:000bcb20       ?computeHullOBB@Gu@physx@@YAXAEAVBox@12@AEBVPxBounds3@2@MAEBV?$PxMat34T@M@2@2AEBVFastVertex2ShapeScaling@Cm@2@_N@Z 00000001800bdb20 f   GuConvexUtilsInternal.obj
 0001:000bcfd0       ?computeOBBAroundConvex@Gu@physx@@YAXAEAVBox@12@AEBVPxConvexMeshGeometry@2@PEBVPxConvexMesh@2@AEBV?$PxTransformT@M@2@@Z 00000001800bdfd0 f   GuConvexUtilsInternal.obj
 0001:000bd830       ?computeVertexSpaceOBB@Gu@physx@@YAXAEAVBox@12@AEBV312@AEBV?$PxTransformT@M@2@AEBVPxMeshScale@2@@Z 00000001800be830 f   GuConvexUtilsInternal.obj
 0001:000bdb60       ?transform@physx@@YA?AVBox@Gu@1@AEBV?$PxMat34T@M@1@AEBV231@@Z 00000001800beb60 f i GuConvexUtilsInternal.obj
 0001:000bddb0       ?localSearch@physx@@YAXAEAIAEBV?$PxVec3T@M@1@PEBV21@PEBUBigConvexRawData@Gu@1@@Z 00000001800bedb0 f   GuHillClimbing.obj
 0001:000bdee0       ??0PolygonalBox@Gu@physx@@QEAA@AEBV?$PxVec3T@M@2@@Z 00000001800beee0 f   GuShapeConvex.obj
 0001:000bdee0       ??0PCMPolygonalBox@Gu@physx@@QEAA@AEBV?$PxVec3T@M@2@@Z 00000001800beee0 f   GuPCMShapeConvex.obj
 0001:000bf3a0       ?getPolygonalData@PolygonalBox@Gu@physx@@QEBAXPEIAUPolygonalData@23@@Z 00000001800c03a0 f   GuShapeConvex.obj
 0001:000bf410       ?getPolygonalData_Convex@Gu@physx@@YAXPEIAUPolygonalData@12@PEIBUConvexHullData@12@AEBVFastVertex2ShapeScaling@Cm@2@@Z 00000001800c0410 f   GuShapeConvex.obj
 0001:000bf580       ?distancePointBoxSquared@Gu@physx@@YAMAEBV?$PxVec3T@M@2@00AEBV?$PxMat33T@M@2@PEAV32@@Z 00000001800c0580 f   GuDistancePointBox.obj
 0001:000bf6d0       ?closestPtPointTriangle@Gu@physx@@YA?AV?$PxVec3T@M@2@AEBV32@000AEAM1@Z 00000001800c06d0 f   GuDistancePointTriangle.obj
 0001:000bfbf0       ?distancePointTriangleSquared2UnitBox@Gu@physx@@YA?AT__m128@@AEBT3@000AEAT3@11@Z 00000001800c0bf0 f   GuDistancePointTriangle.obj
 0001:000bfd10       ?distancePointTriangleSquared@Gu@physx@@YA?AT__m128@@AEBT3@000AEAT3@11@Z 00000001800c0d10 f   GuDistancePointTriangle.obj
 0001:000c0a60       ?distanceSegmentBoxSquared@Gu@physx@@YAMAEBV?$PxVec3T@M@2@000AEBV?$PxMat33T@M@2@PEAMPEAV32@@Z 00000001800c1a60 f   GuDistanceSegmentBox.obj
 0001:000c12d0       ?distanceSegmentSegmentSquared4@Gu@physx@@YA?AT__m128@@AEBT3@000000000AEAT3@1@Z 00000001800c22d0 f   GuDistanceSegmentSegment.obj
 0001:000c15f0       ?distanceSegmentSegmentSquared@Gu@physx@@YA?AT__m128@@AEBT3@000AEAT3@1@Z 00000001800c25f0 f   GuDistanceSegmentSegment.obj
 0001:000c17b0       ?distanceSegmentSegmentSquared@Gu@physx@@YAMAEBV?$PxVec3T@M@2@000PEAM1@Z 00000001800c27b0 f   GuDistanceSegmentSegment.obj
 0001:000c1a40       ?distanceSegmentSegmentSquared@Gu@physx@@YAMAEBV?$PxVec3T@M@2@0M00MPEAM1@Z 00000001800c2a40 f   GuDistanceSegmentSegment.obj
 0001:000c2190       ?distanceSegmentTriangleSquared@Gu@physx@@YA?AT__m128@@AEBT3@0000AEAT3@1@Z 00000001800c3190 f   GuDistanceSegmentTriangle.obj
 0001:000c28d0       ?distanceSegmentTriangleSquared@Gu@physx@@YAMAEBV?$PxVec3T@M@2@0000PEAM11@Z 00000001800c38d0 f   GuDistanceSegmentTriangle.obj
 0001:000c3f60       ?distanceTriangleTriangleSquared@Gu@physx@@YAMAEAV?$PxVec3T@M@2@0QEBVPxVec3Padded@2@1@Z 00000001800c4f60 f   GuDistanceTriangleTriangle.obj
 0001:000c4a70       ?closestPtPointTetrahedron@Gu@physx@@YA?AV?$PxVec3T@M@2@AEBV32@0000AEBV?$PxVec4T@M@2@@Z 00000001800c5a70 f   GuDistancePointTetrahedron.obj
 0001:000c5b60       ?PenetrationDepth@EPA@Gu@physx@@QEAA?AW4GjkStatus@23@AEBUGjkConvex@23@0PEIBT__m128@@1E_NT6@AEAUGjkOutput@23@@Z 00000001800c6b60 f   GuEPA.obj
 0001:000c6640       ?addFacet@EPA@Gu@physx@@QEAAPEAVFacet@23@IIIAEBT__m128@@@Z 00000001800c7640 f   GuEPA.obj
 0001:000c6a80       ?epaPenetration@Gu@physx@@YA?AW4GjkStatus@12@AEBUGjkConvex@12@0PEIBE1E_NT__m128@@AEAUGjkOutput@12@@Z 00000001800c7a80 f   GuEPA.obj
 0001:000c6bf0       ?epaPenetration@Gu@physx@@YA?AW4GjkStatus@12@AEBUGjkConvex@12@0PEIBT__m128@@1E_NT5@AEAUGjkOutput@12@@Z 00000001800c7bf0 f   GuEPA.obj
 0001:000c6ca0       ?silhouette@Facet@Gu@physx@@QEAAXAEBT__m128@@PEIBT4@1AEAVEdgeBuffer@23@AEAV?$InlineDeferredIDPool@$0EA@@Cm@3@@Z 00000001800c7ca0 f   GuEPA.obj
 0001:000c6e70       ?closestPtPointTetrahedron@Gu@physx@@YA?AT__m128@@PEIAT3@00AEAI@Z 00000001800c7e70 f   GuGJKSimplex.obj
 0001:000c75f0       ?closestPtPointTetrahedron@Gu@physx@@YA?AT__m128@@PEIAT3@00PEIAH1AEAI@Z 00000001800c85f0 f   GuGJKSimplex.obj
 0001:000c9090       ??$gjk@UGjkConvex@Gu@physx@@U123@@Gu@physx@@YA?AW4GjkStatus@01@AEBUGjkConvex@01@0AEBT__m128@@1AEAT4@222@Z 00000001800ca090 f i GuGJKTest.obj
 0001:000c9cc0       ??$gjkPenetration@UGjkConvex@Gu@physx@@U123@@Gu@physx@@YA?AW4GjkStatus@01@AEBUGjkConvex@01@0AEBT__m128@@1_NPEIAE3AEAEAEAUGjkOutput@01@@Z 00000001800cacc0 f i GuGJKTest.obj
 0001:000c9d30       ??$gjkPenetration@UGjkConvex@Gu@physx@@U123@@Gu@physx@@YA?AW4GjkStatus@01@AEBUGjkConvex@01@0AEBT__m128@@1_NPEIAE3PEIAT4@4AEAEAEAUGjkOutput@01@@Z 00000001800cad30 f i GuGJKTest.obj
 0001:000cb170       ??$gjkRaycast@UGjkConvex@Gu@physx@@U123@@Gu@physx@@YA_NAEBUGjkConvex@01@0AEBT__m128@@111AEAT3@22M@Z 00000001800cc170 f i GuGJKTest.obj
 0001:000cbd10       ?testEpaPenetration@Gu@physx@@YA?AW4GjkStatus@12@AEBUGjkConvex@12@0PEBE1EAEAUGjkOutput@12@@Z 00000001800ccd10 f   GuGJKTest.obj
 0001:000cbd60       ?testGjk@Gu@physx@@YA?AW4GjkStatus@12@AEBUGjkConvex@12@0AEBT__m128@@1AEAT5@222@Z 00000001800ccd60 f   GuGJKTest.obj
 0001:000cbd70       ?testGjkPenetration@Gu@physx@@YA?AW4GjkStatus@12@AEBUGjkConvex@12@0AEBT__m128@@1PEAE2AEAEAEAUGjkOutput@12@@Z 00000001800ccd70 f   GuGJKTest.obj
 0001:000cbdc0       ?testGjkRaycast@Gu@physx@@YA_NAEBUGjkConvex@12@0AEBT__m128@@111AEAT4@22M@Z 00000001800ccdc0 f   GuGJKTest.obj
 0001:000cbdd0       ??0HeightField@Gu@physx@@QEAA@PEAVMeshFactory@12@@Z 00000001800ccdd0 f   GuHeightField.obj
 0001:000cbe20       ??0HeightField@Gu@physx@@QEAA@PEAVMeshFactory@12@AEAUHeightFieldData@12@@Z 00000001800cce20 f   GuHeightField.obj
 0001:000cbed0       ??1HeightField@Gu@physx@@UEAA@XZ 00000001800cced0 f   GuHeightField.obj
 0001:000cbf50       ??_GHeightField@Gu@physx@@UEAAPEAXI@Z 00000001800ccf50 f i GuHeightField.obj
 0001:000cbf50       ??_EHeightField@Gu@physx@@UEAAPEAXI@Z 00000001800ccf50 f i GuHeightField.obj
 0001:000cc000       ?computeCellCoordinates@HeightField@Gu@physx@@QEBAIMMAEAM0@Z 00000001800cd000 f   GuHeightField.obj
 0001:000cc120       ?createObject@HeightField@Gu@physx@@SAPEAV123@AEAPEAEAEAVPxDeserializationContext@3@@Z 00000001800cd120 f   GuHeightField.obj
 0001:000cc180       ?exportExtraData@HeightField@Gu@physx@@UEAAXAEAVPxSerializationContext@3@@Z 00000001800cd180 f   GuHeightField.obj
 0001:000cc1d0       ?getConcreteTypeName@PxHeightField@physx@@UEBAPEBDXZ 00000001800cd1d0 f i GuHeightField.obj
 0001:000cc1e0       ?getConvexEdgeThreshold@HeightField@Gu@physx@@UEBAMXZ 00000001800cd1e0 f i GuHeightField.obj
 0001:000cc1f0       ?getFlags@HeightField@Gu@physx@@UEBA?AV?$PxFlags@W4Enum@PxHeightFieldFlag@physx@@G@3@XZ 00000001800cd1f0 f i GuHeightField.obj
 0001:000cc200       ?getFormat@HeightField@Gu@physx@@UEBA?AW4Enum@PxHeightFieldFormat@3@XZ 00000001800cd200 f i GuHeightField.obj
 0001:000cc210       ?getHeight@HeightField@Gu@physx@@UEBAMMM@Z 00000001800cd210 f i GuHeightField.obj
 0001:000cc330       ?getNbColumns@HeightField@Gu@physx@@UEBAIXZ 00000001800cd330 f i GuHeightField.obj
 0001:000cc340       ?getNbPrimitives@SourceMesh@Gu@physx@@UEBAIXZ 00000001800cd340 f i GuBV4.obj
 0001:000cc340       ?getNbPrimitives@TetrahedronSourceMesh@Gu@physx@@UEBAIXZ 00000001800cd340 f i GuBV4.obj
 0001:000cc340       ?getNbBounds@BVH@Gu@physx@@UEBAIXZ 00000001800cd340 f i GuBVH.obj
 0001:000cc340       ?getNbRows@HeightField@Gu@physx@@UEBAIXZ 00000001800cd340 f i GuHeightField.obj
 0001:000cc350       ?getSample@HeightField@Gu@physx@@UEBAAEBUPxHeightFieldSample@3@II@Z 00000001800cd350 f i GuHeightField.obj
 0001:000cc360       ?getSampleStride@HeightField@Gu@physx@@UEBAIXZ 00000001800cd360 f i GuHeightField.obj
 0001:000cc370       ?getTimestamp@HeightField@Gu@physx@@UEBAIXZ 00000001800cd370 f i GuHeightField.obj
 0001:000cc380       ?getTriangleMaterialIndex@HeightField@Gu@physx@@UEBAGI@Z 00000001800cd380 f i GuHeightField.obj
 0001:000cc3b0       ?getTriangleNormal@HeightField@Gu@physx@@UEBA?AV?$PxVec3T@M@3@I@Z 00000001800cd3b0 f i GuHeightField.obj
 0001:000cc4b0       ?isKindOf@PxHeightField@physx@@MEBA_NPEBD@Z 00000001800cd4b0 f i GuHeightField.obj
 0001:000cc540       ?load@HeightField@Gu@physx@@QEAA_NAEAVPxInputStream@3@@Z 00000001800cd540 f   GuHeightField.obj
 0001:000cc8a0       ?loadFromDesc@HeightField@Gu@physx@@QEAA_NAEBVPxHeightFieldDesc@3@@Z 00000001800cd8a0 f   GuHeightField.obj
 0001:000ccb30       ?modifySamples@HeightField@Gu@physx@@UEAA_NHHAEBVPxHeightFieldDesc@3@_N@Z 00000001800cdb30 f   GuHeightField.obj
 0001:000ccf20       ?onRefCountZero@HeightField@Gu@physx@@UEAAXXZ 00000001800cdf20 f   GuHeightField.obj
 0001:000ccff0       ?releaseMemory@HeightField@Gu@physx@@QEAAXXZ 00000001800cdff0 f   GuHeightField.obj
 0001:000cd040       ?save@HeightField@Gu@physx@@QEAA_NAEAVPxOutputStream@3@_N@Z 00000001800ce040 f   GuHeightField.obj
 0001:000cd280       ?saveCells@HeightField@Gu@physx@@UEBAIPEAXI@Z 00000001800ce280 f   GuHeightField.obj
 0001:000cd2c0       ?computeLocalBounds@HeightFieldUtil@Gu@physx@@QEBAXAEAVPxBounds3@3@@Z 00000001800ce2c0 f   GuHeightFieldUtil.obj
 0001:000cd780       ?getTriangle@HeightFieldUtil@Gu@physx@@QEBAIAEBV?$PxTransformT@M@3@AEAVPxTriangle@3@PEAI2I_N3@Z 00000001800ce780 f   GuHeightFieldUtil.obj
 0001:000cdf80       ?getTriangleAdjacencyIndices@HeightField@Gu@physx@@QEBAXIIIIAEAI00@Z 00000001800cef80 f i GuHeightFieldUtil.obj
 0001:000ce160       ?overlapAABBTriangles@HeightFieldUtil@Gu@physx@@QEBAXAEBVPxBounds3@3@AEAVOverlapReport@23@I@Z 00000001800cf160 f   GuHeightFieldUtil.obj
 0001:000ce5c0       ??$gjk@U?$RelativeConvex@VTriangleV@Gu@physx@@@Gu@physx@@U?$LocalConvex@VConvexHullV@Gu@physx@@@23@@Gu@physx@@YA?AW4GjkStatus@01@AEBU?$RelativeConvex@VTriangleV@Gu@physx@@@01@AEBU?$LocalConvex@VConvexHullV@Gu@physx@@@01@AEBT__m128@@2AEAT5@333@Z 00000001800cf5c0 f i GuOverlapTestsHF.obj
 0001:000cf4e0       ?GeomOverlapCallback_BoxHeightfield@@YA_NAEBVPxGeometry@physx@@AEBV?$PxTransformT@M@2@01PEAUTriggerCache@Gu@2@PEAUPxQueryThreadContext@2@@Z 00000001800d04e0 f   GuOverlapTestsHF.obj
 0001:000cfa40       ?GeomOverlapCallback_CapsuleHeightfield@@YA_NAEBVPxGeometry@physx@@AEBV?$PxTransformT@M@2@01PEAUTriggerCache@Gu@2@PEAUPxQueryThreadContext@2@@Z 00000001800d0a40 f   GuOverlapTestsHF.obj
 0001:000d0040       ?GeomOverlapCallback_ConvexHeightfield@@YA_NAEBVPxGeometry@physx@@AEBV?$PxTransformT@M@2@01PEAUTriggerCache@Gu@2@PEAUPxQueryThreadContext@2@@Z 00000001800d1040 f   GuOverlapTestsHF.obj
 0001:000d0aa0       ?GeomOverlapCallback_SphereHeightfield@@YA_NAEBVPxGeometry@physx@@AEBV?$PxTransformT@M@2@01PEAUTriggerCache@Gu@2@PEAUPxQueryThreadContext@2@@Z 00000001800d1aa0 f   GuOverlapTestsHF.obj
 0001:000d1660       ??$gjkRaycast@U?$LocalConvex@VTriangleV@Gu@physx@@@Gu@physx@@U?$LocalConvex@VConvexHullV@Gu@physx@@@23@@Gu@physx@@YA_NAEBU?$LocalConvex@VTriangleV@Gu@physx@@@01@AEBU?$LocalConvex@VConvexHullV@Gu@physx@@@01@AEBT__m128@@222AEAT4@33M@Z 00000001800d2660 f i GuSweepsHF.obj
 0001:000d2420       ??$traceSegment@VCapsuleTraceSegmentReport@@$0A@$00@HeightFieldTraceUtil@Gu@physx@@QEBAXAEBV?$PxVec3T@M@2@0MPEAVCapsuleTraceSegmentReport@@AEBVPxBounds3@2@_NPEBV32@@Z 00000001800d3420 f i GuSweepsHF.obj
 0001:000d2420       ??$traceSegment@VBoxTraceSegmentReport@@$0A@$00@HeightFieldTraceUtil@Gu@physx@@QEBAXAEBV?$PxVec3T@M@2@0MPEAVBoxTraceSegmentReport@@AEBVPxBounds3@2@_NPEBV32@@Z 00000001800d3420 f i GuSweepsHF.obj
 0001:000d2420       ??$traceSegment@VConvexTraceSegmentReport@@$0A@$00@HeightFieldTraceUtil@Gu@physx@@QEBAXAEBV?$PxVec3T@M@2@0MPEAVConvexTraceSegmentReport@@AEBVPxBounds3@2@_NPEBV32@@Z 00000001800d3420 f i GuSweepsHF.obj
 0001:000d2df0       ??0ConvexTraceSegmentReport@@QEAA@AEBVHeightFieldUtil@Gu@physx@@AEBUConvexHullData@23@AEBVPxMeshScale@3@AEBV?$PxTransformT@M@3@3AEBV?$PxVec3T@M@3@MV?$PxFlags@W4Enum@PxHitFlag@physx@@G@3@M@Z 00000001800d3df0 f i GuSweepsHF.obj
 0001:000d3760       ??_GBoxTraceSegmentReport@@UEAAPEAXI@Z 00000001800d4760 f i GuSweepsHF.obj
 0001:000d3760       ??_EBoxTraceSegmentReport@@UEAAPEAXI@Z 00000001800d4760 f i GuSweepsHF.obj
 0001:000d3790       ??_GCapsuleTraceSegmentReport@@UEAAPEAXI@Z 00000001800d4790 f i GuSweepsHF.obj
 0001:000d3790       ??_ECapsuleTraceSegmentReport@@UEAAPEAXI@Z 00000001800d4790 f i GuSweepsHF.obj
 0001:000d37c0       ??_EConvexTraceSegmentReport@@UEAAPEAXI@Z 00000001800d47c0 f i GuSweepsHF.obj
 0001:000d37c0       ??_GConvexTraceSegmentReport@@UEAAPEAXI@Z 00000001800d47c0 f i GuSweepsHF.obj
 0001:000d37f0       ??_GHeightFieldTraceSegmentReport@@UEAAPEAXI@Z 00000001800d47f0 f i GuSweepsHF.obj
 0001:000d37f0       ??_EHeightFieldTraceSegmentReport@@UEAAPEAXI@Z 00000001800d47f0 f i GuSweepsHF.obj
 0001:000d3820       ?finalizeHit@ConvexTraceSegmentReport@@QEAA_NAEAUPxGeomSweepHit@physx@@AEBVPxHeightFieldGeometry@3@AEBV?$PxTransformT@M@3@AEBVPxConvexMeshGeometry@3@2AEBV?$PxVec3T@M@3@M@Z 00000001800d4820 f i GuSweepsHF.obj
 0001:000d3a50       ?onEvent@BoxTraceSegmentReport@@UEAA_NIPEBI@Z 00000001800d4a50 f i GuSweepsHF.obj
 0001:000d3ea0       ?onEvent@CapsuleTraceSegmentReport@@UEAA_NIPEBI@Z 00000001800d4ea0 f i GuSweepsHF.obj
 0001:000d40b0       ?onEvent@ConvexTraceSegmentReport@@UEAA_NIPEBI@Z 00000001800d50b0 f i GuSweepsHF.obj
 0001:000d4670       ?prepare@?$OverlapTraceSegment@VCapsuleTraceSegmentReport@@@HeightFieldTraceUtil@Gu@physx@@QEAAXAEBV?$PxVec3T@M@4@00AEAM1@Z 00000001800d5670 f i GuSweepsHF.obj
 0001:000d4670       ?prepare@?$OverlapTraceSegment@VBoxTraceSegmentReport@@@HeightFieldTraceUtil@Gu@physx@@QEAAXAEBV?$PxVec3T@M@4@00AEAM1@Z 00000001800d5670 f i GuSweepsHF.obj
 0001:000d4670       ?prepare@?$OverlapTraceSegment@VConvexTraceSegmentReport@@@HeightFieldTraceUtil@Gu@physx@@QEAAXAEBV?$PxVec3T@M@4@00AEAM1@Z 00000001800d5670 f i GuSweepsHF.obj
 0001:000d4910       ?sweepBox_HeightFieldGeom@@YA_NAEBVPxGeometry@physx@@AEBV?$PxTransformT@M@2@AEBVPxBoxGeometry@2@1AEBVBox@Gu@2@AEBV?$PxVec3T@M@2@MAEAUPxGeomSweepHit@2@V?$PxFlags@W4Enum@PxHitFlag@physx@@G@2@MPEAUPxQueryThreadContext@2@@Z 00000001800d5910 f   GuSweepsHF.obj
 0001:000d5750       ?sweepCapsule_HeightFieldGeom@@YA_NAEBVPxGeometry@physx@@AEBV?$PxTransformT@M@2@AEBVPxCapsuleGeometry@2@1AEBVCapsule@Gu@2@AEBV?$PxVec3T@M@2@MAEAUPxGeomSweepHit@2@V?$PxFlags@W4Enum@PxHitFlag@physx@@G@2@MPEAUPxQueryThreadContext@2@@Z 00000001800d6750 f   GuSweepsHF.obj
 0001:000d60a0       ?sweepConvex_HeightFieldGeom@@YA_NAEBVPxGeometry@physx@@AEBV?$PxTransformT@M@2@AEBVPxConvexMeshGeometry@2@1AEBV?$PxVec3T@M@2@MAEAUPxGeomSweepHit@2@V?$PxFlags@W4Enum@PxHitFlag@physx@@G@2@MPEAUPxQueryThreadContext@2@@Z 00000001800d70a0 f   GuSweepsHF.obj
 0001:000d6a60       ?testVertexIndex@?$OverlapTraceSegment@VBoxTraceSegmentReport@@@HeightFieldTraceUtil@Gu@physx@@QEAA_NI@Z 00000001800d7a60 f i GuSweepsHF.obj
 0001:000d6a60       ?testVertexIndex@?$OverlapTraceSegment@VConvexTraceSegmentReport@@@HeightFieldTraceUtil@Gu@physx@@QEAA_NI@Z 00000001800d7a60 f i GuSweepsHF.obj
 0001:000d6a60       ?testVertexIndex@?$OverlapTraceSegment@VCapsuleTraceSegmentReport@@@HeightFieldTraceUtil@Gu@physx@@QEAA_NI@Z 00000001800d7a60 f i GuSweepsHF.obj
 0001:000d6bb0       ?transformFast@PxBounds3@physx@@SA?AV12@AEBV?$PxTransformT@M@2@AEBV12@@Z 00000001800d7bb0 f i GuSweepsHF.obj
 0001:000d6f90       ?intersectOBBOBB@Gu@physx@@YA_NAEBV?$PxVec3T@M@2@0AEBV?$PxMat33T@M@2@001_N@Z 00000001800d7f90 f   GuIntersectionBoxBox.obj
 0001:000d75f0       ?intersectCapsuleTriangle@Gu@physx@@YA_NAEBV?$PxVec3T@M@2@000AEBVCapsule@12@AEBUCapsuleTriangleOverlapData@12@@Z 00000001800d85f0 f   GuIntersectionCapsuleTriangle.obj
 0001:000d8180       ?intersectEdgeEdge@Gu@physx@@YA_NAEBV?$PxVec3T@M@2@0000AEAMAEAV32@@Z 00000001800d9180 f   GuIntersectionEdgeEdge.obj
 0001:000d84b0       ?intersectRayAABB2@Gu@physx@@YA_NAEBT__m128@@0000AEAT3@1@Z 00000001800d94b0 f   GuIntersectionRayBox.obj
 0001:000d8570       ?intersectRayAABB2@Gu@physx@@YA_NAEBV?$PxVec3T@M@2@000MAEAM1@Z 00000001800d9570 f   GuIntersectionRayBox.obj
 0001:000d8720       ?intersectRayAABB@Gu@physx@@YAHAEBV?$PxVec3T@M@2@000AEAM1@Z 00000001800d9720 f   GuIntersectionRayBox.obj
 0001:000d8840       ?rayAABBIntersect2@Gu@physx@@YAIAEBV?$PxVec3T@M@2@000AEAV32@AEAM@Z 00000001800d9840 f   GuIntersectionRayBox.obj
 0001:000d8a50       ?intersectRayCapsuleInternal@Gu@physx@@YAIAEBV?$PxVec3T@M@2@000MQEAM@Z 00000001800d9a50 f   GuIntersectionRayCapsule.obj
 0001:000d8f20       ?intersectRaySphere@Gu@physx@@YA_NAEBV?$PxVec3T@M@2@0M0MAEAMPEAV32@@Z 00000001800d9f20 f   GuIntersectionRaySphere.obj
 0001:000d9010       ?intersectRaySphereBasic@Gu@physx@@YA_NAEBV?$PxVec3T@M@2@0M0MAEAMPEAV32@@Z 00000001800da010 f   GuIntersectionRaySphere.obj
 0001:000d9170       ?intersectSphereBox@Gu@physx@@YA_NAEBVSphere@12@AEBVBox@12@@Z 00000001800da170 f   GuIntersectionSphereBox.obj
 0001:000d93a0       ?intersectTetrahedronBox@Gu@physx@@YA_NAEBV?$PxVec3T@M@2@000AEBVPxBounds3@2@@Z 00000001800da3a0 f   GuIntersectionTetrahedronBox.obj
 0001:000d9780       ?intersectTriangleBox@Gu@physx@@YAHAEBVBoxPadded@12@AEBV?$PxVec3T@M@2@11@Z 00000001800da780 f   GuIntersectionTriangleBox.obj
 0001:000d9d50       ?intersectTriangleBoxBV4@@YAHAEBV?$PxVec3T@M@physx@@00AEBV?$PxMat33T@M@2@00@Z 00000001800dad50 f   GuIntersectionTriangleBox.obj
 0001:000da190       ?intersectTriangleBox_ReferenceCode@Gu@physx@@YAHAEBV?$PxVec3T@M@2@0000@Z 00000001800db190 f   GuIntersectionTriangleBox.obj
 0001:000da9c0       ?intersectTriangleBox_Unsafe@Gu@physx@@YAHAEBV?$PxVec3T@M@2@0000@Z 00000001800db9c0 f   GuIntersectionTriangleBox.obj
 0001:000dad80       ?intersectTriangleTriangle@Gu@physx@@YA_NAEBV?$PxVec3T@M@2@00000_N@Z 00000001800dbd80 f   GuIntersectionTriangleTriangle.obj
 0001:000dc1c0       ??0BV4Tree@Gu@physx@@QEAA@W4PxEMPTY@2@@Z 00000001800dd1c0 f   GuBV4.obj
 0001:000dc1d0       ??0BV4Tree@Gu@physx@@QEAA@XZ 00000001800dd1d0 f   GuBV4.obj
 0001:000dc200       ??0SourceMesh@Gu@physx@@QEAA@XZ 00000001800dd200 f   GuBV4.obj
 0001:000dc230       ??0TetrahedronSourceMesh@Gu@physx@@QEAA@XZ 00000001800dd230 f   GuBV4.obj
 0001:000dc260       ??1BV4Tree@Gu@physx@@QEAA@XZ 00000001800dd260 f   GuBV4.obj
 0001:000dc2c0       ??1SourceMesh@Gu@physx@@UEAA@XZ 00000001800dd2c0 f   GuBV4.obj
 0001:000dc2c0       ??1TetrahedronSourceMesh@Gu@physx@@UEAA@XZ 00000001800dd2c0 f   GuBV4.obj
 0001:000dc310       ??4BV4Tree@Gu@physx@@QEAAXAEAV012@@Z 00000001800dd310 f   GuBV4.obj
 0001:000dc3a0       ??4SourceMesh@Gu@physx@@QEAAXAEAV012@@Z 00000001800dd3a0 f   GuBV4.obj
 0001:000dc3f0       ??_GTetrahedronSourceMesh@Gu@physx@@UEAAPEAXI@Z 00000001800dd3f0 f i GuBV4.obj
 0001:000dc3f0       ??_GSourceMesh@Gu@physx@@UEAAPEAXI@Z 00000001800dd3f0 f i GuBV4.obj
 0001:000dc3f0       ??_ETetrahedronSourceMesh@Gu@physx@@UEAAPEAXI@Z 00000001800dd3f0 f i GuBV4.obj
 0001:000dc3f0       ??_ESourceMesh@Gu@physx@@UEAAPEAXI@Z 00000001800dd3f0 f i GuBV4.obj
 0001:000dc490       ??_GSourceMeshBase@Gu@physx@@UEAAPEAXI@Z 00000001800dd490 f i GuBV4.obj
 0001:000dc490       ??_ESourceMeshBase@Gu@physx@@UEAAPEAXI@Z 00000001800dd490 f i GuBV4.obj
 0001:000dc530       ?exportExtraData@BV4Tree@Gu@physx@@QEAAXAEAVPxSerializationContext@3@@Z 00000001800dd530 f   GuBV4.obj
 0001:000dc590       ?getPrimitiveBox@SourceMesh@Gu@physx@@UEAAXIAEAT__m128@@0@Z 00000001800dd590 f   GuBV4.obj
 0001:000dc630       ?getPrimitiveBox@TetrahedronSourceMesh@Gu@physx@@UEAAXIAEAT__m128@@0@Z 00000001800dd630 f   GuBV4.obj
 0001:000dc6f0       ?importExtraData@BV4Tree@Gu@physx@@QEAAXAEAVPxDeserializationContext@3@@Z 00000001800dd6f0 f   GuBV4.obj
 0001:000dc730       ?init@BV4Tree@Gu@physx@@QEAA_NPEAVSourceMeshBase@23@AEBVPxBounds3@3@@Z 00000001800dd730 f   GuBV4.obj
 0001:000dc730       ?init@BV32Tree@Gu@physx@@QEAA_NPEAVSourceMeshBase@23@AEBVPxBounds3@3@@Z 00000001800dd730 f   GuBV32.obj
 0001:000dc7d0       ?load@BV4Tree@Gu@physx@@QEAA_NAEAVPxInputStream@3@_N@Z 00000001800dd7d0 f   GuBV4.obj
 0001:000dca10       ?refit@BV4Tree@Gu@physx@@QEAA_NAEAVPxBounds3@3@M@Z 00000001800dda10 f   GuBV4.obj
 0001:000dd160       ?refit@SourceMesh@Gu@physx@@UEAAXIAEAVPxBounds3@3@@Z 00000001800de160 f   GuBV4.obj
 0001:000dd300       ?refit@TetrahedronSourceMesh@Gu@physx@@UEAAXIAEAVPxBounds3@3@@Z 00000001800de300 f   GuBV4.obj
 0001:000dd520       ?remapTopology@SourceMesh@Gu@physx@@UEAAXPEBI@Z 00000001800de520 f   GuBV4.obj
 0001:000dd7c0       ?remapTopology@TetrahedronSourceMesh@Gu@physx@@UEAAXPEBI@Z 00000001800de7c0 f   GuBV4.obj
 0001:000dda70       ??0BV4_AABBTree@Gu@physx@@QEAA@XZ 00000001800dea70 f   GuBV4Build.obj
 0001:000dda80       ??0BVData@@QEAA@XZ         00000001800dea80 f   GuBV4Build.obj
 0001:000ddab0       ??0BuildStats@Gu@physx@@QEAA@XZ 00000001800deab0 f i GuBV4Build.obj
 0001:000ddac0       ??1BV4_AABBTree@Gu@physx@@QEAA@XZ 00000001800deac0 f   GuBV4Build.obj
 0001:000ddad0       ??4BuildStats@Gu@physx@@QEAAAEAU012@$$QEAU012@@Z 00000001800dead0 f i GuBV4Build.obj
 0001:000ddae0       ??4BuildStats@Gu@physx@@QEAAAEAU012@AEBU012@@Z 00000001800deae0 f i GuBV4Build.obj
 0001:000ddaf0       ?BuildBV4Ex@Gu@physx@@YA_NAEAVBV4Tree@12@AEAVSourceMeshBase@12@MI_NW4BV4_BuildStrategy@12@@Z 00000001800deaf0 f   GuBV4Build.obj
 0001:000dea30       ?allocateNode@BV4BuildParams@@QEAAPEAUBV4Node@@XZ 00000001800dfa30 f   GuBV4Build.obj
 0001:000deea0       ?buildFromMesh@BV4_AABBTree@Gu@physx@@QEAA_NAEAVSourceMeshBase@23@IW4BV4_BuildStrategy@23@@Z 00000001800dfea0 f   GuBV4Build.obj
 0001:000dfc30       ?getCount@BuildStats@Gu@physx@@QEBAIXZ 00000001800e0c30 f i GuBV4Build.obj
 0001:000dfc30       ?getNbActiveObjects@PruningPool@Gu@physx@@QEBAIXZ 00000001800e0c30 f i GuIncrementalAABBPrunerCore.obj
 0001:000dfd10       ?increaseCount@BuildStats@Gu@physx@@QEAAXI@Z 00000001800e0d10 f i GuBV4Build.obj
 0001:000e07a0       ?release@BV4_AABBTree@Gu@physx@@QEAAXXZ 00000001800e17a0 f   GuBV4Build.obj
 0001:000e0850       ?releaseNodes@BV4BuildParams@@QEAAXXZ 00000001800e1850 f   GuBV4Build.obj
 0001:000e08c0       ?reset@BuildStats@Gu@physx@@QEAAXXZ 00000001800e18c0 f i GuBV4Build.obj
 0001:000e08d0       ?setCount@BuildStats@Gu@physx@@QEAAXI@Z 00000001800e18d0 f i GuBV4Build.obj
 0001:000e0f50       ?walk@BV4_AABBTree@Gu@physx@@QEBAIP6A_NPEBVAABBTreeNode@23@IPEAX@Z1@Z 00000001800e1f50 f   GuBV4Build.obj
 0001:000e1010       ?walkDistance@BV4_AABBTree@Gu@physx@@QEBAIP6A_NPEBVAABBTreeNode@23@IPEAX@ZP6A_N01@Z1@Z 00000001800e2010 f   GuBV4Build.obj
 0001:000e5070       ?GenericSweep_AABB_CB@@YAXAEBVBox@Gu@physx@@AEBV?$PxVec3T@M@3@MAEBVBV4Tree@23@P6A_NPEAX111IAEAM@Z3I@Z 00000001800e6070 f   GuBV4_AABBSweep.obj
 0001:000e51d0       ?Sweep_AABB_BV4@@YAHAEBVBox@Gu@physx@@AEBV?$PxVec3T@M@3@MAEBVBV4Tree@23@PEIAVSweepHit@23@I@Z 00000001800e61d0 f   GuBV4_AABBSweep.obj
 0001:000edd50       ?BV4_OverlapBoxAll@@YAIAEBVBox@Gu@physx@@AEBVBV4Tree@23@PEIBV?$PxMat44T@M@3@PEAIIAEA_N@Z 00000001800eed50 f   GuBV4_BoxOverlap.obj
 0001:000ee570       ?BV4_OverlapBoxAny@@YAHAEBVBox@Gu@physx@@AEBVBV4Tree@23@PEIBV?$PxMat44T@M@3@@Z 00000001800ef570 f   GuBV4_BoxOverlap.obj
 0001:000eed30       ?BV4_OverlapBoxCB@@YAXAEBVBox@Gu@physx@@AEBVBV4Tree@23@P6A_NPEAXAEBV?$PxVec3T@M@3@333IPEBI@Z2@Z 00000001800efd30 f   GuBV4_BoxOverlap.obj
 0001:000ef3f0       ?BV4_OverlapBoxCB@@YAXAEBVBox@Gu@physx@@AEBVBV4Tree@23@P6A_NPEAXAEBV?$PxVec3T@M@3@33IPEBI@Z2@Z 00000001800f03f0 f   GuBV4_BoxOverlap.obj
 0001:000ef8a0       ?BV4_OverlapCapsuleAll@@YAIAEBVCapsule@Gu@physx@@AEBVBV4Tree@23@PEIBV?$PxMat44T@M@3@PEAIIAEA_N@Z 00000001800f08a0 f   GuBV4_BoxOverlap.obj
 0001:000effc0       ?BV4_OverlapCapsuleAny@@YAHAEBVCapsule@Gu@physx@@AEBVBV4Tree@23@PEIBV?$PxMat44T@M@3@@Z 00000001800f0fc0 f   GuBV4_BoxOverlap.obj
 0001:000f2da0       ?BV4_CapsuleSweepSingle@@YAHAEBVCapsule@Gu@physx@@AEBV?$PxVec3T@M@3@MAEBVBV4Tree@23@PEIAVSweepHit@23@I@Z 00000001800f3da0 f   GuBV4_CapsuleSweep.obj
 0001:000f6ec0       ?BV4_CapsuleSweepSingleAA@@YAHAEBVCapsule@Gu@physx@@AEBV?$PxVec3T@M@3@MAEBVBV4Tree@23@PEIAVSweepHit@23@I@Z 00000001800f7ec0 f   GuBV4_CapsuleSweepAA.obj
 0001:001082c0       ?BV4_OverlapMeshVsMesh@@YA_NAEAV?$PxReportCallback@UPxGeomIndexPair@physx@@@physx@@AEBVBV4Tree@Gu@2@1PEBV?$PxMat44T@M@2@2AEBV?$PxTransformT@M@2@3AEBVPxMeshScale@2@4V?$PxFlags@W4Enum@PxMeshMeshQueryFlag@physx@@I@2@M@Z 00000001801092c0 f   GuBV4_MeshMeshOverlap.obj
 0001:00108340       ?BV4_OverlapMeshVsMeshDistance@@YA_NAEAV?$PxReportCallback@UPxGeomIndexClosePair@physx@@@physx@@AEBVBV4Tree@Gu@2@1PEBV?$PxMat44T@M@2@2AEBV?$PxTransformT@M@2@3AEBVPxMeshScale@2@4V?$PxFlags@W4Enum@PxMeshMeshQueryFlag@physx@@I@2@M@Z 0000000180109340 f   GuBV4_MeshMeshOverlap.obj
 0001:00111440       ?BV4_BoxSweepSingle@@YAHAEBVBox@Gu@physx@@AEBV?$PxVec3T@M@3@MAEBVBV4Tree@23@PEIBV?$PxMat44T@M@3@PEIAVSweepHit@23@I@Z 0000000180112440 f   GuBV4_OBBSweep.obj
 0001:00111b70       ?BV4_GenericSweepCB@@YAXAEBVBox@Gu@physx@@AEBV?$PxVec3T@M@3@MAEBVBV4Tree@23@P6A_NPEAX111IAEAM@Z3_N@Z 0000000180112b70 f   GuBV4_OBBSweep.obj
 0001:00111d90       ?Sweep_OBB_BV4@@YAHAEBVBox@Gu@physx@@AEBV?$PxVec3T@M@3@MAEBVBV4Tree@23@PEIAVSweepHit@23@I@Z 0000000180112d90 f   GuBV4_OBBSweep.obj
 0001:001148f0       ?BV4_RaycastCB@@YAXAEBV?$PxVec3T@M@physx@@0AEBVBV4Tree@Gu@2@PEIBV?$PxMat44T@M@2@MMIP6A?AW4HitCode@42@PEAX000IMMM@Z3@Z 00000001801158f0 f   GuBV4_Raycast.obj
 0001:00114d30       ?BV4_RaycastSingle@@YAHAEBV?$PxVec3T@M@physx@@0AEBVBV4Tree@Gu@2@PEIBV?$PxMat44T@M@2@PEIAUPxGeomRaycastHit@2@MMIV?$PxFlags@W4Enum@PxHitFlag@physx@@G@2@@Z 0000000180115d30 f   GuBV4_Raycast.obj
 0001:00117260       ?BV4_OverlapSphereAll@@YAIAEBVSphere@Gu@physx@@AEBVBV4Tree@23@PEIBV?$PxMat44T@M@3@PEAIIAEA_N@Z 0000000180118260 f   GuBV4_SphereOverlap.obj
 0001:00117580       ?BV4_OverlapSphereAny@@YAHAEBVSphere@Gu@physx@@AEBVBV4Tree@23@PEIBV?$PxMat44T@M@3@@Z 0000000180118580 f   GuBV4_SphereOverlap.obj
 0001:00117860       ?BV4_PointDistance@@YAXAEBV?$PxVec3T@M@physx@@AEBVBV4Tree@Gu@2@MAEAIAEAMAEAV12@@Z 0000000180118860 f   GuBV4_SphereOverlap.obj
 0001:0011e210       ?BV4_GenericSweepCB_Old@@YAXAEBV?$PxVec3T@M@physx@@00MAEBVBV4Tree@Gu@2@PEIBV?$PxMat44T@M@2@P6A_NPEAX000IAEAM@Z3@Z 000000018011f210 f   GuBV4_SphereSweep.obj
 0001:0011e620       ?BV4_SphereSweepSingle@@YAHAEBVSphere@Gu@physx@@AEBV?$PxVec3T@M@3@MAEBVBV4Tree@23@PEIBV?$PxMat44T@M@3@PEIAVSweepHit@23@I@Z 000000018011f620 f   GuBV4_SphereSweep.obj
 0001:0011f120       ?raycast_triangleMesh_BV4@Gu@physx@@YAIPEBVTriangleMesh@12@AEBVPxTriangleMeshGeometry@2@AEBV?$PxTransformT@M@2@AEBV?$PxVec3T@M@2@3MV?$PxFlags@W4Enum@PxHitFlag@physx@@G@2@IPEIAUPxGeomRaycastHit@2@I@Z 0000000180120120 f   GuMidphaseBV4.obj
 0001:0011ff30       ?intersectSphereVsMesh_BV4@Gu@physx@@YA_NAEBVSphere@12@AEBVTriangleMesh@12@AEBV?$PxTransformT@M@2@AEBVPxMeshScale@2@PEAULimitedResults@12@@Z 0000000180120f30 f   GuMidphaseBV4.obj
 0001:00120630       ?intersectBoxVsMesh_BV4@Gu@physx@@YA_NAEBVBox@12@AEBVTriangleMesh@12@AEBV?$PxTransformT@M@2@AEBVPxMeshScale@2@PEAULimitedResults@12@@Z 0000000180121630 f   GuMidphaseBV4.obj
 0001:001210d0       ?intersectCapsuleVsMesh_BV4@Gu@physx@@YA_NAEBVCapsule@12@AEBVTriangleMesh@12@AEBV?$PxTransformT@M@2@AEBVPxMeshScale@2@PEAULimitedResults@12@@Z 00000001801220d0 f   GuMidphaseBV4.obj
 0001:001218e0       ?intersectOBB_BV4@Gu@physx@@YAXPEBVTriangleMesh@12@AEBVBox@12@AEAU?$MeshHitCallback@UPxGeomRaycastHit@physx@@@12@_N3@Z 00000001801228e0 f   GuMidphaseBV4.obj
 0001:00121900       ?sweepCapsule_MeshGeom_BV4@Gu@physx@@YA_NPEBVTriangleMesh@12@AEBVPxTriangleMeshGeometry@2@AEBV?$PxTransformT@M@2@AEBVCapsule@12@AEBV?$PxVec3T@M@2@MAEAUPxGeomSweepHit@2@V?$PxFlags@W4Enum@PxHitFlag@physx@@G@2@M@Z 0000000180122900 f   GuMidphaseBV4.obj
 0001:00122400       ?sweepBox_MeshGeom_BV4@Gu@physx@@YA_NPEBVTriangleMesh@12@AEBVPxTriangleMeshGeometry@2@AEBV?$PxTransformT@M@2@AEBVBox@12@AEBV?$PxVec3T@M@2@MAEAUPxGeomSweepHit@2@V?$PxFlags@W4Enum@PxHitFlag@physx@@G@2@M@Z 0000000180123400 f   GuMidphaseBV4.obj
 0001:00123b60       ?sweepConvex_MeshGeom_BV4@Gu@physx@@YAXPEBVTriangleMesh@12@AEBVBox@12@AEBV?$PxVec3T@M@2@MAEAUSweepConvexMeshHitCallback@12@_N@Z 0000000180124b60 f   GuMidphaseBV4.obj
 0001:00123ba0       ?pointMeshDistance_BV4@Gu@physx@@YAXPEBVTriangleMesh@12@AEBVPxTriangleMeshGeometry@2@AEBV?$PxTransformT@M@2@AEBV?$PxVec3T@M@2@MAEAIAEAMAEAV62@@Z 0000000180124ba0 f   GuMidphaseBV4.obj
 0001:00124a60       ?computeSweepData@physx@@YAMAEBVPxTriangleMeshGeometry@1@AEAV?$PxVec3T@M@1@11M@Z 0000000180125a60 f i GuMidphaseBV4.obj
 0001:00124df0       ?distanceMeshVsMesh_BV4@Gu@physx@@YA_NAEAV?$PxReportCallback@UPxGeomIndexClosePair@physx@@@2@AEBVTriangleMesh@12@AEBV?$PxTransformT@M@2@AEBVPxMeshScale@2@123V?$PxFlags@W4Enum@PxMeshMeshQueryFlag@physx@@I@2@M@Z 0000000180125df0 f   GuMidphaseBV4.obj
 0001:00126780       ?intersectMeshVsMesh_BV4@Gu@physx@@YA_NAEAV?$PxReportCallback@UPxGeomIndexPair@physx@@@2@AEBVTriangleMesh@12@AEBV?$PxTransformT@M@2@AEBVPxMeshScale@2@123V?$PxFlags@W4Enum@PxMeshMeshQueryFlag@physx@@I@2@M@Z 0000000180127780 f   GuMidphaseBV4.obj
 0001:00127060       ?intersectOBB_BV4@Gu@physx@@YAXPEBVTetrahedronMesh@12@AEBVBox@12@AEAU?$TetMeshHitCallback@UPxGeomRaycastHit@physx@@@12@@Z 0000000180128060 f   GuMidphaseBV4.obj
 0001:00127080       ?findOverlapHeightField@PxMeshQuery@physx@@SAIAEBVPxGeometry@2@AEBV?$PxTransformT@M@2@AEBVPxHeightFieldGeometry@2@1PEAIIIAEA_NV?$PxFlags@W4Enum@PxGeometryQueryFlag@physx@@I@2@@Z 0000000180128080 f   GuMeshQuery.obj
 0001:001277d0       ?findOverlapTriangleMesh@PxMeshQuery@physx@@SAIAEBVPxGeometry@2@AEBV?$PxTransformT@M@2@AEBVPxTriangleMeshGeometry@2@1PEAIIIAEA_NV?$PxFlags@W4Enum@PxGeometryQueryFlag@physx@@I@2@@Z 00000001801287d0 f   GuMeshQuery.obj
 0001:00127b20       ?findOverlapTriangleMesh@PxMeshQuery@physx@@SA_NAEAV?$PxReportCallback@UPxGeomIndexClosePair@physx@@@2@AEBVPxTriangleMeshGeometry@2@AEBV?$PxTransformT@M@2@12V?$PxFlags@W4Enum@PxGeometryQueryFlag@physx@@I@2@V?$PxFlags@W4Enum@PxMeshMeshQueryFlag@physx@@I@2@M@Z 0000000180128b20 f   GuMeshQuery.obj
 0001:00127c50       ?findOverlapTriangleMesh@PxMeshQuery@physx@@SA_NAEAV?$PxReportCallback@UPxGeomIndexPair@physx@@@2@AEBVPxTriangleMeshGeometry@2@AEBV?$PxTransformT@M@2@12V?$PxFlags@W4Enum@PxGeometryQueryFlag@physx@@I@2@V?$PxFlags@W4Enum@PxMeshMeshQueryFlag@physx@@I@2@M@Z 0000000180128c50 f   GuMeshQuery.obj
 0001:00127d80       ?getTriangle@PxMeshQuery@physx@@SAXAEBVPxHeightFieldGeometry@2@AEBV?$PxTransformT@M@2@IAEAVPxTriangle@2@PEAI3@Z 0000000180128d80 f   GuMeshQuery.obj
 0001:00127e00       ?getTriangle@PxMeshQuery@physx@@SAXAEBVPxTriangleMeshGeometry@2@AEBV?$PxTransformT@M@2@IAEAVPxTriangle@2@PEAI3@Z 0000000180128e00 f   GuMeshQuery.obj
 0001:00128360       ?sweep@PxMeshQuery@physx@@SA_NAEBV?$PxVec3T@M@2@MAEBVPxGeometry@2@AEBV?$PxTransformT@M@2@IPEBVPxTriangle@2@AEAUPxGeomSweepHit@2@V?$PxFlags@W4Enum@PxHitFlag@physx@@G@2@PEBIM_NV?$PxFlags@W4Enum@PxGeometryQueryFlag@physx@@I@2@@Z 0000000180129360 f   GuMeshQuery.obj
 0001:001287c0       ?raycast_triangleMesh_RTREE@Gu@physx@@YAIPEBVTriangleMesh@12@AEBVPxTriangleMeshGeometry@2@AEBV?$PxTransformT@M@2@AEBV?$PxVec3T@M@2@3MV?$PxFlags@W4Enum@PxHitFlag@physx@@G@2@IPEIAUPxGeomRaycastHit@2@I@Z 00000001801297c0 f   GuMidphaseRTree.obj
 0001:00128f40       ?intersectSphereVsMesh_RTREE@Gu@physx@@YA_NAEBVSphere@12@AEBVTriangleMesh@12@AEBV?$PxTransformT@M@2@AEBVPxMeshScale@2@PEAULimitedResults@12@@Z 0000000180129f40 f   GuMidphaseRTree.obj
 0001:00128f70       ?intersectBoxVsMesh_RTREE@Gu@physx@@YA_NAEBVBox@12@AEBVTriangleMesh@12@AEBV?$PxTransformT@M@2@AEBVPxMeshScale@2@PEAULimitedResults@12@@Z 0000000180129f70 f   GuMidphaseRTree.obj
 0001:00128fe0       ?intersectCapsuleVsMesh_RTREE@Gu@physx@@YA_NAEBVCapsule@12@AEBVTriangleMesh@12@AEBV?$PxTransformT@M@2@AEBVPxMeshScale@2@PEAULimitedResults@12@@Z 0000000180129fe0 f   GuMidphaseRTree.obj
 0001:00129060       ?intersectOBB_RTREE@Gu@physx@@YAXPEBVTriangleMesh@12@AEBVBox@12@AEAU?$MeshHitCallback@UPxGeomRaycastHit@physx@@@12@_N3@Z 000000018012a060 f   GuMidphaseRTree.obj
 0001:00129090       ?sweepCapsule_MeshGeom_RTREE@Gu@physx@@YA_NPEBVTriangleMesh@12@AEBVPxTriangleMeshGeometry@2@AEBV?$PxTransformT@M@2@AEBVCapsule@12@AEBV?$PxVec3T@M@2@MAEAUPxGeomSweepHit@2@V?$PxFlags@W4Enum@PxHitFlag@physx@@G@2@M@Z 000000018012a090 f   GuMidphaseRTree.obj
 0001:00129840       ?sweepBox_MeshGeom_RTREE@Gu@physx@@YA_NPEBVTriangleMesh@12@AEBVPxTriangleMeshGeometry@2@AEBV?$PxTransformT@M@2@AEBVBox@12@AEBV?$PxVec3T@M@2@MAEAUPxGeomSweepHit@2@V?$PxFlags@W4Enum@PxHitFlag@physx@@G@2@M@Z 000000018012a840 f   GuMidphaseRTree.obj
 0001:0012ad20       ?sweepConvex_MeshGeom_RTREE@Gu@physx@@YAXPEBVTriangleMesh@12@AEBVBox@12@AEBV?$PxVec3T@M@2@MAEAUSweepConvexMeshHitCallback@12@_N@Z 000000018012bd20 f   GuMidphaseRTree.obj
 0001:0012ad70       ?pointMeshDistance_RTREE@Gu@physx@@YAXPEBVTriangleMesh@12@AEBVPxTriangleMeshGeometry@2@AEBV?$PxTransformT@M@2@AEBV?$PxVec3T@M@2@MAEAIAEAMAEAV62@@Z 000000018012bd70 f   GuMidphaseRTree.obj
 0001:0012adb0       ??$collide@$00$00@MeshRayCollider@@SAXAEBV?$PxVec3T@M@physx@@0M_NPEBVRTreeTriangleMesh@Gu@2@AEAU?$MeshHitCallback@UPxGeomRaycastHit@physx@@@42@PEBV12@@Z 000000018012bdb0 f i GuMidphaseRTree.obj
 0001:0012b120       ??$collide@$00$0A@@MeshRayCollider@@SAXAEBV?$PxVec3T@M@physx@@0M_NPEBVRTreeTriangleMesh@Gu@2@AEAU?$MeshHitCallback@UPxGeomRaycastHit@physx@@@42@PEBV12@@Z 000000018012c120 f i GuMidphaseRTree.obj
 0001:0012b360       ??$collide@$0A@$00@MeshRayCollider@@SAXAEBV?$PxVec3T@M@physx@@0M_NPEBVRTreeTriangleMesh@Gu@2@AEAU?$MeshHitCallback@UPxGeomRaycastHit@physx@@@42@PEBV12@@Z 000000018012c360 f i GuMidphaseRTree.obj
 0001:0012d6b0       ??0?$RayRTreeCallback@$00$0A@@@QEAA@MAEAU?$MeshHitCallback@UPxGeomRaycastHit@physx@@@Gu@physx@@HPEBXPEBV?$PxVec3T@M@3@AEBV43@3M_N2@Z 000000018012e6b0 f i GuMidphaseRTree.obj
 0001:0012d7d0       ??1?$RayRTreeCallback@$00$00@@UEAA@XZ 000000018012e7d0 f i GuMidphaseRTree.obj
 0001:0012d860       ??1?$RayRTreeCallback@$0A@$0A@@@UEAA@XZ 000000018012e860 f i GuMidphaseRTree.obj
 0001:0012d860       ??1?$RayRTreeCallback@$00$0A@@@UEAA@XZ 000000018012e860 f i GuMidphaseRTree.obj
 0001:0012d8f0       ??1?$RayRTreeCallback@$0A@$00@@UEAA@XZ 000000018012e8f0 f i GuMidphaseRTree.obj
 0001:0012d978       ??_E?$RayRTreeCallback@$00$00@@W7EAAPEAXI@Z 000000018012e978 f i GuMidphaseRTree.obj
 0001:0012d984       ??_E?$RayRTreeCallback@$00$0A@@@W7EAAPEAXI@Z 000000018012e984 f i GuMidphaseRTree.obj
 0001:0012d984       ??_E?$RayRTreeCallback@$0A@$0A@@@W7EAAPEAXI@Z 000000018012e984 f i GuMidphaseRTree.obj
 0001:0012d990       ??_E?$RayRTreeCallback@$0A@$00@@W7EAAPEAXI@Z 000000018012e990 f i GuMidphaseRTree.obj
 0001:0012da00       ??_G?$RayRTreeCallback@$00$00@@UEAAPEAXI@Z 000000018012ea00 f i GuMidphaseRTree.obj
 0001:0012da00       ??_E?$RayRTreeCallback@$00$00@@UEAAPEAXI@Z 000000018012ea00 f i GuMidphaseRTree.obj
 0001:0012da40       ??_E?$RayRTreeCallback@$0A@$0A@@@UEAAPEAXI@Z 000000018012ea40 f i GuMidphaseRTree.obj
 0001:0012da40       ??_G?$RayRTreeCallback@$00$0A@@@UEAAPEAXI@Z 000000018012ea40 f i GuMidphaseRTree.obj
 0001:0012da40       ??_E?$RayRTreeCallback@$00$0A@@@UEAAPEAXI@Z 000000018012ea40 f i GuMidphaseRTree.obj
 0001:0012da40       ??_G?$RayRTreeCallback@$0A@$0A@@@UEAAPEAXI@Z 000000018012ea40 f i GuMidphaseRTree.obj
 0001:0012da80       ??_G?$RayRTreeCallback@$0A@$00@@UEAAPEAXI@Z 000000018012ea80 f i GuMidphaseRTree.obj
 0001:0012da80       ??_E?$RayRTreeCallback@$0A@$00@@UEAAPEAXI@Z 000000018012ea80 f i GuMidphaseRTree.obj
 0001:0012dac0       ??_GCallback@RTree@Gu@physx@@UEAAPEAXI@Z 000000018012eac0 f i GuMidphaseRTree.obj
 0001:0012dac0       ??_ECallback@RTree@Gu@physx@@UEAAPEAXI@Z 000000018012eac0 f i GuMidphaseRTree.obj
 0001:0012daf0       ??_GRayMeshColliderCallback@@UEAAPEAXI@Z 000000018012eaf0 f i GuMidphaseRTree.obj
 0001:0012daf0       ??_GSweepCapsuleMeshHitCallback@Gu@physx@@UEAAPEAXI@Z 000000018012eaf0 f i GuSweepsMesh.obj
 0001:0012daf0       ??_ESweepCapsuleMeshHitCallback@Gu@physx@@UEAAPEAXI@Z 000000018012eaf0 f i GuSweepsMesh.obj
 0001:0012daf0       ??_ERayMeshColliderCallback@@UEAAPEAXI@Z 000000018012eaf0 f i GuMidphaseRTree.obj
 0001:0012db20       ?collideOBB@MeshRayCollider@@SAXAEBVBox@Gu@physx@@_NPEBVRTreeTriangleMesh@34@AEAU?$MeshHitCallback@UPxGeomRaycastHit@physx@@@34@1@Z 000000018012eb20 f   GuMidphaseRTree.obj
 0001:0012edb0       ?processHit@RayMeshColliderCallback@@UEAA_NAEBUPxGeomRaycastHit@physx@@AEBV?$PxVec3T@M@3@11AEAMPEBI@Z 000000018012fdb0 f i GuMidphaseRTree.obj
 0001:0012f560       ?processResults@?$RayRTreeCallback@$00$00@@UEAA_NIPEAI@Z 0000000180130560 f i GuMidphaseRTree.obj
 0001:0012f8d0       ?processResults@?$RayRTreeCallback@$00$00@@UEAA_NIPEAIAEAM@Z 00000001801308d0 f i GuMidphaseRTree.obj
 0001:0012fc40       ?processResults@?$RayRTreeCallback@$00$0A@@@UEAA_NIPEAI@Z 0000000180130c40 f i GuMidphaseRTree.obj
 0001:0012fc40       ?processResults@?$RayRTreeCallback@$0A@$0A@@@UEAA_NIPEAI@Z 0000000180130c40 f i GuMidphaseRTree.obj
 0001:0012feb0       ?processResults@?$RayRTreeCallback@$0A@$0A@@@UEAA_NIPEAIAEAM@Z 0000000180130eb0 f i GuMidphaseRTree.obj
 0001:0012feb0       ?processResults@?$RayRTreeCallback@$00$0A@@@UEAA_NIPEAIAEAM@Z 0000000180130eb0 f i GuMidphaseRTree.obj
 0001:00130120       ?processResults@?$RayRTreeCallback@$0A@$00@@UEAA_NIPEAI@Z 0000000180131120 f i GuMidphaseRTree.obj
 0001:00130750       ?processResults@?$RayRTreeCallback@$0A@$00@@UEAA_NIPEAIAEAM@Z 0000000180131750 f i GuMidphaseRTree.obj
 0001:00131790       ??_EPxReportCallbackBase@physx@@UEAAPEAXI@Z 0000000180132790 f i GuOverlapTestsMesh.obj
 0001:00131790       ??_GPxReportCallbackBase@physx@@UEAAPEAXI@Z 0000000180132790 f i GuOverlapTestsMesh.obj
 0001:001317c0       ?GeomOverlapCallback_BoxMesh@@YA_NAEBVPxGeometry@physx@@AEBV?$PxTransformT@M@2@01PEAUTriggerCache@Gu@2@PEAUPxQueryThreadContext@2@@Z 00000001801327c0 f   GuOverlapTestsMesh.obj
 0001:001318d0       ?GeomOverlapCallback_CapsuleMesh@@YA_NAEBVPxGeometry@physx@@AEBV?$PxTransformT@M@2@01PEAUTriggerCache@Gu@2@PEAUPxQueryThreadContext@2@@Z 00000001801328d0 f   GuOverlapTestsMesh.obj
 0001:001319e0       ?GeomOverlapCallback_ConvexCoreMesh@@YA_NAEBVPxGeometry@physx@@AEBV?$PxTransformT@M@2@01PEAUTriggerCache@Gu@2@PEAUPxQueryThreadContext@2@@Z 00000001801329e0 f   GuOverlapTestsMesh.obj
 0001:00131ff0       ?GeomOverlapCallback_ConvexMesh@@YA_NAEBVPxGeometry@physx@@AEBV?$PxTransformT@M@2@01PEAUTriggerCache@Gu@2@PEAUPxQueryThreadContext@2@@Z 0000000180132ff0 f   GuOverlapTestsMesh.obj
 0001:001324f0       ?GeomOverlapCallback_MeshMesh@@YA_NAEBVPxGeometry@physx@@AEBV?$PxTransformT@M@2@01PEAUTriggerCache@Gu@2@PEAUPxQueryThreadContext@2@@Z 00000001801334f0 f   GuOverlapTestsMesh.obj
 0001:001325c0       ?GeomOverlapCallback_SphereMesh@@YA_NAEBVPxGeometry@physx@@AEBV?$PxTransformT@M@2@01PEAUTriggerCache@Gu@2@PEAUPxQueryThreadContext@2@@Z 00000001801335c0 f   GuOverlapTestsMesh.obj
 0001:00132af0       ??0RTree@Gu@physx@@QEAA@W4PxEMPTY@2@@Z 0000000180133af0 f   GuRTree.obj
 0001:00132b00       ?exportExtraData@RTree@Gu@physx@@QEAAXAEAVPxSerializationContext@3@@Z 0000000180133b00 f   GuRTree.obj
 0001:00132b40       ?importExtraData@RTree@Gu@physx@@QEAAXAEAVPxDeserializationContext@3@@Z 0000000180133b40 f   GuRTree.obj
 0001:00132b70       ?load@RTree@Gu@physx@@QEAA_NAEAVPxInputStream@3@I_N@Z 0000000180133b70 f   GuRTree.obj
 0001:00132e90       ?refitAllStaticTree@RTree@Gu@physx@@QEAAXAEAUCallbackRefit@123@PEAVPxBounds3@3@@Z 0000000180133e90 f   GuRTree.obj
 0001:001333f0       ?validate@RTree@Gu@physx@@QEAAXPEAUCallbackRefit@123@@Z 00000001801343f0 f   GuRTree.obj
 0001:00133550       ?validateRecursive@RTree@Gu@physx@@IEAAXIURTreeNodeQ@23@PEAURTreePage@23@PEAUCallbackRefit@123@@Z 0000000180134550 f   GuRTree.obj
 0001:00133680       ??$traverseRay@$00@RTree@Gu@physx@@QEBAXAEBV?$PxVec3T@M@2@0IPEAIPEAUCallbackRaycast@012@PEBV32@M@Z 0000000180134680 f i GuRTreeQueries.obj
 0001:00133a20       ??$traverseRay@$0A@@RTree@Gu@physx@@QEBAXAEBV?$PxVec3T@M@2@0IPEAIPEAUCallbackRaycast@012@PEBV32@M@Z 0000000180134a20 f i GuRTreeQueries.obj
 0001:00133d70       ?traverseAABB@RTree@Gu@physx@@QEBAXAEBV?$PxVec3T@M@3@0IPEAIPEAUCallback@123@@Z 0000000180134d70 f   GuRTreeQueries.obj
 0001:00133f30       ?traverseOBB@RTree@Gu@physx@@QEBAXAEBVBox@23@IPEAIPEAUCallback@123@@Z 0000000180134f30 f   GuRTreeQueries.obj
 0001:00134810       ??0SweepBoxMeshHitCallback@Gu@physx@@QEAA@W4Enum@CallbackMode@12@AEBVPxMat34Padded@2@M_NAEBVBox@12@AEBV?$PxVec3T@M@2@44AEBV?$PxFlags@W4Enum@PxHitFlag@physx@@G@2@M2M@Z 0000000180135810 f   GuSweepsMesh.obj
 0001:00134920       ??0SweepCapsuleMeshHitCallback@Gu@physx@@QEAA@AEAUPxGeomSweepHit@2@AEBV?$PxMat34T@M@2@M_NAEBVCapsule@12@AEBV?$PxVec3T@M@2@AEBV?$PxFlags@W4Enum@PxHitFlag@physx@@G@2@2M@Z 0000000180135920 f   GuSweepsMesh.obj
 0001:001349f0       ??0SweepConvexMeshHitCallback@Gu@physx@@QEAA@AEBUConvexHullData@12@AEBVPxMeshScale@2@AEBVFastVertex2ShapeScaling@Cm@2@AEBV?$PxTransformT@M@2@3AEBV?$PxVec3T@M@2@MV?$PxFlags@W4Enum@PxHitFlag@physx@@G@2@_NM6M@Z 00000001801359f0 f   GuSweepsMesh.obj
 0001:00135340       ??_GSweepBoxMeshHitCallback@Gu@physx@@UEAAPEAXI@Z 0000000180136340 f i GuSweepsMesh.obj
 0001:00135340       ??_ESweepBoxMeshHitCallback@Gu@physx@@UEAAPEAXI@Z 0000000180136340 f i GuSweepsMesh.obj
 0001:00135370       ??_ESweepConvexMeshHitCallback@Gu@physx@@UEAAPEAXI@Z 0000000180136370 f i GuSweepsMesh.obj
 0001:00135370       ??_GSweepConvexMeshHitCallback@Gu@physx@@UEAAPEAXI@Z 0000000180136370 f i GuSweepsMesh.obj
 0001:001353a0       ??_GSweepShapeMeshHitCallback@Gu@physx@@UEAAPEAXI@Z 00000001801363a0 f i GuSweepsMesh.obj
 0001:001353a0       ??_ESweepShapeMeshHitCallback@Gu@physx@@UEAAPEAXI@Z 00000001801363a0 f i GuSweepsMesh.obj
 0001:001353d0       ?finalizeHit@SweepBoxMeshHitCallback@Gu@physx@@QEBA_NAEAUPxGeomSweepHit@3@AEBVPxTriangleMeshGeometry@3@AEBV?$PxTransformT@M@3@2AEBV?$PxVec3T@M@3@_N4@Z 00000001801363d0 f   GuSweepsMesh.obj
 0001:00135a90       ?finalizeHit@SweepCapsuleMeshHitCallback@Gu@physx@@QEBA_NAEAUPxGeomSweepHit@3@AEBVCapsule@23@AEBVPxTriangleMeshGeometry@3@AEBV?$PxTransformT@M@3@_N@Z 0000000180136a90 f   GuSweepsMesh.obj
 0001:00135c40       ?finalizeHit@SweepConvexMeshHitCallback@Gu@physx@@QEAA_NAEAUPxGeomSweepHit@3@AEBVPxTriangleMeshGeometry@3@AEBV?$PxTransformT@M@3@AEBVPxConvexMeshGeometry@3@2AEBV?$PxVec3T@M@3@M_N555@Z 0000000180136c40 f   GuSweepsMesh.obj
 0001:00136120       ?processHit@SweepBoxMeshHitCallback@Gu@physx@@UEAA_NAEBUPxGeomRaycastHit@3@AEBV?$PxVec3T@M@3@11AEAMPEBI@Z 0000000180137120 f   GuSweepsMesh.obj
 0001:00136920       ?processHit@SweepCapsuleMeshHitCallback@Gu@physx@@UEAA_NAEBUPxGeomRaycastHit@3@AEBV?$PxVec3T@M@3@11AEAMPEBI@Z 0000000180137920 f   GuSweepsMesh.obj
 0001:00136e80       ?processHit@SweepConvexMeshHitCallback@Gu@physx@@UEAA_NAEBUPxGeomRaycastHit@3@AEBV?$PxVec3T@M@3@11AEAMPEBI@Z 0000000180137e80 f   GuSweepsMesh.obj
 0001:001375c0       ?sweepBox_MeshGeom@@YA_NAEBVPxGeometry@physx@@AEBV?$PxTransformT@M@2@AEBVPxBoxGeometry@2@1AEBVBox@Gu@2@AEBV?$PxVec3T@M@2@MAEAUPxGeomSweepHit@2@V?$PxFlags@W4Enum@PxHitFlag@physx@@G@2@MPEAUPxQueryThreadContext@2@@Z 00000001801385c0 f   GuSweepsMesh.obj
 0001:00137650       ?sweepCapsule_MeshGeom@@YA_NAEBVPxGeometry@physx@@AEBV?$PxTransformT@M@2@AEBVPxCapsuleGeometry@2@1AEBVCapsule@Gu@2@AEBV?$PxVec3T@M@2@MAEAUPxGeomSweepHit@2@V?$PxFlags@W4Enum@PxHitFlag@physx@@G@2@MPEAUPxQueryThreadContext@2@@Z 0000000180138650 f   GuSweepsMesh.obj
 0001:001376e0       ?sweepConvex_MeshGeom@@YA_NAEBVPxGeometry@physx@@AEBV?$PxTransformT@M@2@AEBVPxConvexMeshGeometry@2@1AEBV?$PxVec3T@M@2@MAEAUPxGeomSweepHit@2@V?$PxFlags@W4Enum@PxHitFlag@physx@@G@2@MPEAUPxQueryThreadContext@2@@Z 00000001801386e0 f   GuSweepsMesh.obj
 0001:00138220       ??0TriangleMesh@Gu@physx@@QEAA@AEBUPxTriangleMeshInternalData@2@@Z 0000000180139220 f   GuTriangleMesh.obj
 0001:00138300       ??0TriangleMesh@Gu@physx@@QEAA@PEAVMeshFactory@12@AEAVTriangleMeshData@12@@Z 0000000180139300 f   GuTriangleMesh.obj
 0001:00138680       ??1TriangleMesh@Gu@physx@@UEAA@XZ 0000000180139680 f   GuTriangleMesh.obj
 0001:001388f0       ??_ETriangleMesh@Gu@physx@@UEAAPEAXI@Z 00000001801398f0 f i GuTriangleMesh.obj
 0001:001388f0       ??_GTriangleMesh@Gu@physx@@UEAAPEAXI@Z 00000001801398f0 f i GuTriangleMesh.obj
 0001:00138960       ?exportExtraData@TriangleMesh@Gu@physx@@UEAAXAEAVPxSerializationContext@3@@Z 0000000180139960 f   GuTriangleMesh.obj
 0001:00138bc0       ?getLocalBounds@TriangleMesh@Gu@physx@@UEBA?AVPxBounds3@3@XZ 0000000180139bc0 f i GuTriangleMesh.obj
 0001:00138c50       ?getMassInformation@TriangleMesh@Gu@physx@@UEBAXAEAMAEAV?$PxMat33T@M@3@AEAV?$PxVec3T@M@3@@Z 0000000180139c50 f i GuTriangleMesh.obj
 0001:00138cd0       ?getNbTriangles@TriangleMesh@Gu@physx@@UEBAIXZ 0000000180139cd0 f i GuTriangleMesh.obj
 0001:00138ce0       ?getPreferSDFProjection@TriangleMesh@Gu@physx@@UEBA_NXZ 0000000180139ce0 f i GuTriangleMesh.obj
 0001:00138cf0       ?getSDF@TriangleMesh@Gu@physx@@UEBAPEBMXZ 0000000180139cf0 f i GuTriangleMesh.obj
 0001:00138d00       ?getSDFDimensions@TriangleMesh@Gu@physx@@UEBAXAEAI00@Z 0000000180139d00 f i GuTriangleMesh.obj
 0001:00138d30       ?getTriangleMaterialIndex@TriangleMesh@Gu@physx@@UEBAGI@Z 0000000180139d30 f i GuTriangleMesh.obj
 0001:00138d50       ?getTriangleMeshFlags@TriangleMesh@Gu@physx@@UEBA?AV?$PxFlags@W4Enum@PxTriangleMeshFlag@physx@@E@3@XZ 0000000180139d50 f i GuTriangleMesh.obj
 0001:00138d60       ?getTrianglesRemap@TriangleMesh@Gu@physx@@UEBAPEBIXZ 0000000180139d60 f i GuTriangleMesh.obj
 0001:00138d70       ?getVerticesForModification@TriangleMesh@Gu@physx@@UEAAPEAV?$PxVec3T@M@3@XZ 0000000180139d70 f   GuTriangleMesh.obj
 0001:00138db0       ?importExtraData@TriangleMesh@Gu@physx@@QEAAXAEAVPxDeserializationContext@3@@Z 0000000180139db0 f   GuTriangleMesh.obj
 0001:00138fb0       ?isKindOf@PxTriangleMesh@physx@@MEBA_NPEBD@Z 0000000180139fb0 f i GuTriangleMesh.obj
 0001:00139040       ?onRefCountZero@TriangleMesh@Gu@physx@@UEAAXXZ 000000018013a040 f   GuTriangleMesh.obj
 0001:00139110       ?refitBVH@TriangleMesh@Gu@physx@@UEAA?AVPxBounds3@3@XZ 000000018013a110 f   GuTriangleMesh.obj
 0001:001391e0       ?requestEdgeList@TriangleMesh@Gu@physx@@QEBAPEBVEdgeList@23@XZ 000000018013a1e0 f   GuTriangleMesh.obj
 0001:001392c0       ?setAllEdgesActive@TriangleMesh@Gu@physx@@QEAAXXZ 000000018013a2c0 f   GuTriangleMesh.obj
 0001:001393b0       ?setPreferSDFProjection@TriangleMesh@Gu@physx@@UEAAX_N@Z 000000018013a3b0 f i GuTriangleMesh.obj
 0001:001393e0       ??0BV4TriangleMesh@Gu@physx@@QEAA@AEBUPxTriangleMeshInternalData@2@@Z 000000018013a3e0 f   GuTriangleMeshBV4.obj
 0001:00139550       ??0BV4TriangleMesh@Gu@physx@@QEAA@PEAVMeshFactory@12@AEAVTriangleMeshData@12@@Z 000000018013a550 f   GuTriangleMeshBV4.obj
 0001:001395e0       ??_EBV4TriangleMesh@Gu@physx@@UEAAPEAXI@Z 000000018013a5e0 f i GuTriangleMeshBV4.obj
 0001:001395e0       ??_GBV4TriangleMesh@Gu@physx@@UEAAPEAXI@Z 000000018013a5e0 f i GuTriangleMeshBV4.obj
 0001:00139670       ?createObject@BV4TriangleMesh@Gu@physx@@SAPEAVTriangleMesh@23@AEAPEAEAEAVPxDeserializationContext@3@@Z 000000018013a670 f   GuTriangleMeshBV4.obj
 0001:00139760       ?exportExtraData@BV4TriangleMesh@Gu@physx@@UEAAXAEAVPxSerializationContext@3@@Z 000000018013a760 f   GuTriangleMeshBV4.obj
 0001:001397a0       ?getConcreteTypeName@BV4TriangleMesh@Gu@physx@@UEBAPEBDXZ 000000018013a7a0 f i GuTriangleMeshBV4.obj
 0001:001397b0       ?getInternalData@BV4TriangleMesh@Gu@physx@@UEBA_NAEAUPxTriangleMeshInternalData@3@_N@Z 000000018013a7b0 f   GuTriangleMeshBV4.obj
 0001:001398a0       ?getMidphaseID@BV4TriangleMesh@Gu@physx@@UEBA?AW4Enum@PxMeshMidPhase@3@XZ 000000018013a8a0 f i GuTriangleMeshBV4.obj
 0001:001398a0       ?length@charNode@@UEBAHXZ  000000018013a8a0 f i libvcruntime:undname.obj
 0001:001398a0       DllMain                    000000018013a8a0 f i LIBCMT:dll_dllmain_stub.obj
 0001:001398a0       _get_startup_argv_mode     000000018013a8a0 f i LIBCMT:argv_mode.obj
 0001:001398a0       ?raw_length@charNode@@UEBAHXZ 000000018013a8a0 f i libvcruntime:undname.obj
 0001:001398a0       ?getMidphaseID@BV4TriangleMeshBuilder@physx@@UEBA?AW4Enum@PxMeshMidPhase@2@XZ 000000018013a8a0 f i GuCookingTriangleMesh.obj
 0001:001398b0       ?getVerticesForModification@RTreeTriangleMesh@Gu@physx@@UEAAPEAV?$PxVec3T@M@3@XZ 000000018013a8b0 f   GuTriangleMeshRTree.obj
 0001:001398b0       ?getVerticesForModification@BV4TriangleMesh@Gu@physx@@UEAAPEAV?$PxVec3T@M@3@XZ 000000018013a8b0 f   GuTriangleMeshBV4.obj
 0001:001398c0       ?refitBVH@BV4TriangleMesh@Gu@physx@@UEAA?AVPxBounds3@3@XZ 000000018013a8c0 f   GuTriangleMeshBV4.obj
 0001:00139a30       PxGetTriangleMeshInternalData 000000018013aa30 f   GuTriangleMeshBV4.obj
 0001:00139a50       ??0RTreeTriangleMesh@Gu@physx@@QEAA@PEAVMeshFactory@12@AEAVTriangleMeshData@12@@Z 000000018013aa50 f   GuTriangleMeshRTree.obj
 0001:00139bc0       ??_G?$RefitCallback@G@physx@@UEAAPEAXI@Z 000000018013abc0 f i GuTriangleMeshRTree.obj
 0001:00139bc0       ??_E?$RefitCallback@G@physx@@UEAAPEAXI@Z 000000018013abc0 f i GuTriangleMeshRTree.obj
 0001:00139bc0       ??_G?$RefitCallback@I@physx@@UEAAPEAXI@Z 000000018013abc0 f i GuTriangleMeshRTree.obj
 0001:00139bc0       ??_E?$RefitCallback@I@physx@@UEAAPEAXI@Z 000000018013abc0 f i GuTriangleMeshRTree.obj
 0001:00139bf0       ??_ERTreeTriangleMesh@Gu@physx@@UEAAPEAXI@Z 000000018013abf0 f i GuTriangleMeshRTree.obj
 0001:00139bf0       ??_GRTreeTriangleMesh@Gu@physx@@UEAAPEAXI@Z 000000018013abf0 f i GuTriangleMeshRTree.obj
 0001:00139ca0       ?createObject@RTreeTriangleMesh@Gu@physx@@SAPEAVTriangleMesh@23@AEAPEAEAEAVPxDeserializationContext@3@@Z 000000018013aca0 f   GuTriangleMeshRTree.obj
 0001:00139d30       ?exportExtraData@RTreeTriangleMesh@Gu@physx@@UEAAXAEAVPxSerializationContext@3@@Z 000000018013ad30 f   GuTriangleMeshRTree.obj
 0001:00139d70       ?getConcreteTypeName@RTreeTriangleMesh@Gu@physx@@UEBAPEBDXZ 000000018013ad70 f i GuTriangleMeshRTree.obj
 0001:00139d80       ?recomputeBounds@?$RefitCallback@G@physx@@UEAAXIAEAT__m128@@0@Z 000000018013ad80 f i GuTriangleMeshRTree.obj
 0001:0013a0b0       ?recomputeBounds@?$RefitCallback@I@physx@@UEAAXIAEAT__m128@@0@Z 000000018013b0b0 f i GuTriangleMeshRTree.obj
 0001:0013a3d0       ?refitBVH@RTreeTriangleMesh@Gu@physx@@UEAA?AVPxBounds3@3@XZ 000000018013b3d0 f   GuTriangleMeshRTree.obj
 0001:0013a4f0       ??0BV32Tree@Gu@physx@@QEAA@W4PxEMPTY@2@@Z 000000018013b4f0 f   GuBV32.obj
 0001:0013a510       ??0BV32Tree@Gu@physx@@QEAA@XZ 000000018013b510 f   GuBV32.obj
 0001:0013a540       ??1BV32Tree@Gu@physx@@QEAA@XZ 000000018013b540 f   GuBV32.obj
 0001:0013a550       ?createSOAformatNode@BV32Tree@Gu@physx@@QEAAXAEAUBV32DataPacked@23@AEBUBV32Data@23@IAEAI2@Z 000000018013b550 f   GuBV32.obj
 0001:0013a9b0       ?exportExtraData@BV32Tree@Gu@physx@@QEAAXAEAVPxSerializationContext@3@@Z 000000018013b9b0 f   GuBV32.obj
 0001:0013a9f0       ?importExtraData@BV32Tree@Gu@physx@@QEAAXAEAVPxDeserializationContext@3@@Z 000000018013b9f0 f   GuBV32.obj
 0001:0013aa20       ?load@BV32Tree@Gu@physx@@QEAA_NAEAVPxInputStream@3@_N@Z 000000018013ba20 f   GuBV32.obj
 0001:0013ad70       ?release@BV32Tree@Gu@physx@@QEAAXXZ 000000018013bd70 f   GuBV32.obj
 0001:0013ae30       ??0BV32Node@@QEAA@XZ       000000018013be30 f i GuBV32Build.obj
 0001:0013b2b0       ?BuildBV32Ex@Gu@physx@@YA_NAEAVBV32Tree@12@AEAVSourceMeshBase@12@MI@Z 000000018013c2b0 f   GuBV32Build.obj
 0001:0013c2c0       ??0BVTetrahedronMesh@Gu@physx@@QEAA@AEAVTetrahedronMeshData@12@AEAVDeformableVolumeCollisionData@12@PEAVMeshFactory@12@@Z 000000018013d2c0 f   GuTetrahedronMesh.obj
 0001:0013c520       ??0DeformableVolumeMesh@Gu@physx@@QEAA@PEAVMeshFactory@12@AEAVDeformableVolumeMeshData@12@@Z 000000018013d520 f   GuTetrahedronMesh.obj
 0001:0013c8c0       ??0TetrahedronMesh@Gu@physx@@QEAA@PEAVMeshFactory@12@AEAVTetrahedronMeshData@12@@Z 000000018013d8c0 f   GuTetrahedronMesh.obj
 0001:0013c9b0       ??1DeformableVolumeAuxData@Gu@physx@@UEAA@XZ 000000018013d9b0 f   GuTetrahedronMesh.obj
 0001:0013cc30       ??1TetrahedronMesh@Gu@physx@@UEAA@XZ 000000018013dc30 f   GuTetrahedronMesh.obj
 0001:0013ccd0       ??_GBVTetrahedronMesh@Gu@physx@@UEAAPEAXI@Z 000000018013dcd0 f i GuTetrahedronMesh.obj
 0001:0013ccd0       ??_EBVTetrahedronMesh@Gu@physx@@UEAAPEAXI@Z 000000018013dcd0 f i GuTetrahedronMesh.obj
 0001:0013ce50       ??_EDeformableVolumeAuxData@Gu@physx@@UEAAPEAXI@Z 000000018013de50 f i GuTetrahedronMesh.obj
 0001:0013ce50       ??_GDeformableVolumeAuxData@Gu@physx@@UEAAPEAXI@Z 000000018013de50 f i GuTetrahedronMesh.obj
 0001:0013cec0       ??_EDeformableVolumeMesh@Gu@physx@@UEAAPEAXI@Z 000000018013dec0 f i GuTetrahedronMesh.obj
 0001:0013cec0       ??_GDeformableVolumeMesh@Gu@physx@@UEAAPEAXI@Z 000000018013dec0 f i GuTetrahedronMesh.obj
 0001:0013cf90       ??_ETetrahedronMesh@Gu@physx@@UEAAPEAXI@Z 000000018013df90 f i GuTetrahedronMesh.obj
 0001:0013cf90       ??_GTetrahedronMesh@Gu@physx@@UEAAPEAXI@Z 000000018013df90 f i GuTetrahedronMesh.obj
 0001:0013d000       ?exportExtraData@DeformableVolumeMesh@Gu@physx@@UEAAXAEAVPxSerializationContext@3@@Z 000000018013e000 f   GuTetrahedronMesh.obj
 0001:0013d0f0       ?getConcreteTypeName@DeformableVolumeAuxData@Gu@physx@@UEBAPEBDXZ 000000018013e0f0 f i GuTetrahedronMesh.obj
 0001:0013d100       ?getConcreteTypeName@DeformableVolumeMesh@Gu@physx@@UEBAPEBDXZ 000000018013e100 f i GuTetrahedronMesh.obj
 0001:0013d110       ?getConcreteTypeName@TetrahedronMesh@Gu@physx@@UEBAPEBDXZ 000000018013e110 f i GuTetrahedronMesh.obj
 0001:0013d120       ?getLocalBounds@TetrahedronMesh@Gu@physx@@UEBA?AVPxBounds3@3@XZ 000000018013e120 f i GuTetrahedronMesh.obj
 0001:0013d1b0       ?getNbTetrahedrons@TetrahedronMesh@Gu@physx@@UEBAIXZ 000000018013e1b0 f i GuTetrahedronMesh.obj
 0001:0013d1c0       ?getBounds@BVH@Gu@physx@@UEBAPEBVPxBounds3@3@XZ 000000018013e1c0 f i GuBVH.obj
 0001:0013d1c0       ?getTetrahedraRemap@BVTetrahedronMesh@Gu@physx@@UEBAPEBIXZ 000000018013e1c0 f i GuTetrahedronMesh.obj
 0001:0013d1d0       ?getTetrahedronMeshFlags@TetrahedronMesh@Gu@physx@@UEBA?AV?$PxFlags@W4Enum@PxTetrahedronMeshFlag@physx@@E@3@XZ 000000018013e1d0 f i GuTetrahedronMesh.obj
 0001:0013d1e0       ?getTetrahedrons@TetrahedronMesh@Gu@physx@@UEBAPEBXXZ 000000018013e1e0 f i GuTetrahedronMesh.obj
 0001:0013d1f0       ?isKindOf@PxDeformableVolumeAuxData@physx@@MEBA_NPEBD@Z 000000018013e1f0 f i GuTetrahedronMesh.obj
 0001:0013d280       ?isKindOf@PxDeformableVolumeMesh@physx@@MEBA_NPEBD@Z 000000018013e280 f i GuTetrahedronMesh.obj
 0001:0013d310       ?isKindOf@PxTetrahedronMesh@physx@@MEBA_NPEBD@Z 000000018013e310 f i GuTetrahedronMesh.obj
 0001:0013d3a0       ?onRefCountZero@DeformableVolumeAuxData@Gu@physx@@UEAAXXZ 000000018013e3a0 f i GuTetrahedronMesh.obj
 0001:0013d3a0       ?release@SimulationTetrahedronMeshData@Gu@physx@@UEAAXXZ 000000018013e3a0 f i GuCookingTetrahedronMesh.obj
 0001:0013d3c0       ?onRefCountZero@DeformableVolumeMesh@Gu@physx@@UEAAXXZ 000000018013e3c0 f   GuTetrahedronMesh.obj
 0001:0013d460       ?onRefCountZero@TetrahedronMesh@Gu@physx@@UEAAXXZ 000000018013e460 f   GuTetrahedronMesh.obj
 0001:0013d500       ?PxComputeBarycentric@physx@@YAXAEBV?$PxVec3T@M@1@0000AEAV?$PxVec4T@M@1@@Z 000000018013e500 f i GuTetrahedronMeshUtils.obj
 0001:0013d7b0       ?addAxisToSimMeshBarycentric@Gu@physx@@YA?AV?$PxVec4T@M@2@AEBVPxTetrahedronMesh@2@IAEBV32@AEBV?$PxVec3T@M@2@@Z 000000018013e7b0 f   GuTetrahedronMeshUtils.obj
 0001:0013da70       ?closestPtPointTetrahedron@Gu@physx@@YA?AV?$PxVec3T@M@2@AEBV32@0000@Z 000000018013ea70 f i GuTetrahedronMeshUtils.obj
 0001:0013eba0       ?convertDeformableVolumeCollisionToSimMeshTets@Gu@physx@@YAXAEBVPxTetrahedronMesh@2@AEBVDeformableVolumeAuxData@12@AEBVBVTetrahedronMesh@12@IAEBV?$PxVec4T@M@2@AEAIAEAV62@_N@Z 000000018013fba0 f   GuTetrahedronMeshUtils.obj
 0001:00141610       ?pcmContactBoxBox@Gu@physx@@YA_NAEBVPxGeometry@2@0AEBUPxTransformPadded@2@1AEBUNarrowPhaseParams@12@AEAUCache@12@AEAVPxContactBuffer@2@PEAVPxRenderOutput@2@@Z 0000000180142610 f   GuPCMContactBoxBox.obj
 0001:001424c0       ??$gjkPenetration@U?$RelativeConvex@VBoxV@Gu@physx@@@Gu@physx@@U?$LocalConvex@VConvexHullNoScaleV@Gu@physx@@@23@@Gu@physx@@YA?AW4GjkStatus@01@AEBU?$RelativeConvex@VBoxV@Gu@physx@@@01@AEBU?$LocalConvex@VConvexHullNoScaleV@Gu@physx@@@01@AEBT__m128@@2_NPEIAE4AEAEAEAUGjkOutput@01@@Z 00000001801434c0 f i GuPCMContactBoxConvex.obj
 0001:00142530       ??$gjkPenetration@U?$RelativeConvex@VBoxV@Gu@physx@@@Gu@physx@@U?$LocalConvex@VConvexHullNoScaleV@Gu@physx@@@23@@Gu@physx@@YA?AW4GjkStatus@01@AEBU?$RelativeConvex@VBoxV@Gu@physx@@@01@AEBU?$LocalConvex@VConvexHullNoScaleV@Gu@physx@@@01@AEBT__m128@@2_NPEIAE4PEIAT5@5AEAEAEAUGjkOutput@01@@Z 0000000180143530 f i GuPCMContactBoxConvex.obj
 0001:001440d0       ?pcmContactBoxConvex@Gu@physx@@YA_NAEBVPxGeometry@2@0AEBUPxTransformPadded@2@1AEBUNarrowPhaseParams@12@AEAUCache@12@AEAVPxContactBuffer@2@PEAVPxRenderOutput@2@@Z 00000001801450d0 f   GuPCMContactBoxConvex.obj
 0001:00144f00       ?support@?$LocalConvex@VConvexHullNoScaleV@Gu@physx@@@Gu@physx@@UEBA?AT__m128@@AEBT4@@Z 0000000180145f00 f i GuPCMContactBoxConvex.obj
 0001:00144f50       ?support@?$LocalConvex@VConvexHullNoScaleV@Gu@physx@@@Gu@physx@@UEBA?AT__m128@@AEBT4@AEAH@Z 0000000180145f50 f i GuPCMContactBoxConvex.obj
 0001:00144fb0       ?supportPoint@?$LocalConvex@VConvexHullNoScaleV@Gu@physx@@@Gu@physx@@UEBA?AT__m128@@H@Z 0000000180145fb0 f i GuPCMContactBoxConvex.obj
 0001:00144fe0       ?pcmContactCapsuleBox@Gu@physx@@YA_NAEBVPxGeometry@2@0AEBUPxTransformPadded@2@1AEBUNarrowPhaseParams@12@AEAUCache@12@AEAVPxContactBuffer@2@PEAVPxRenderOutput@2@@Z 0000000180145fe0 f   GuPCMContactCapsuleBox.obj
 0001:00145f00       ?pcmContactCapsuleCapsule@Gu@physx@@YA_NAEBVPxGeometry@2@0AEBUPxTransformPadded@2@1AEBUNarrowPhaseParams@12@AEAUCache@12@AEAVPxContactBuffer@2@PEAVPxRenderOutput@2@@Z 0000000180146f00 f   GuPCMContactCapsuleCapsule.obj
 0001:001466a0       ??$gjkPenetration@U?$LocalConvex@VCapsuleV@Gu@physx@@@Gu@physx@@U?$LocalConvex@VConvexHullNoScaleV@Gu@physx@@@23@@Gu@physx@@YA?AW4GjkStatus@01@AEBU?$LocalConvex@VCapsuleV@Gu@physx@@@01@AEBU?$LocalConvex@VConvexHullNoScaleV@Gu@physx@@@01@AEBT__m128@@2_NPEIAE4AEAEAEAUGjkOutput@01@@Z 00000001801476a0 f i GuPCMContactCapsuleConvex.obj
 0001:00146710       ??$gjkPenetration@U?$LocalConvex@VCapsuleV@Gu@physx@@@Gu@physx@@U?$LocalConvex@VConvexHullNoScaleV@Gu@physx@@@23@@Gu@physx@@YA?AW4GjkStatus@01@AEBU?$LocalConvex@VCapsuleV@Gu@physx@@@01@AEBU?$LocalConvex@VConvexHullNoScaleV@Gu@physx@@@01@AEBT__m128@@2_NPEIAE4PEIAT5@5AEAEAEAUGjkOutput@01@@Z 0000000180147710 f i GuPCMContactCapsuleConvex.obj
 0001:00147de0       ?pcmContactCapsuleConvex@Gu@physx@@YA_NAEBVPxGeometry@2@0AEBUPxTransformPadded@2@1AEBUNarrowPhaseParams@12@AEAUCache@12@AEAVPxContactBuffer@2@PEAVPxRenderOutput@2@@Z 0000000180148de0 f   GuPCMContactCapsuleConvex.obj
 0001:00148fc0       ??_EPCMCapsuleVsHeightfieldContactGenerationCallback@@UEAAPEAXI@Z 0000000180149fc0 f i GuPCMContactCapsuleHeightField.obj
 0001:00148fc0       ??_GPCMCapsuleVsHeightfieldContactGenerationCallback@@UEAAPEAXI@Z 0000000180149fc0 f i GuPCMContactCapsuleHeightField.obj
 0001:00148ff0       ?pcmContactCapsuleHeightField@Gu@physx@@YA_NAEBVPxGeometry@2@0AEBUPxTransformPadded@2@1AEBUNarrowPhaseParams@12@AEAUCache@12@AEAVPxContactBuffer@2@PEAVPxRenderOutput@2@@Z 0000000180149ff0 f   GuPCMContactCapsuleHeightField.obj
 0001:00149ef0       ?reportTouchedTris@?$PCMHeightfieldContactGenerationCallback@UPCMCapsuleVsHeightfieldContactGenerationCallback@@@Gu@physx@@UEAA_NIPEBI@Z 000000018014aef0 f i GuPCMContactCapsuleHeightField.obj
 0001:0014a570       ?generateContacts@PCMCapsuleVsMeshContactGeneration@Gu@physx@@SAXAEBT__m128@@0000I000PEAVMeshPersistentContact@23@AEAI@Z 000000018014b570 f   GuPCMContactCapsuleMesh.obj
 0001:0014a9f0       ?generateEE@PCMCapsuleVsMeshContactGeneration@Gu@physx@@QEAAXAEBT__m128@@000I00PEAVMeshPersistentContact@23@AEAI@Z 000000018014b9f0 f   GuPCMContactCapsuleMesh.obj
 0001:0014ac60       ?generateEEMTD@PCMCapsuleVsMeshContactGeneration@Gu@physx@@SAXAEBT__m128@@000I00PEAVMeshPersistentContact@23@AEAI@Z 000000018014bc60 f   GuPCMContactCapsuleMesh.obj
 0001:0014ae90       ?pcmContactCapsuleMesh@Gu@physx@@YA_NAEBVPxGeometry@2@0AEBUPxTransformPadded@2@1AEBUNarrowPhaseParams@12@AEAUCache@12@AEAVPxContactBuffer@2@PEAVPxRenderOutput@2@@Z 000000018014be90 f   GuPCMContactCapsuleMesh.obj
 0001:0014c6d0       ?pcmDistanceSegmentTriangleSquaredExported@@YA?AT__m128@@AEBT1@0000AEAT1@11@Z 000000018014d6d0 f   GuPCMContactCapsuleMesh.obj
 0001:0014cb30       ?processTriangle@PCMCapsuleVsMeshContactGeneration@Gu@physx@@QEAA_NPEBV?$PxVec3T@M@3@IEPEBI@Z 000000018014db30 f   GuPCMContactCapsuleMesh.obj
 0001:0014d6e0       ?processTriangle@PCMCapsuleVsMeshContactGeneration@Gu@physx@@SA_NAEBVTriangleV@23@IAEBVCapsuleV@23@AEBT__m128@@EPEAVMeshPersistentContact@23@AEAI@Z 000000018014e6e0 f   GuPCMContactCapsuleMesh.obj
 0001:0014da10       ?addContactsToPatch@PCMConvexVsMeshContactGeneration@Gu@physx@@QEAAXAEBT__m128@@I@Z 000000018014ea10 f   GuPCMContactConvexCommon.obj
 0001:0014e330       ?doSupport@?$SupportLocalImpl@VTriangleV@Gu@physx@@@Gu@physx@@UEBA?AT__m128@@AEBT4@@Z 000000018014f330 f i GuPCMContactConvexCommon.obj
 0001:0014e3c0       ?doSupport@?$SupportLocalImpl@VTriangleV@Gu@physx@@@Gu@physx@@UEBAXAEBT__m128@@AEAT4@1@Z 000000018014f3c0 f i GuPCMContactConvexCommon.obj
 0001:0014e430       ?generateLastContacts@PCMConvexVsMeshContactGeneration@Gu@physx@@QEAAXXZ 000000018014f430 f   GuPCMContactConvexCommon.obj
 0001:0014e970       ?populateVerts@?$SupportLocalImpl@VTriangleV@Gu@physx@@@Gu@physx@@UEBAXPEBEIPEBV?$PxVec3T@M@3@PEAT__m128@@@Z 000000018014f970 f i GuPCMContactConvexCommon.obj
 0001:0014eab0       ?processTriangle@PCMConvexVsMeshContactGeneration@Gu@physx@@QEAA_NPEBV?$PxVec3T@M@3@IEPEBI@Z 000000018014fab0 f   GuPCMContactConvexCommon.obj
 0001:0014f020       ?processTriangle@PCMConvexVsMeshContactGeneration@Gu@physx@@SA_NAEBUPolygonalData@23@PEBVSupportLocal@23@PEBV?$PxVec3T@M@3@IEAEBT__m128@@_NAEBVPxTransformV@aos@3@AEBVPxMatTransformV@93@PEAVMeshPersistentContact@23@AEAI@Z 0000000180150020 f   GuPCMContactConvexCommon.obj
 0001:0014f2a0       ??$gjkPenetration@U?$RelativeConvex@VConvexHullNoScaleV@Gu@physx@@@Gu@physx@@U?$LocalConvex@VConvexHullNoScaleV@Gu@physx@@@23@@Gu@physx@@YA?AW4GjkStatus@01@AEBU?$RelativeConvex@VConvexHullNoScaleV@Gu@physx@@@01@AEBU?$LocalConvex@VConvexHullNoScaleV@Gu@physx@@@01@AEBT__m128@@2_NPEIAE4AEAEAEAUGjkOutput@01@@Z 00000001801502a0 f i GuPCMContactConvexConvex.obj
 0001:0014f310       ??$gjkPenetration@U?$RelativeConvex@VConvexHullNoScaleV@Gu@physx@@@Gu@physx@@U?$LocalConvex@VConvexHullNoScaleV@Gu@physx@@@23@@Gu@physx@@YA?AW4GjkStatus@01@AEBU?$RelativeConvex@VConvexHullNoScaleV@Gu@physx@@@01@AEBU?$LocalConvex@VConvexHullNoScaleV@Gu@physx@@@01@AEBT__m128@@2_NPEIAE4PEIAT5@5AEAEAEAUGjkOutput@01@@Z 0000000180150310 f i GuPCMContactConvexConvex.obj
 0001:00150820       ??$gjkPenetration@U?$RelativeConvex@VConvexHullNoScaleV@Gu@physx@@@Gu@physx@@U?$LocalConvex@VConvexHullV@Gu@physx@@@23@@Gu@physx@@YA?AW4GjkStatus@01@AEBU?$RelativeConvex@VConvexHullNoScaleV@Gu@physx@@@01@AEBU?$LocalConvex@VConvexHullV@Gu@physx@@@01@AEBT__m128@@2_NPEIAE4AEAEAEAUGjkOutput@01@@Z 0000000180151820 f i GuPCMContactConvexConvex.obj
 0001:00150890       ??$gjkPenetration@U?$RelativeConvex@VConvexHullNoScaleV@Gu@physx@@@Gu@physx@@U?$LocalConvex@VConvexHullV@Gu@physx@@@23@@Gu@physx@@YA?AW4GjkStatus@01@AEBU?$RelativeConvex@VConvexHullNoScaleV@Gu@physx@@@01@AEBU?$LocalConvex@VConvexHullV@Gu@physx@@@01@AEBT__m128@@2_NPEIAE4PEIAT5@5AEAEAEAUGjkOutput@01@@Z 0000000180151890 f i GuPCMContactConvexConvex.obj
 0001:00151e20       ??$gjkPenetration@U?$RelativeConvex@VConvexHullV@Gu@physx@@@Gu@physx@@U?$LocalConvex@VConvexHullNoScaleV@Gu@physx@@@23@@Gu@physx@@YA?AW4GjkStatus@01@AEBU?$RelativeConvex@VConvexHullV@Gu@physx@@@01@AEBU?$LocalConvex@VConvexHullNoScaleV@Gu@physx@@@01@AEBT__m128@@2_NPEIAE4AEAEAEAUGjkOutput@01@@Z 0000000180152e20 f i GuPCMContactConvexConvex.obj
 0001:00151e90       ??$gjkPenetration@U?$RelativeConvex@VConvexHullV@Gu@physx@@@Gu@physx@@U?$LocalConvex@VConvexHullNoScaleV@Gu@physx@@@23@@Gu@physx@@YA?AW4GjkStatus@01@AEBU?$RelativeConvex@VConvexHullV@Gu@physx@@@01@AEBU?$LocalConvex@VConvexHullNoScaleV@Gu@physx@@@01@AEBT__m128@@2_NPEIAE4PEIAT5@5AEAEAEAUGjkOutput@01@@Z 0000000180152e90 f i GuPCMContactConvexConvex.obj
 0001:00153e40       ?pcmContactConvexConvex@Gu@physx@@YA_NAEBVPxGeometry@2@0AEBUPxTransformPadded@2@1AEBUNarrowPhaseParams@12@AEAUCache@12@AEAVPxContactBuffer@2@PEAVPxRenderOutput@2@@Z 0000000180154e40 f   GuPCMContactConvexConvex.obj
 0001:00154f20       ?support@?$RelativeConvex@VConvexHullNoScaleV@Gu@physx@@@Gu@physx@@UEBA?AT__m128@@AEBT4@@Z 0000000180155f20 f i GuPCMContactConvexConvex.obj
 0001:00154fd0       ?support@?$RelativeConvex@VConvexHullNoScaleV@Gu@physx@@@Gu@physx@@UEBA?AT__m128@@AEBT4@AEAH@Z 0000000180155fd0 f i GuPCMContactConvexConvex.obj
 0001:00155090       ?supportPoint@?$RelativeConvex@VConvexHullNoScaleV@Gu@physx@@@Gu@physx@@UEBA?AT__m128@@H@Z 0000000180156090 f i GuPCMContactConvexConvex.obj
 0001:00155120       ?PCMContactConvexHeightfield@Gu@physx@@YA_NAEBUPolygonalData@12@PEBVSupportLocal@12@AEBT__m128@@AEBVPxBounds3@2@AEBVPxHeightFieldGeometry@2@AEBV?$PxTransformT@M@2@5MAEAVPxContactBuffer@2@AEBVFastVertex2ShapeScaling@Cm@2@_NAEAVMultiplePersistentContactManifold@12@PEAVPxRenderOutput@2@@Z 0000000180156120 f   GuPCMContactConvexHeightField.obj
 0001:00155f90       ?pcmContactBoxHeightField@Gu@physx@@YA_NAEBVPxGeometry@2@0AEBUPxTransformPadded@2@1AEBUNarrowPhaseParams@12@AEAUCache@12@AEAVPxContactBuffer@2@PEAVPxRenderOutput@2@@Z 0000000180156f90 f   GuPCMContactConvexHeightField.obj
 0001:00156230       ?pcmContactConvexHeightField@Gu@physx@@YA_NAEBVPxGeometry@2@0AEBUPxTransformPadded@2@1AEBUNarrowPhaseParams@12@AEAUCache@12@AEAVPxContactBuffer@2@PEAVPxRenderOutput@2@@Z 0000000180157230 f   GuPCMContactConvexHeightField.obj
 0001:00156f80       ?PCMContactConvexMesh@Gu@physx@@YA_NAEBUPolygonalData@12@PEBVSupportLocal@12@AEBT__m128@@AEBVPxBounds3@2@AEBVPxTriangleMeshGeometry@2@AEBV?$PxTransformT@M@2@5MAEAVPxContactBuffer@2@AEBVFastVertex2ShapeScaling@Cm@2@7_N8AEAVMultiplePersistentContactManifold@12@PEAVPxRenderOutput@2@@Z 0000000180157f80 f   GuPCMContactConvexMesh.obj
 0001:00157a70       ?pcmContactBoxMesh@Gu@physx@@YA_NAEBVPxGeometry@2@0AEBUPxTransformPadded@2@1AEBUNarrowPhaseParams@12@AEAUCache@12@AEAVPxContactBuffer@2@PEAVPxRenderOutput@2@@Z 0000000180158a70 f   GuPCMContactConvexMesh.obj
 0001:00157dc0       ?pcmContactConvexMesh@Gu@physx@@YA_NAEBVPxGeometry@2@0AEBUPxTransformPadded@2@1AEBUNarrowPhaseParams@12@AEAUCache@12@AEAVPxContactBuffer@2@PEAVPxRenderOutput@2@@Z 0000000180158dc0 f   GuPCMContactConvexMesh.obj
 0001:00158a60       ?addGJKEPAContacts@Gu@physx@@YA_NPEBUGjkConvex@12@0AEBVPxMatTransformV@aos@2@W4GjkStatus@12@PEAVPersistentContact@12@T__m128@@4AEAUGjkOutput@12@AEAVPersistentContactManifold@12@@Z 0000000180159a60 f   GuPCMContactGenBoxConvex.obj
 0001:00158f10       ?computeMTD@Gu@physx@@YA_NAEBUPolygonalData@12@0PEBVSupportLocal@12@1AEAT__m128@@2@Z 0000000180159f10 f   GuPCMContactGenBoxConvex.obj
 0001:00159540       ?generateFullContactManifold@Gu@physx@@YA_NAEBUPolygonalData@12@0PEBVSupportLocal@12@1PEAVPersistentContact@12@AEAIAEBT__m128@@444MM_NPEAVPxRenderOutput@2@M@Z 000000018015a540 f   GuPCMContactGenBoxConvex.obj
 0001:0015b480       ?computeMTD@Gu@physx@@YA_NAEBVCapsuleV@12@AEBUPolygonalData@12@PEBVSupportLocal@12@AEAT__m128@@3@Z 000000018015c480 f   GuPCMContactGenSphereCapsule.obj
 0001:0015b570       ?generateCapsuleBoxFullContactManifold@Gu@physx@@YA_NAEBVCapsuleV@12@AEBUPolygonalData@12@PEBVSupportLocal@12@AEBVPxMatTransformV@aos@2@PEAVPersistentContact@12@AEAIAEBT__m128@@AEAT9@6M_NMPEAVPxRenderOutput@2@@Z 000000018015c570 f   GuPCMContactGenSphereCapsule.obj
 0001:0015b710       ?generateFullContactManifold@Gu@physx@@YA_NAEBVCapsuleV@12@AEBUPolygonalData@12@PEBVSupportLocal@12@AEBVPxMatTransformV@aos@2@PEAVPersistentContact@12@AEAIAEBT__m128@@AEAT9@6M_NM@Z 000000018015c710 f   GuPCMContactGenSphereCapsule.obj
 0001:0015b900       ?generateSphereFullContactManifold@Gu@physx@@YA_NAEBVCapsuleV@12@AEBUPolygonalData@12@PEBVSupportLocal@12@PEAVPersistentContact@12@AEAIAEBT__m128@@AEAT7@_N@Z 000000018015c900 f   GuPCMContactGenSphereCapsule.obj
 0001:0015cdb0       ?pcmContactPlaneBox@Gu@physx@@YA_NAEBVPxGeometry@2@0AEBUPxTransformPadded@2@1AEBUNarrowPhaseParams@12@AEAUCache@12@AEAVPxContactBuffer@2@PEAVPxRenderOutput@2@@Z 000000018015ddb0 f   GuPCMContactPlaneBox.obj
 0001:0015d960       ?pcmContactPlaneCapsule@Gu@physx@@YA_NAEBVPxGeometry@2@0AEBUPxTransformPadded@2@1AEBUNarrowPhaseParams@12@AEAUCache@12@AEAVPxContactBuffer@2@PEAVPxRenderOutput@2@@Z 000000018015e960 f   GuPCMContactPlaneCapsule.obj
 0001:0015e0f0       ?pcmContactPlaneConvex@Gu@physx@@YA_NAEBVPxGeometry@2@0AEBUPxTransformPadded@2@1AEBUNarrowPhaseParams@12@AEAUCache@12@AEAVPxContactBuffer@2@PEAVPxRenderOutput@2@@Z 000000018015f0f0 f   GuPCMContactPlaneConvex.obj
 0001:0015ed50       ?pcmContactSphereBox@Gu@physx@@YA_NAEBVPxGeometry@2@0AEBUPxTransformPadded@2@1AEBUNarrowPhaseParams@12@AEAUCache@12@AEAVPxContactBuffer@2@PEAVPxRenderOutput@2@@Z 000000018015fd50 f   GuPCMContactSphereBox.obj
 0001:0015f1b0       ?pcmContactSphereCapsule@Gu@physx@@YA_NAEBVPxGeometry@2@0AEBUPxTransformPadded@2@1AEBUNarrowPhaseParams@12@AEAUCache@12@AEAVPxContactBuffer@2@PEAVPxRenderOutput@2@@Z 00000001801601b0 f   GuPCMContactSphereCapsule.obj
 0001:0015f630       ?pcmContactSphereConvex@Gu@physx@@YA_NAEBVPxGeometry@2@0AEBUPxTransformPadded@2@1AEBUNarrowPhaseParams@12@AEAUCache@12@AEAVPxContactBuffer@2@PEAVPxRenderOutput@2@@Z 0000000180160630 f   GuPCMContactSphereConvex.obj
 0001:001602f0       ??$processTriangleCache@$0BA@VPCMSphereVsMeshContactGeneration@Gu@physx@@@PCMMeshContactGeneration@Gu@physx@@QEAA_NAEAU?$TriangleCache@$0BA@@12@@Z 00000001801612f0 f i GuPCMContactSphereHeightField.obj
 0001:00160380       ??1?$PxArray@USortedTriangle@Gu@physx@@V?$PxInlineAllocator@$0IAA@V?$PxReflectionAllocator@USortedTriangle@Gu@physx@@@physx@@@3@@physx@@QEAA@XZ 0000000180161380 f i GuPCMContactSphereHeightField.obj
 0001:00160440       ?allocate@?$PxArray@USortedTriangle@Gu@physx@@V?$PxInlineAllocator@$0IAA@V?$PxReflectionAllocator@USortedTriangle@Gu@physx@@@physx@@@3@@physx@@IEAAPEAUSortedTriangle@Gu@2@IPEAI@Z 0000000180161440 f i GuPCMContactSphereHeightField.obj
 0001:00160510       ?pcmContactSphereHeightField@Gu@physx@@YA_NAEBVPxGeometry@2@0AEBUPxTransformPadded@2@1AEBUNarrowPhaseParams@12@AEAUCache@12@AEAVPxContactBuffer@2@PEAVPxRenderOutput@2@@Z 0000000180161510 f   GuPCMContactSphereHeightField.obj
 0001:001615a0       ??$PxSort@USortedTriangle@Gu@physx@@U?$PxLess@USortedTriangle@Gu@physx@@@3@V?$PxReflectionAllocator@USortedTriangle@Gu@physx@@@3@@physx@@YAXPEAUSortedTriangle@Gu@0@IAEBU?$PxLess@USortedTriangle@Gu@physx@@@0@AEBV?$PxReflectionAllocator@USortedTriangle@Gu@physx@@@0@I@Z 00000001801625a0 f i GuPCMContactSphereMesh.obj
 0001:00161b10       ?addToPatch@PCMSphereVsMeshContactGeneration@Gu@physx@@QEAAXAEBT__m128@@0T4@I@Z 0000000180162b10 f   GuPCMContactSphereMesh.obj
 0001:001621b0       ?generateLastContacts@PCMSphereVsMeshContactGeneration@Gu@physx@@QEAAXXZ 00000001801631b0 f   GuPCMContactSphereMesh.obj
 0001:001627f0       ?growAndPushBack@?$PxArray@USortedTriangle@Gu@physx@@V?$PxInlineAllocator@$0IAA@V?$PxReflectionAllocator@USortedTriangle@Gu@physx@@@physx@@@3@@physx@@IEAAAEAUSortedTriangle@Gu@2@AEBU342@@Z 00000001801637f0 f i GuPCMContactSphereMesh.obj
 0001:00162910       ?pcmContactSphereMesh@Gu@physx@@YA_NAEBVPxGeometry@2@0AEBUPxTransformPadded@2@1AEBUNarrowPhaseParams@12@AEAUCache@12@AEAVPxContactBuffer@2@PEAVPxRenderOutput@2@@Z 0000000180163910 f   GuPCMContactSphereMesh.obj
 0001:001643e0       ?processTriangle@PCMSphereVsMeshContactGeneration@Gu@physx@@QEAA_NPEBV?$PxVec3T@M@3@IEPEBI@Z 00000001801653e0 f   GuPCMContactSphereMesh.obj
 0001:001647e0       ?recreate@?$PxArray@IV?$PxInlineAllocator@$0PAA@V?$PxReflectionAllocator@I@physx@@@physx@@@physx@@IEAAXI@Z 00000001801657e0 f i GuPCMContactSphereMesh.obj
 0001:001648b0       ?pcmContactSpherePlane@Gu@physx@@YA_NAEBVPxGeometry@2@0AEBUPxTransformPadded@2@1AEBUNarrowPhaseParams@12@AEAUCache@12@AEAVPxContactBuffer@2@PEAVPxRenderOutput@2@@Z 00000001801658b0 f   GuPCMContactSpherePlane.obj
 0001:00164a30       ?pcmContactSphereSphere@Gu@physx@@YA_NAEBVPxGeometry@2@0AEBUPxTransformPadded@2@1AEBUNarrowPhaseParams@12@AEAUCache@12@AEAVPxContactBuffer@2@PEAVPxRenderOutput@2@@Z 0000000180165a30 f   GuPCMContactSphereSphere.obj
 0001:001652f0       ?pcmContactGeometryCustomGeometry@Gu@physx@@YA_NAEBVPxGeometry@2@0AEBUPxTransformPadded@2@1AEBUNarrowPhaseParams@12@AEAUCache@12@AEAVPxContactBuffer@2@PEAVPxRenderOutput@2@@Z 00000001801662f0 f   GuPCMContactCustomGeometry.obj
 0001:001653a0       ?getPCMConvexData@Gu@physx@@YAXAEBVConvexHullV@12@_NAEAUPolygonalData@12@@Z 00000001801663a0 f   GuPCMShapeConvex.obj
 0001:001653e0       ?getPCMConvexData@Gu@physx@@YA_NAEBVPxConvexMeshGeometry@2@AEAVFastVertex2ShapeScaling@Cm@2@AEAVPxBounds3@2@AEAUPolygonalData@12@@Z 00000001801663e0 f   GuPCMShapeConvex.obj
 0001:00165950       ?getPolygonalData@PCMPolygonalBox@Gu@physx@@QEBAXPEIAUPolygonalData@23@@Z 0000000180166950 f   GuPCMShapeConvex.obj
 0001:001659d0       ?generatePolyDataContactManifold@PCMConvexVsMeshContactGeneration@Gu@physx@@QEAA_NAEBVTriangleV@23@IIEPEAVMeshPersistentContact@23@AEAIAEBT__m128@@AEAT6@@Z 00000001801669d0 f   GuPCMTriangleContactGen.obj
 0001:00165af0       ?generateTriangleFullContactManifold@PCMConvexVsMeshContactGeneration@Gu@physx@@QEAA_NAEBVTriangleV@23@IPEBIEAEBUPolygonalData@23@PEBV?$SupportLocalImpl@VTriangleV@Gu@physx@@@23@PEBVSupportLocal@23@PEAVMeshPersistentContact@23@AEAIAEBT__m128@@AEAT9@@Z 0000000180166af0 f   GuPCMTriangleContactGen.obj
 0001:00166020       ?generateTriangleFullContactManifold@PCMConvexVsMeshContactGeneration@Gu@physx@@SA_NAEBVTriangleV@23@IEAEBUPolygonalData@23@PEBV?$SupportLocalImpl@VTriangleV@Gu@physx@@@23@PEBVSupportLocal@23@PEAVMeshPersistentContact@23@AEAIAEBT__m128@@AEAT9@PEAVPxRenderOutput@3@@Z 0000000180167020 f   GuPCMTriangleContactGen.obj
 0001:001680b0       ?addBatchManifoldContacts2@PersistentContactManifold@Gu@physx@@QEAAXPEBVPersistentContact@23@I@Z 00000001801690b0 f   GuPersistentContactManifold.obj
 0001:00168120       ?addBatchManifoldContacts@PersistentContactManifold@Gu@physx@@QEAAXPEBVPersistentContact@23@IM@Z 0000000180169120 f   GuPersistentContactManifold.obj
 0001:001681a0       ?addBatchManifoldContactsCluster@PersistentContactManifold@Gu@physx@@QEAAXPEBVPersistentContact@23@I@Z 00000001801691a0 f   GuPersistentContactManifold.obj
 0001:00168420       ?addManifoldContactPoints@MultiplePersistentContactManifold@Gu@physx@@QEAAXPEAVMeshPersistentContact@23@IPEAPEAUPCMContactPatch@23@IAEBT__m128@@2E@Z 0000000180169420 f   GuPersistentContactManifold.obj
 0001:00168830       ?addManifoldContactsToContactBuffer@MultiplePersistentContactManifold@Gu@physx@@QEAA_NAEAVPxContactBuffer@3@AEBVPxTransformV@aos@3@1AEBT__m128@@@Z 0000000180169830 f   GuPersistentContactManifold.obj
 0001:00168af0       ?addManifoldContactsToContactBuffer@MultiplePersistentContactManifold@Gu@physx@@QEAA_NAEAVPxContactBuffer@3@AEBVPxTransformV@aos@3@@Z 0000000180169af0 f   GuPersistentContactManifold.obj
 0001:00168d80       ?addManifoldContactsToContactBuffer@PersistentContactManifold@Gu@physx@@QEAAXAEAVPxContactBuffer@3@AEBT__m128@@1AEBVPxTransformV@aos@3@11@Z 0000000180169d80 f   GuPersistentContactManifold.obj
 0001:00168f10       ?addManifoldContactsToContactBuffer@PersistentContactManifold@Gu@physx@@QEAAXAEAVPxContactBuffer@3@AEBT__m128@@AEBVPxMatTransformV@aos@3@@Z 0000000180169f10 f   GuPersistentContactManifold.obj
 0001:00168fc0       ?addManifoldContactsToContactBuffer@PersistentContactManifold@Gu@physx@@QEAAXAEAVPxContactBuffer@3@AEBT__m128@@AEBVPxTransformV@aos@3@1@Z 0000000180169fc0 f   GuPersistentContactManifold.obj
 0001:00169120       ?addManifoldPoint2@PersistentContactManifold@Gu@physx@@QEAAIAEBT__m128@@000@Z 000000018016a120 f   GuPersistentContactManifold.obj
 0001:00169250       ?addManifoldPoint@Gu@physx@@YAXPEAVPersistentContact@12@AEAVPersistentContactManifold@12@AEAUGjkOutput@12@AEBVPxMatTransformV@aos@2@T__m128@@@Z 000000018016a250 f   GuPersistentContactManifold.obj
 0001:00169400       ?addManifoldPoint@PersistentContactManifold@Gu@physx@@QEAAIAEBT__m128@@000@Z 000000018016a400 f   GuPersistentContactManifold.obj
 0001:00169840       ?drawLine@MultiplePersistentContactManifold@Gu@physx@@SAXAEAVPxRenderOutput@3@AEBT__m128@@1I@Z 000000018016a840 f   GuPersistentContactManifold.obj
 0001:001698f0       ?drawLine@MultiplePersistentContactManifold@Gu@physx@@SAXAEAVPxRenderOutput@3@V?$PxVec3T@M@3@1I@Z 000000018016a8f0 f   GuPersistentContactManifold.obj
 0001:00169960       ?drawManifold@MultiplePersistentContactManifold@Gu@physx@@QEBAXAEAVPxRenderOutput@3@AEBVPxTransformV@aos@3@1@Z 000000018016a960 f   GuPersistentContactManifold.obj
 0001:00169ff0       ?drawPoint@MultiplePersistentContactManifold@Gu@physx@@SAXAEAVPxRenderOutput@3@AEBT__m128@@MI@Z 000000018016aff0 f   GuPersistentContactManifold.obj
 0001:0016a200       ?drawPolygon@MultiplePersistentContactManifold@Gu@physx@@SAXAEAVPxRenderOutput@3@AEBVPxTransformV@aos@3@PEAT__m128@@II@Z 000000018016b200 f   GuPersistentContactManifold.obj
 0001:0016a440       ?findRotationMatrixFromZAxis@Gu@physx@@YA?AUMat33V@aos@2@AEBT__m128@@@Z 000000018016b440 f   GuPersistentContactManifold.obj
 0001:0016a6c0       ?fromBuffer@MultiplePersistentContactManifold@Gu@physx@@QEAAXPEIAE@Z 000000018016b6c0 f   GuPersistentContactManifold.obj
 0001:0016a810       ?reduceBatchContacts2@PersistentContactManifold@Gu@physx@@QEAAXPEBVPersistentContact@23@I@Z 000000018016b810 f   GuPersistentContactManifold.obj
 0001:0016aa20       ?reduceBatchContacts@PersistentContactManifold@Gu@physx@@QEAAXPEBVPersistentContact@23@IM@Z 000000018016ba20 f   GuPersistentContactManifold.obj
 0001:0016aed0       ?reduceBatchContactsCapsule@SinglePersistentContactManifold@Gu@physx@@QEAA?AT__m128@@PEBVMeshPersistentContact@23@IAEAUPCMContactPatch@23@@Z 000000018016bed0 f   GuPersistentContactManifold.obj
 0001:0016b170       ?reduceBatchContactsCluster@PersistentContactManifold@Gu@physx@@QEAAXPEBVPersistentContact@23@I@Z 000000018016c170 f   GuPersistentContactManifold.obj
 0001:0016b600       ?reduceBatchContactsConvex@SinglePersistentContactManifold@Gu@physx@@QEAA?AT__m128@@PEBVMeshPersistentContact@23@IAEAUPCMContactPatch@23@@Z 000000018016c600 f   GuPersistentContactManifold.obj
 0001:0016bbf0       ?reduceContacts@SinglePersistentContactManifold@Gu@physx@@SAIPEAVMeshPersistentContact@23@I@Z 000000018016cbf0 f   GuPersistentContactManifold.obj
 0001:0016c180       ?reduceContactsForPCM@PersistentContactManifold@Gu@physx@@QEAAIAEBT__m128@@00@Z 000000018016d180 f   GuPersistentContactManifold.obj
 0001:0016c720       ?refreshContactPoints@SinglePersistentContactManifold@Gu@physx@@QEAA?AT__m128@@AEBVPxMatTransformV@aos@3@AEBT4@1@Z 000000018016d720 f   GuPersistentContactManifold.obj
 0001:0016c870       ?replaceManifoldPoint@PersistentContactManifold@Gu@physx@@QEAA_NAEBT__m128@@000@Z 000000018016d870 f   GuPersistentContactManifold.obj
 0001:0016c940       ?toBuffer@MultiplePersistentContactManifold@Gu@physx@@QEBAXPEIAE@Z 000000018016d940 f   GuPersistentContactManifold.obj
 0001:0016ca20       ?contains@Gu@physx@@YA_NPEAT__m128@@IAEBT3@11@Z 000000018016da20 f   GuPCMContactGenUtil.obj
 0001:0016cbe0       ?getPolygonIndex@Gu@physx@@YAHAEBUPolygonalData@12@PEBVSupportLocal@12@AEBT__m128@@AEAH@Z 000000018016dbe0 f   GuPCMContactGenUtil.obj
 0001:0016ce80       ?getWitnessPolygonIndex@Gu@physx@@YAIAEBUPolygonalData@12@PEBVSupportLocal@12@AEBT__m128@@2M@Z 000000018016de80 f   GuPCMContactGenUtil.obj
 0001:0016d3c0       ?sweepBoxBox@Gu@physx@@YA_NAEBVBox@12@0AEBV?$PxVec3T@M@2@MV?$PxFlags@W4Enum@PxHitFlag@physx@@G@2@AEAUPxGeomSweepHit@2@@Z 000000018016e3c0 f   GuSweepBoxBox.obj
 0001:0016e9c0       ?sweepBoxSphere@Gu@physx@@YA_NAEBVBox@12@MAEBV?$PxVec3T@M@2@1MAEAMAEAV42@V?$PxFlags@W4Enum@PxHitFlag@physx@@G@2@@Z 000000018016f9c0 f   GuSweepBoxSphere.obj
 0001:0016f600       ?sweepBoxTriangle@Gu@physx@@YA_NAEBVPxTriangle@2@AEBVPxBounds3@2@AEBV?$PxVec3T@M@2@2AEAV52@3AEAM_N@Z 0000000180170600 f   GuSweepBoxTriangle_FeatureBased.obj
 0001:00170ca0       ?triBoxSweepTestBoxSpace@Gu@physx@@YAHAEBVPxTriangle@2@AEBV?$PxVec3T@M@2@11MAEAM_N@Z 0000000180171ca0 f   GuSweepBoxTriangle_SAT.obj
 0001:001725b0       ?sweepCapsuleBox@Gu@physx@@YA_NAEBVCapsule@12@AEBV?$PxTransformT@M@2@AEBV?$PxVec3T@M@2@2MAEAV52@AEAM3V?$PxFlags@W4Enum@PxHitFlag@physx@@G@2@@Z 00000001801735b0 f   GuSweepCapsuleBox.obj
 0001:001728f0       ?edgeEdgeDist@@YAXAEAV?$PxVec3T@M@physx@@0AEBV12@111@Z 00000001801738f0 f   GuSweepCapsuleCapsule.obj
 0001:00172b60       ?sweepCapsuleCapsule@Gu@physx@@YA_NAEBVCapsule@12@0AEBV?$PxVec3T@M@2@MAEAMAEAV42@3IAEAG@Z 0000000180173b60 f   GuSweepCapsuleCapsule.obj
 0001:00173930       ?sweepCapsuleTriangles_Precise@Gu@physx@@YA_NIPEIBVPxTriangle@2@AEBVCapsule@12@AEBV?$PxVec3T@M@2@MPEIBIAEAUPxGeomSweepHit@2@AEAV52@V?$PxFlags@W4Enum@PxHitFlag@physx@@G@2@_NPEBVBoxPadded@12@@Z 0000000180174930 f   GuSweepCapsuleTriangle.obj
 0001:00175a50       ?sweepSphereCapsule@Gu@physx@@YA_NAEBVSphere@12@AEBVCapsule@12@AEBV?$PxVec3T@M@2@MAEAMAEAV52@4V?$PxFlags@W4Enum@PxHitFlag@physx@@G@2@@Z 0000000180176a50 f   GuSweepSphereCapsule.obj
 0001:001760f0       ?sweepSphereSphere@Gu@physx@@YA_NAEBV?$PxVec3T@M@2@M0M0AEAMAEAV32@@Z 00000001801770f0 f   GuSweepSphereSphere.obj
 0001:00176380       ?sweepSphereTriangles@Gu@physx@@YA_NIPEIBVPxTriangle@2@AEBV?$PxVec3T@M@2@M1MPEIBIAEAUPxGeomSweepHit@2@AEAV42@_N555@Z 0000000180177380 f   GuSweepSphereTriangle.obj
 0001:00176c70       ?sweepSphereVSQuad@Gu@physx@@YA_NPEIBV?$PxVec3T@M@2@AEBV32@1M1AEAM@Z 0000000180177c70 f   GuSweepSphereTriangle.obj
 0001:00177ca0       ?sweepSphereVSTri@Gu@physx@@YA_NPEIBV?$PxVec3T@M@2@AEBV32@1M1AEAMAEA_N_N@Z 0000000180178ca0 f   GuSweepSphereTriangle.obj
 0001:00178950       ??$gjk@U?$LocalConvex@VTriangleV@Gu@physx@@@Gu@physx@@U?$LocalConvex@VBoxV@Gu@physx@@@23@@Gu@physx@@YA?AW4GjkStatus@01@AEBU?$LocalConvex@VTriangleV@Gu@physx@@@01@AEBU?$LocalConvex@VBoxV@Gu@physx@@@01@AEBT__m128@@2AEAT5@333@Z 0000000180179950 f i GuSweepTriangleUtils.obj
 0001:00179640       ?computeBoxTriImpactData@Gu@physx@@YAXAEAV?$PxVec3T@M@2@0AEBV32@1AEBVPxTriangle@2@M@Z 000000018017a640 f   GuSweepTriangleUtils.obj
 0001:001798d0       ?computeEdgeEdgeNormal@Gu@physx@@YAXAEAV?$PxVec3T@M@2@AEBV32@1111M@Z 000000018017a8d0 f   GuSweepTriangleUtils.obj
 0001:00179b80       ?computeSphereTriImpactData@Gu@physx@@YAXAEAV?$PxVec3T@M@2@0AEBV32@1MAEBVPxTriangle@2@@Z 000000018017ab80 f   GuSweepTriangleUtils.obj
 0001:0017a060       ??0ShapeData@Gu@physx@@QEAA@AEBVPxGeometry@2@AEBV?$PxTransformT@M@2@M@Z 000000018017b060 f   GuBounds.obj
 0001:0017a650       ?computeBounds@Gu@physx@@YAXAEAVPxBounds3@2@AEBVPxGeometry@2@AEBV?$PxTransformT@M@2@MM@Z 000000018017b650 f   GuBounds.obj
 0001:0017b540       ?computeBoundsAroundVertices@Gu@physx@@YAXAEAVPxBounds3@2@IPEIBV?$PxVec3T@M@2@@Z 000000018017c540 f   GuBounds.obj
 0001:0017b5f0       ?computeGlobalBox@Gu@physx@@YAXAEAVPxBounds3@2@IPEIBV32@PEIBI@Z 000000018017c5f0 f   GuBounds.obj
 0001:0017b680       ?computeLocalBoundsAndGeomEpsilon@Gu@physx@@YAXPEBV?$PxVec3T@M@2@IAEAVPxBounds3@2@AEAM@Z 000000018017c680 f   GuBounds.obj
 0001:0017c760       ?computeTightBounds@Gu@physx@@YAXAEAVPxBounds3@2@IPEIBV?$PxVec3T@M@2@AEBV?$PxTransformT@M@2@AEBVPxMeshScale@2@MM@Z 000000018017d760 f   GuBounds.obj
 0001:0017cb20       ??0AABBTree@Gu@physx@@QEAA@XZ 000000018017db20 f   GuAABBTree.obj
 0001:0017cb50       ??0BVHPartialRefitData@Gu@physx@@QEAA@XZ 000000018017db50 f   GuAABBTree.obj
 0001:0017cb80       ??0NodeAllocator@Gu@physx@@QEAA@XZ 000000018017db80 f   GuAABBTree.obj
 0001:0017cba0       ??1AABBTree@Gu@physx@@QEAA@XZ 000000018017dba0 f   GuAABBTree.obj
 0001:0017cbc0       ??1BVHPartialRefitData@Gu@physx@@QEAA@XZ 000000018017dbc0 f   GuAABBTree.obj
 0001:0017cc70       ??1NodeAllocator@Gu@physx@@QEAA@XZ 000000018017dc70 f   GuAABBTree.obj
 0001:0017ccc0       ?addRuntimeChilds@AABBTree@Gu@physx@@AEAAXAEAIAEBVAABBTreeMergeData@23@@Z 000000018017dcc0 f   GuAABBTree.obj
 0001:0017cdc0       ?allocate@?$PxArray@PEAVAABBTreeBuildNode@Gu@physx@@V?$PxInlineAllocator@$0IAA@V?$PxReflectionAllocator@PEAVAABBTreeBuildNode@Gu@physx@@@physx@@@3@@physx@@IEAAPEAPEAVAABBTreeBuildNode@Gu@2@IPEAI@Z 000000018017ddc0 f i GuAABBTree.obj
 0001:0017ce90       ?build@AABBTree@Gu@physx@@QEAA_NAEBVAABBTreeBuildParams@23@AEAVNodeAllocator@23@@Z 000000018017de90 f   GuAABBTree.obj
 0001:0017cf40       ?buildAABBTree@Gu@physx@@YAPEAIAEBVAABBTreeBuildParams@12@AEAVNodeAllocator@12@AEAUBuildStats@12@@Z 000000018017df40 f   GuAABBTree.obj
 0001:0017cfb0       ?buildAABBTree@Gu@physx@@YAXIAEBVAABBTreeBounds@12@AEAV?$PxArray@UBVHNode@Gu@physx@@V?$PxReflectionAllocator@UBVHNode@Gu@physx@@@3@@2@@Z 000000018017dfb0 f   GuAABBTree.obj
 0001:0017d160       ?buildEnd@AABBTree@Gu@physx@@AEAAXAEBVAABBTreeBuildParams@23@AEAVNodeAllocator@23@AEBUBuildStats@23@@Z 000000018017e160 f   GuAABBTree.obj
 0001:0017d4e0       ?constructFromTetrahedra@TinyBVH@Gu@physx@@SAXPEBIIPEBV?$PxVec3T@M@3@AEAU123@M@Z 000000018017e4e0 f   GuAABBTree.obj
 0001:0017d7e0       ?constructFromTriangles@TinyBVH@Gu@physx@@SAXPEBIIPEBV?$PxVec3T@M@3@AEAU123@M@Z 000000018017e7e0 f   GuAABBTree.obj
 0001:0017db90       ?createUpdateMap@BVHPartialRefitData@Gu@physx@@QEAAXI@Z 000000018017eb90 f   GuAABBTree.obj
 0001:0017dcb0       ?flattenTree@Gu@physx@@YAXAEBVNodeAllocator@12@PEAUBVHNode@12@PEBI@Z 000000018017ecb0 f   GuAABBTree.obj
 0001:0017de60       ?fullRefit@BVHCoreData@Gu@physx@@QEAAXPEBVPxBounds3@3@@Z 000000018017ee60 f   GuAABBTree.obj
 0001:0017e020       ?getBiNode@NodeAllocator@Gu@physx@@QEAAPEAVAABBTreeBuildNode@23@XZ 000000018017f020 f   GuAABBTree.obj
 0001:0017e150       ?getParentIndices@BVHPartialRefitData@Gu@physx@@IEAAPEAIXZ 000000018017f150 f   GuAABBTree.obj
 0001:0017e1e0       ?growAndPushBack@?$PxArray@PEAVAABBTreeBuildNode@Gu@physx@@V?$PxReflectionAllocator@PEAVAABBTreeBuildNode@Gu@physx@@@3@@physx@@IEAAAEAPEAVAABBTreeBuildNode@Gu@2@AEBQEAV342@@Z 000000018017f1e0 f i GuAABBTree.obj
 0001:0017e320       ?growAndPushBack@?$PxArray@USlab@NodeAllocator@Gu@physx@@V?$PxReflectionAllocator@USlab@NodeAllocator@Gu@physx@@@4@@physx@@IEAAAEAUSlab@NodeAllocator@Gu@2@AEBU3452@@Z 000000018017f320 f i GuAABBTree.obj
 0001:0017e460       ?init@AABBTreeBounds@Gu@physx@@QEAAXIPEBVPxBounds3@3@@Z 000000018017f460 f   GuAABBTree.obj
 0001:0017e520       ?init@NodeAllocator@Gu@physx@@QEAAXII@Z 000000018017f520 f   GuAABBTree.obj
 0001:0017e860       ?initTree@AABBTree@Gu@physx@@QEAAXAEBVAABBTreeMergeData@23@@Z 000000018017f860 f   GuAABBTree.obj
 0001:0017e9b0       ?markNodeForRefit@BVHPartialRefitData@Gu@physx@@QEAAXI@Z 000000018017f9b0 f   GuAABBTree.obj
 0001:0017ead0       ?mergeRuntimeLeaf@AABBTree@Gu@physx@@AEAAXAEAUBVHNode@23@AEBVAABBTreeMergeData@23@I@Z 000000018017fad0 f   GuAABBTree.obj
 0001:0017ed30       ?mergeRuntimeNode@AABBTree@Gu@physx@@AEAAXAEAUBVHNode@23@AEBVAABBTreeMergeData@23@I@Z 000000018017fd30 f   GuAABBTree.obj
 0001:0017f070       ?mergeTree@AABBTree@Gu@physx@@QEAAXAEBVAABBTreeMergeData@23@@Z 0000000180180070 f   GuAABBTree.obj
 0001:0017f310       ?progressiveBuild@AABBTree@Gu@physx@@QEAAIAEBVAABBTreeBuildParams@23@AEAVNodeAllocator@23@AEAUBuildStats@23@II@Z 0000000180180310 f   GuAABBTree.obj
 0001:0017f5c0       ?recreate@?$PxArray@PEAVAABBTreeBuildNode@Gu@physx@@V?$PxInlineAllocator@$0IAA@V?$PxReflectionAllocator@PEAVAABBTreeBuildNode@Gu@physx@@@physx@@@3@@physx@@IEAAXI@Z 00000001801805c0 f i GuAABBTree.obj
 0001:0017f690       ?refitMarkedNodes@BVHPartialRefitData@Gu@physx@@QEAAXPEBVPxBounds3@3@@Z 0000000180180690 f   GuAABBTree.obj
 0001:0017f800       ?release@AABBTree@Gu@physx@@QEAAX_N@Z 0000000180180800 f   GuAABBTree.obj
 0001:0017f8f0       ?release@AABBTreeBounds@Gu@physx@@QEAAXXZ 00000001801808f0 f   GuAABBTree.obj
 0001:0017f940       ?release@NodeAllocator@Gu@physx@@QEAAXXZ 0000000180180940 f   GuAABBTree.obj
 0001:0017f9f0       ?releasePartialRefitData@BVHPartialRefitData@Gu@physx@@QEAAX_N@Z 00000001801809f0 f   GuAABBTree.obj
 0001:0017fa90       ?reshuffle@Gu@physx@@YAIIQEIAIPEIBV?$PxVec3T@M@2@MI@Z 0000000180180a90 f   GuAABBTree.obj
 0001:0017fbd0       ?resize@?$PxArray@USlab@NodeAllocator@Gu@physx@@V?$PxReflectionAllocator@USlab@NodeAllocator@Gu@physx@@@4@@physx@@QEAAXIAEBUSlab@NodeAllocator@Gu@2@@Z 0000000180180bd0 f i GuAABBTree.obj
 0001:0017fc50       ?resize@AABBTreeBounds@Gu@physx@@QEAAXII@Z 0000000180180c50 f   GuAABBTree.obj
 0001:0017fd10       ?resizeUninitialized@?$PxArray@PEAVAABBTreeBuildNode@Gu@physx@@V?$PxInlineAllocator@$0IAA@V?$PxReflectionAllocator@PEAVAABBTreeBuildNode@Gu@physx@@@physx@@@3@@physx@@QEAAXI@Z 0000000180180d10 f i GuAABBTree.obj
 0001:0017fd60       ?shiftIndices@AABBTree@Gu@physx@@QEAAXI@Z 0000000180180d60 f   GuAABBTree.obj
 0001:0017fd80       ?shiftOrigin@AABBTree@Gu@physx@@QEAAXAEBV?$PxVec3T@M@3@@Z 0000000180180d80 f   GuAABBTree.obj
 0001:00180000       ?subdivide@AABBTreeBuildNode@Gu@physx@@QEAAXAEBVAABBTreeBuildParams@23@AEAUBuildStats@23@AEAVNodeAllocator@23@QEAI@Z 0000000180181000 f   GuAABBTree.obj
 0001:001801e0       ?subdivideSAH@AABBTreeBuildNode@Gu@physx@@QEAAXAEBVAABBTreeBuildParams@23@AEAUSAH_Buffers@23@AEAUBuildStats@23@AEAVNodeAllocator@23@QEAI@Z 00000001801811e0 f   GuAABBTree.obj
 0001:001802d0       ?traverseRuntimeNode@AABBTree@Gu@physx@@AEAAXAEAUBVHNode@23@AEBVAABBTreeMergeData@23@I@Z 00000001801812d0 f   GuAABBTree.obj
 0001:001803c0       ?initMap@AABBTreeUpdateMap@Gu@physx@@QEAAXIAEBVAABBTree@23@@Z 00000001801813c0 f   GuAABBTreeUpdateMap.obj
 0001:00180500       ?invalidate@AABBTreeUpdateMap@Gu@physx@@QEAAXIIAEAVAABBTree@23@@Z 0000000180181500 f   GuAABBTreeUpdateMap.obj
 0001:001807a0       ?visualizeTree@@YAXAEAVPxRenderOutput@physx@@IPEBVAABBTree@Gu@2@@Z 00000001801817a0 f   GuSqInternal.obj
 0001:00180810       ?visualizeTree@@YAXAEAVPxRenderOutput@physx@@IPEBVBVH@Gu@2@@Z 0000000180181810 f   GuSqInternal.obj
 0001:00180880       ?visualizeTree@@YAXAEAVPxRenderOutput@physx@@IPEBVIncrementalAABBTree@Gu@2@PEAVDebugVizCallback@2@@Z 0000000180181880 f   GuSqInternal.obj
 0001:00180900       ??$PxSort@PEAXU?$PxLess@PEAX@physx@@V?$PxReflectionAllocator@UAABBTreeIndices@Gu@physx@@@2@@physx@@YAXPEAPEAXIAEBU?$PxLess@PEAX@0@AEBV?$PxReflectionAllocator@UAABBTreeIndices@Gu@physx@@@0@I@Z 0000000180181900 f i GuIncrementalAABBTree.obj
 0001:00180d50       ??$PxSort@PEAXU?$PxLess@PEAX@physx@@V?$PxReflectionAllocator@UIncrementalAABBTreeNodePair@Gu@physx@@@2@@physx@@YAXPEAPEAXIAEBU?$PxLess@PEAX@0@AEBV?$PxReflectionAllocator@UIncrementalAABBTreeNodePair@Gu@physx@@@0@I@Z 0000000180181d50 f i GuIncrementalAABBTree.obj
 0001:001811a0       ??0IncrementalAABBTree@Gu@physx@@QEAA@XZ 00000001801821a0 f   GuIncrementalAABBTree.obj
 0001:00181220       ??1?$PxPoolBase@UAABBTreeIndices@Gu@physx@@V?$PxReflectionAllocator@UAABBTreeIndices@Gu@physx@@@3@@physx@@QEAA@XZ 0000000180182220 f i GuIncrementalAABBTree.obj
 0001:00181380       ??1?$PxPoolBase@UIncrementalAABBTreeNodePair@Gu@physx@@V?$PxReflectionAllocator@UIncrementalAABBTreeNodePair@Gu@physx@@@3@@physx@@QEAA@XZ 0000000180182380 f i GuIncrementalAABBTree.obj
 0001:001814e0       ??1IncrementalAABBTree@Gu@physx@@QEAA@XZ 00000001801824e0 f   GuIncrementalAABBTree.obj
 0001:00181520       ?allocate@?$PxPoolBase@UAABBTreeIndices@Gu@physx@@V?$PxReflectionAllocator@UAABBTreeIndices@Gu@physx@@@3@@physx@@QEAAPEAUAABBTreeIndices@Gu@2@XZ 0000000180182520 f i GuIncrementalAABBTree.obj
 0001:00181620       ?allocate@?$PxPoolBase@UIncrementalAABBTreeNodePair@Gu@physx@@V?$PxReflectionAllocator@UIncrementalAABBTreeNodePair@Gu@physx@@@3@@physx@@QEAAPEAUIncrementalAABBTreeNodePair@Gu@2@XZ 0000000180182620 f i GuIncrementalAABBTree.obj
 0001:00181740       ?build@IncrementalAABBTree@Gu@physx@@QEAA_NAEBVAABBTreeBuildParams@23@AEAV?$PxArray@PEAVIncrementalAABBTreeNode@Gu@physx@@V?$PxReflectionAllocator@PEAVIncrementalAABBTreeNode@Gu@physx@@@3@@3@@Z 0000000180182740 f   GuIncrementalAABBTree.obj
 0001:00181930       ?clone@IncrementalAABBTree@Gu@physx@@AEAAXAEAV?$PxArray@PEAVIncrementalAABBTreeNode@Gu@physx@@V?$PxReflectionAllocator@PEAVIncrementalAABBTreeNode@Gu@physx@@@3@@3@PEBIPEAPEAVIncrementalAABBTreeNode@23@@Z 0000000180182930 f   GuIncrementalAABBTree.obj
 0001:00181e40       ?copy@IncrementalAABBTree@Gu@physx@@QEAAXAEBVBVH@23@AEAV?$PxArray@PEAVIncrementalAABBTreeNode@Gu@physx@@V?$PxReflectionAllocator@PEAVIncrementalAABBTreeNode@Gu@physx@@@3@@3@@Z 0000000180182e40 f   GuIncrementalAABBTree.obj
 0001:00181ef0       ?copyNode@IncrementalAABBTree@Gu@physx@@AEAAXAEAVIncrementalAABBTreeNode@23@AEBUBVHNode@23@PEBU523@PEAV423@PEBIAEAV?$PxArray@PEAVIncrementalAABBTreeNode@Gu@physx@@V?$PxReflectionAllocator@PEAVIncrementalAABBTreeNode@Gu@physx@@@3@@3@@Z 0000000180182ef0 f   GuIncrementalAABBTree.obj
 0001:001820b0       ?fixupTreeIndices@IncrementalAABBTree@Gu@physx@@QEAAXPEAVIncrementalAABBTreeNode@23@II@Z 00000001801830b0 f   GuIncrementalAABBTree.obj
 0001:001820e0       ?getTreeLeafDepth@IncrementalAABBTree@Gu@physx@@QEAAIPEAVIncrementalAABBTreeNode@23@@Z 00000001801830e0 f   GuIncrementalAABBTree.obj
 0001:00182100       ?growAndPushBack@?$PxArray@PEAVIncrementalAABBTreeNode@Gu@physx@@V?$PxReflectionAllocator@PEAVIncrementalAABBTreeNode@Gu@physx@@@3@@physx@@IEAAAEAPEAVIncrementalAABBTreeNode@Gu@2@AEBQEAV342@@Z 0000000180183100 f i GuIncrementalAABBTree.obj
 0001:00182240       ?growAndPushBack@?$PxArray@PEAXV?$PxReflectionAllocator@UAABBTreeIndices@Gu@physx@@@physx@@@physx@@IEAAAEAPEAXAEBQEAX@Z 0000000180183240 f i GuIncrementalAABBTree.obj
 0001:00182380       ?growAndPushBack@?$PxArray@PEAXV?$PxReflectionAllocator@UIncrementalAABBTreeNodePair@Gu@physx@@@physx@@@physx@@IEAAAEAPEAXAEBQEAX@Z 0000000180183380 f i GuIncrementalAABBTree.obj
 0001:001824c0       ?hierarchyCheck@IncrementalAABBTree@Gu@physx@@QEAAXIPEBVPxBounds3@3@@Z 00000001801834c0 f   GuIncrementalAABBTree.obj
 0001:00182620       ?hierarchyCheck@IncrementalAABBTree@Gu@physx@@QEAAXPEBVPxBounds3@3@@Z 0000000180183620 f   GuIncrementalAABBTree.obj
 0001:00182780       ?insert@IncrementalAABBTree@Gu@physx@@QEAAPEAVIncrementalAABBTreeNode@23@IPEBVPxBounds3@3@AEAV?$PxArray@PEAVIncrementalAABBTreeNode@Gu@physx@@V?$PxReflectionAllocator@PEAVIncrementalAABBTreeNode@Gu@physx@@@3@@3@@Z 0000000180183780 f   GuIncrementalAABBTree.obj
 0001:00182e70       ?recreate@?$PxArray@PEAXV?$PxReflectionAllocator@UAABBTreeIndices@Gu@physx@@@physx@@@physx@@IEAAXI@Z 0000000180183e70 f i GuIncrementalAABBTree.obj
 0001:00182f80       ?recreate@?$PxArray@PEAXV?$PxReflectionAllocator@UIncrementalAABBTreeNodePair@Gu@physx@@@physx@@@physx@@IEAAXI@Z 0000000180183f80 f i GuIncrementalAABBTree.obj
 0001:00183090       ?release@IncrementalAABBTree@Gu@physx@@QEAAXXZ 0000000180184090 f   GuIncrementalAABBTree.obj
 0001:001830c0       ?releaseNode@IncrementalAABBTree@Gu@physx@@AEAAXPEAVIncrementalAABBTreeNode@23@@Z 00000001801840c0 f   GuIncrementalAABBTree.obj
 0001:00183150       ?remove@IncrementalAABBTree@Gu@physx@@QEAAPEAVIncrementalAABBTreeNode@23@PEAV423@IPEBVPxBounds3@3@@Z 0000000180184150 f   GuIncrementalAABBTree.obj
 0001:00183450       ?rotateTree@IncrementalAABBTree@Gu@physx@@AEAAXPEAVIncrementalAABBTreeNode@23@AEAV?$PxArray@PEAVIncrementalAABBTreeNode@Gu@physx@@V?$PxReflectionAllocator@PEAVIncrementalAABBTreeNode@Gu@physx@@@3@@3@IPEBVPxBounds3@3@_N@Z 0000000180184450 f   GuIncrementalAABBTree.obj
 0001:00183d00       ?shiftOrigin@IncrementalAABBTree@Gu@physx@@QEAAXAEBV?$PxVec3T@M@3@@Z 0000000180184d00 f   GuIncrementalAABBTree.obj
 0001:00183d60       ?splitLeafNode@IncrementalAABBTree@Gu@physx@@AEAAPEAVIncrementalAABBTreeNode@23@PEAV423@IAEBT__m128@@1PEBVPxBounds3@3@@Z 0000000180184d60 f   GuIncrementalAABBTree.obj
 0001:00184060       ?update@IncrementalAABBTree@Gu@physx@@QEAAPEAVIncrementalAABBTreeNode@23@PEAV423@IPEBVPxBounds3@3@AEAV?$PxArray@PEAVIncrementalAABBTreeNode@Gu@physx@@V?$PxReflectionAllocator@PEAVIncrementalAABBTreeNode@Gu@physx@@@3@@3@@Z 0000000180185060 f   GuIncrementalAABBTree.obj
 0001:00184120       ?updateFast@IncrementalAABBTree@Gu@physx@@QEAAPEAVIncrementalAABBTreeNode@23@PEAV423@IPEBVPxBounds3@3@AEAV?$PxArray@PEAVIncrementalAABBTreeNode@Gu@physx@@V?$PxReflectionAllocator@PEAVIncrementalAABBTreeNode@Gu@physx@@@3@@3@@Z 0000000180185120 f   GuIncrementalAABBTree.obj
 0001:00184320       ??0SAH_Buffers@Gu@physx@@QEAA@I@Z 0000000180185320 f   GuSAH.obj
 0001:00184430       ??1SAH_Buffers@Gu@physx@@QEAA@XZ 0000000180185430 f   GuSAH.obj
 0001:00184500       ?split@SAH_Buffers@Gu@physx@@QEAA_NAEAIIPEIBIPEIBVPxBounds3@3@PEIBV?$PxVec3T@M@3@@Z 0000000180185500 f   GuSAH.obj
 0001:00184c20       ??0?$OBBAABBTests@$00@Gu@physx@@QEAA@AEBV?$PxVec3T@M@2@AEBV?$PxMat33T@M@2@0@Z 0000000180185c20 f i GuBVH.obj
 0001:00184de0       ??0BVH@Gu@physx@@QEAA@AEBUPxBVHInternalData@2@@Z 0000000180185de0 f   GuBVH.obj
 0001:00184ea0       ??0BVH@Gu@physx@@QEAA@PEAVMeshFactory@12@@Z 0000000180185ea0 f   GuBVH.obj
 0001:00184f10       ??0BVH@Gu@physx@@QEAA@PEAVMeshFactory@12@AEAVBVHData@12@@Z 0000000180185f10 f   GuBVH.obj
 0001:00184fc0       ??1BVHData@Gu@physx@@QEAA@XZ 0000000180185fc0 f i GuBVH.obj
 0001:00188824       ??_EBVH@Gu@physx@@WBA@EAAPEAXI@Z 0000000180189824 f i GuBVH.obj
 0001:00188830       ??_EBVH@Gu@physx@@UEAAPEAXI@Z 0000000180189830 f i GuBVH.obj
 0001:00188830       ??_GBVH@Gu@physx@@UEAAPEAXI@Z 0000000180189830 f i GuBVH.obj
 0001:001888c0       ??_GRefCountable@Cm@physx@@UEAAPEAXI@Z 00000001801898c0 f i GuBVH.obj
 0001:001888c0       ??_ERefCountable@Cm@physx@@UEAAPEAXI@Z 00000001801898c0 f i GuBVH.obj
 0001:00188af0       ?allocate@?$PxArray@PEBUBVHNode@Gu@physx@@V?$PxInlineAllocator@$0IAA@V?$PxReflectionAllocator@PEBUBVHNode@Gu@physx@@@physx@@@3@@physx@@IEAAPEAPEBUBVHNode@Gu@2@IPEAI@Z 0000000180189af0 f i GuBVH.obj
 0001:00188bc0       ?build@BVHData@Gu@physx@@QEAA_NIPEBXIMIW4BVHBuildStrategy@23@@Z 0000000180189bc0 f   GuBVH.obj
 0001:00188fc0       ?cull@BVH@Gu@physx@@UEBA_NIPEBVPxPlane@3@AEAUOverlapCallback@PxBVH@3@V?$PxFlags@W4Enum@PxGeometryQueryFlag@physx@@I@3@@Z 0000000180189fc0 f   GuBVH.obj
 0001:00189910       ?getConcreteTypeName@PxBVH@physx@@UEBAPEBDXZ 000000018018a910 f i GuBVH.obj
 0001:00189920       ?init@BVH@Gu@physx@@QEAA_NIPEAVAABBTreeBounds@23@PEBXIW4BVHBuildStrategy@23@IM@Z 000000018018a920 f   GuBVH.obj
 0001:00189d40       ?isKindOf@PxBVH@physx@@MEBA_NPEBD@Z 000000018018ad40 f i GuBVH.obj
 0001:00189db0       ?load@BVH@Gu@physx@@QEAA_NAEAVPxInputStream@3@@Z 000000018018adb0 f   GuBVH.obj
 0001:00189f50       ?onRefCountZero@BVH@Gu@physx@@UEAAXXZ 000000018018af50 f   GuBVH.obj
 0001:0018a030       ?onRefCountZero@RefCountable@Cm@physx@@UEAAXXZ 000000018018b030 f i GuBVH.obj
 0001:0018a050       ?overlap@BVH@Gu@physx@@QEBA_NAEBVShapeData@23@AEAUOverlapCallback@PxBVH@3@V?$PxFlags@W4Enum@PxGeometryQueryFlag@physx@@I@3@@Z 000000018018b050 f   GuBVH.obj
 0001:0018a890       ?overlap@BVH@Gu@physx@@UEBA_NAEBVPxGeometry@3@AEBV?$PxTransformT@M@3@AEAUOverlapCallback@PxBVH@3@V?$PxFlags@W4Enum@PxGeometryQueryFlag@physx@@I@3@@Z 000000018018b890 f   GuBVH.obj
 0001:0018a8f0       ?partialRefit@BVH@Gu@physx@@UEAAXXZ 000000018018b8f0 f   GuBVH.obj
 0001:0018a900       ?raycast@BVH@Gu@physx@@UEBA_NAEBV?$PxVec3T@M@3@0MAEAURaycastCallback@PxBVH@3@V?$PxFlags@W4Enum@PxGeometryQueryFlag@physx@@I@3@@Z 000000018018b900 f   GuBVH.obj
 0001:0018aa30       ?recreate@?$PxArray@PEBUBVHNode@Gu@physx@@V?$PxInlineAllocator@$0IAA@V?$PxReflectionAllocator@PEBUBVHNode@Gu@physx@@@physx@@@3@@physx@@IEAAXI@Z 000000018018ba30 f i GuBVH.obj
 0001:0018ab00       ?refit@BVH@Gu@physx@@UEAAXXZ 000000018018bb00 f   GuBVH.obj
 0001:0018ab10       ?release@BVH@Gu@physx@@UEAAXXZ 000000018018bb10 f   GuBVH.obj
 0001:0018ab40       ?resizeUninitialized@?$PxArray@PEBUBVHNode@Gu@physx@@V?$PxInlineAllocator@$0IAA@V?$PxReflectionAllocator@PEBUBVHNode@Gu@physx@@@physx@@@3@@physx@@QEAAXI@Z 000000018018bb40 f i GuBVH.obj
 0001:0018ab90       ?save@BVHData@Gu@physx@@QEBA_NAEAVPxOutputStream@3@_N@Z 000000018018bb90 f   GuBVH.obj
 0001:0018ad00       ?sweep@BVH@Gu@physx@@QEBA_NAEBVShapeData@23@AEBV?$PxVec3T@M@3@MAEAURaycastCallback@PxBVH@3@V?$PxFlags@W4Enum@PxGeometryQueryFlag@physx@@I@3@@Z 000000018018bd00 f   GuBVH.obj
 0001:0018aec0       ?sweep@BVH@Gu@physx@@UEBA_NAEBVPxGeometry@3@AEBV?$PxTransformT@M@3@AEBV?$PxVec3T@M@3@MAEAURaycastCallback@PxBVH@3@V?$PxFlags@W4Enum@PxGeometryQueryFlag@physx@@I@3@@Z 000000018018bec0 f   GuBVH.obj
 0001:0018af40       ?traverse@BVH@Gu@physx@@UEBA_NAEAUTraversalCallback@PxBVH@3@@Z 000000018018bf40 f   GuBVH.obj
 0001:0018b0d0       ?updateBounds@BVH@Gu@physx@@UEAA_NIAEBVPxBounds3@3@@Z 000000018018c0d0 f   GuBVH.obj
 0001:0018b180       ?updateBoundsInternal@BVH@Gu@physx@@QEAA_NIAEBVPxBounds3@3@@Z 000000018018c180 f   GuBVH.obj
 0001:0018b230       PxFindOverlap              000000018018c230 f   GuBVH.obj
 0001:0018b320       PxGetBVHInternalData       000000018018c320 f   GuBVH.obj
 0001:0018b360       ??0IncrementalAABBPrunerCore@Gu@physx@@QEAA@PEBVPruningPool@12@@Z 000000018018c360 f   GuIncrementalAABBPrunerCore.obj
 0001:0018b470       ??1IncrementalAABBPrunerCore@Gu@physx@@QEAA@XZ 000000018018c470 f   GuIncrementalAABBPrunerCore.obj
 0001:0018b5e0       ??R?$AABBTreeOverlap@$00U?$OBBAABBTests@$00@Gu@physx@@VIncrementalAABBTree@23@VIncrementalAABBTreeNode@23@UOverlapCallbackAdapter@23@@Gu@physx@@QEAA_NAEBVAABBTreeBounds@12@AEBVIncrementalAABBTree@12@AEBU?$OBBAABBTests@$00@12@AEAUOverlapCallbackAdapter@12@@Z 000000018018c5e0 f i GuIncrementalAABBPrunerCore.obj
 0001:0018bb90       ??R?$AABBTreeOverlap@$00UAABBAABBTest@Gu@physx@@VIncrementalAABBTree@23@VIncrementalAABBTreeNode@23@UOverlapCallbackAdapter@23@@Gu@physx@@QEAA_NAEBVAABBTreeBounds@12@AEBVIncrementalAABBTree@12@AEBUAABBAABBTest@12@AEAUOverlapCallbackAdapter@12@@Z 000000018018cb90 f i GuIncrementalAABBPrunerCore.obj
 0001:0018be10       ??R?$AABBTreeOverlap@$00UCapsuleAABBTest@Gu@physx@@VIncrementalAABBTree@23@VIncrementalAABBTreeNode@23@UOverlapCallbackAdapter@23@@Gu@physx@@QEAA_NAEBVAABBTreeBounds@12@AEBVIncrementalAABBTree@12@AEBUCapsuleAABBTest@12@AEAUOverlapCallbackAdapter@12@@Z 000000018018ce10 f i GuIncrementalAABBPrunerCore.obj
 0001:0018c170       ??R?$AABBTreeOverlap@$00USphereAABBTest@Gu@physx@@VIncrementalAABBTree@23@VIncrementalAABBTreeNode@23@UOverlapCallbackAdapter@23@@Gu@physx@@QEAA_NAEBVAABBTreeBounds@12@AEBVIncrementalAABBTree@12@AEBUSphereAABBTest@12@AEAUOverlapCallbackAdapter@12@@Z 000000018018d170 f i GuIncrementalAABBPrunerCore.obj
 0001:0018c460       ??R?$AABBTreeRaycast@$00$00VIncrementalAABBTree@Gu@physx@@VIncrementalAABBTreeNode@23@URaycastCallbackAdapter@23@@Gu@physx@@QEAA_NAEBVAABBTreeBounds@12@AEBVIncrementalAABBTree@12@AEBV?$PxVec3T@M@2@2AEAM2AEAURaycastCallbackAdapter@12@@Z 000000018018d460 f i GuIncrementalAABBPrunerCore.obj
 0001:0018cb00       ??R?$AABBTreeRaycast@$0A@$00VIncrementalAABBTree@Gu@physx@@VIncrementalAABBTreeNode@23@URaycastCallbackAdapter@23@@Gu@physx@@QEAA_NAEBVAABBTreeBounds@12@AEBVIncrementalAABBTree@12@AEBV?$PxVec3T@M@2@2AEAM2AEAURaycastCallbackAdapter@12@@Z 000000018018db00 f i GuIncrementalAABBPrunerCore.obj
 0001:0018d150       ?addObject@IncrementalAABBPrunerCore@Gu@physx@@QEAA_NII@Z 000000018018e150 f   GuIncrementalAABBPrunerCore.obj
 0001:0018d240       ?allocate@?$PxArray@PEBVIncrementalAABBTreeNode@Gu@physx@@V?$PxInlineAllocator@$0IAA@V?$PxReflectionAllocator@PEBVIncrementalAABBTreeNode@Gu@physx@@@physx@@@3@@physx@@IEAAPEAPEBVIncrementalAABBTreeNode@Gu@2@IPEAI@Z 000000018018e240 f i GuIncrementalAABBPrunerCore.obj
 0001:0018d310       ?clear@?$PxHashMapBase@UPrunerPayload@Gu@physx@@UExtendedBucketPrunerData@23@UExtendedBucketPrunerHash@23@VPxAllocator@3@@physx@@QEAAXXZ 000000018018e310 f i GuExtendedBucketPruner.obj
 0001:0018d310       ?clear@?$PxHashMapBase@IPEAVIncrementalAABBTreeNode@Gu@physx@@U?$PxHash@I@3@VPxAllocator@3@@physx@@QEAAXXZ 000000018018e310 f i GuIncrementalAABBPrunerCore.obj
 0001:0018d3a0       ?create@?$PxHashBase@V?$PxPair@$$CBIPEAVIncrementalAABBTreeNode@Gu@physx@@@physx@@IU?$PxHash@I@2@UGetKey@?$PxHashMapBase@IPEAVIncrementalAABBTreeNode@Gu@physx@@U?$PxHash@I@3@VPxAllocator@3@@2@VPxAllocator@2@$00@physx@@QEAAPEAV?$PxPair@$$CBIPEAVIncrementalAABBTreeNode@Gu@physx@@@2@AEBIAEA_N@Z 000000018018e3a0 f i GuIncrementalAABBPrunerCore.obj
 0001:0018d4f0       ?erase@?$PxHashBase@V?$PxPair@$$CBIPEAVIncrementalAABBTreeNode@Gu@physx@@@physx@@IU?$PxHash@I@2@UGetKey@?$PxHashMapBase@IPEAVIncrementalAABBTreeNode@Gu@physx@@U?$PxHash@I@3@VPxAllocator@3@@2@VPxAllocator@2@$00@physx@@QEAA_NAEBIAEAV?$PxPair@$$CBIPEAVIncrementalAABBTreeNode@Gu@physx@@@2@@Z 000000018018e4f0 f i GuIncrementalAABBPrunerCore.obj
 0001:0018d650       ?getMesh@CollisionTetrahedronMeshData@Gu@physx@@UEBAPEBVPxTetrahedronMeshData@3@XZ 000000018018e650 f i GuCookingTetrahedronMesh.obj
 0001:0018d650       ?getMesh@CollisionTetrahedronMeshData@Gu@physx@@UEAAPEAVPxTetrahedronMeshData@3@XZ 000000018018e650 f i GuCookingTetrahedronMesh.obj
 0001:0018d650       ?getCurrentWorldBoxes@PruningPool@Gu@physx@@QEBAPEBVPxBounds3@3@XZ 000000018018e650 f i GuIncrementalAABBPrunerCore.obj
 0001:0018d650       ?getCurrentWorldBoxes@PruningPool@Gu@physx@@QEAAPEAVPxBounds3@3@XZ 000000018018e650 f i GuIncrementalAABBPrunerCore.obj
 0001:0018d650       ?getMesh@SimulationTetrahedronMeshData@Gu@physx@@UEAAPEAVPxTetrahedronMeshData@3@XZ 000000018018e650 f i GuCookingTetrahedronMesh.obj
 0001:0018d660       ?getGlobalBounds@IncrementalAABBPrunerCore@Gu@physx@@QEBAXAEAVPxBounds3@3@@Z 000000018018e660 f   GuIncrementalAABBPrunerCore.obj
 0001:0018d780       ?getIndex@PruningPool@Gu@physx@@QEBAII@Z 000000018018e780 f i GuIncrementalAABBPrunerCore.obj
 0001:0018d790       ?getPayloadData@PruningPool@Gu@physx@@QEBAAEBUPrunerPayload@23@IPEAUPrunerPayloadData@23@@Z 000000018018e790 f i GuIncrementalAABBPrunerCore.obj
 0001:0018d7e0       ?overlap@IncrementalAABBPrunerCore@Gu@physx@@QEBA_NAEBVShapeData@23@AEAUPrunerOverlapCallback@23@@Z 000000018018e7e0 f   GuIncrementalAABBPrunerCore.obj
 0001:0018e2e0       ?raycast@IncrementalAABBPrunerCore@Gu@physx@@QEBA_NAEBV?$PxVec3T@M@3@0AEAMAEAUPrunerRaycastCallback@23@@Z 000000018018f2e0 f   GuIncrementalAABBPrunerCore.obj
 0001:0018e3c0       ?recreate@?$PxArray@PEAVIncrementalAABBTreeNode@Gu@physx@@V?$PxReflectionAllocator@PEAVIncrementalAABBTreeNode@Gu@physx@@@3@@physx@@IEAAXI@Z 000000018018f3c0 f i GuIncrementalAABBPrunerCore.obj
 0001:0018e4d0       ?recreate@?$PxArray@PEBVIncrementalAABBTreeNode@Gu@physx@@V?$PxInlineAllocator@$0IAA@V?$PxReflectionAllocator@PEBVIncrementalAABBTreeNode@Gu@physx@@@physx@@@3@@physx@@IEAAXI@Z 000000018018f4d0 f i GuIncrementalAABBPrunerCore.obj
 0001:0018e5a0       ?release@IncrementalAABBPrunerCore@Gu@physx@@QEAAXXZ 000000018018f5a0 f   GuIncrementalAABBPrunerCore.obj
 0001:0018e6a0       ?removeMarkedObjects@IncrementalAABBPrunerCore@Gu@physx@@QEAAII@Z 000000018018f6a0 f   GuIncrementalAABBPrunerCore.obj
 0001:0018e700       ?removeObject@IncrementalAABBPrunerCore@Gu@physx@@QEAA_NIIAEAI@Z 000000018018f700 f   GuIncrementalAABBPrunerCore.obj
 0001:0018e900       ?reserveInternal@?$PxHashBase@V?$PxPair@$$CBIPEAVIncrementalAABBTreeNode@Gu@physx@@@physx@@IU?$PxHash@I@2@UGetKey@?$PxHashMapBase@IPEAVIncrementalAABBTreeNode@Gu@physx@@U?$PxHash@I@3@VPxAllocator@3@@2@VPxAllocator@2@$00@physx@@AEAAXI@Z 000000018018f900 f i GuIncrementalAABBPrunerCore.obj
 0001:0018eac0       ?resizeUninitialized@?$PxArray@PEBVIncrementalAABBTreeNode@Gu@physx@@V?$PxInlineAllocator@$0IAA@V?$PxReflectionAllocator@PEBVIncrementalAABBTreeNode@Gu@physx@@@physx@@@3@@physx@@QEAAXI@Z 000000018018fac0 f i GuIncrementalAABBPrunerCore.obj
 0001:0018eb10       ?setTransform@PruningPool@Gu@physx@@QEAA_NIAEBV?$PxTransformT@M@3@@Z 000000018018fb10 f i GuIncrementalAABBPrunerCore.obj
 0001:0018eb70       ?shiftOrigin@IncrementalAABBPrunerCore@Gu@physx@@QEAAXAEBV?$PxVec3T@M@3@@Z 000000018018fb70 f   GuIncrementalAABBPrunerCore.obj
 0001:0018ebc0       ?swapIndex@IncrementalAABBPrunerCore@Gu@physx@@QEAAXII@Z 000000018018fbc0 f   GuIncrementalAABBPrunerCore.obj
 0001:0018ec90       ?sweep@IncrementalAABBPrunerCore@Gu@physx@@QEBA_NAEBVShapeData@23@AEBV?$PxVec3T@M@3@AEAMAEAUPrunerRaycastCallback@23@@Z 000000018018fc90 f   GuIncrementalAABBPrunerCore.obj
 0001:0018ee20       ?updateMapping@IncrementalAABBPrunerCore@Gu@physx@@AEAAXAEAV?$PxHashMap@IPEAVIncrementalAABBTreeNode@Gu@physx@@U?$PxHash@I@3@VPxAllocator@3@@3@IPEAVIncrementalAABBTreeNode@23@@Z 000000018018fe20 f   GuIncrementalAABBPrunerCore.obj
 0001:0018ef50       ?updateObject@IncrementalAABBPrunerCore@Gu@physx@@QEAA_NI@Z 000000018018ff50 f   GuIncrementalAABBPrunerCore.obj
 0001:0018f0f0       ?visualize@IncrementalAABBPrunerCore@Gu@physx@@QEBAXAEAVPxRenderOutput@3@I@Z 00000001801900f0 f   GuIncrementalAABBPrunerCore.obj
 0001:0018f150       ??0IncrementalAABBPruner@Gu@physx@@QEAA@I_K@Z 0000000180190150 f   GuIncrementalAABBPruner.obj
 0001:0018f200       ??_EBasePruner@Gu@physx@@UEAAPEAXI@Z 0000000180190200 f i GuIncrementalAABBPruner.obj
 0001:0018f200       ??_GBasePruner@Gu@physx@@UEAAPEAXI@Z 0000000180190200 f i GuIncrementalAABBPruner.obj
 0001:0018f250       ??_EIncrementalAABBPruner@Gu@physx@@UEAAPEAXI@Z 0000000180190250 f i GuIncrementalAABBPruner.obj
 0001:0018f250       ??_GIncrementalAABBPruner@Gu@physx@@UEAAPEAXI@Z 0000000180190250 f i GuIncrementalAABBPruner.obj
 0001:0018f360       ?addObjects@IncrementalAABBPruner@Gu@physx@@UEAA_NPEAIPEBVPxBounds3@3@PEBUPrunerPayload@23@PEBV?$PxTransformT@M@3@I_N@Z 0000000180190360 f   GuIncrementalAABBPruner.obj
 0001:0018f4e0       ?commit@IncrementalAABBPruner@Gu@physx@@UEAAXXZ 00000001801904e0 f   GuIncrementalAABBPruner.obj
 0001:0018f6b0       ?getGlobalBounds@IncrementalAABBPruner@Gu@physx@@UEBAXAEAVPxBounds3@3@@Z 00000001801906b0 f   GuIncrementalAABBPruner.obj
 0001:0018f720       ?getPayloadData@IncrementalAABBPruner@Gu@physx@@UEBAAEBUPrunerPayload@23@IPEAUPrunerPayloadData@23@@Z 0000000180190720 f i GuIncrementalAABBPruner.obj
 0001:0018f770       ?overlap@IncrementalAABBPruner@Gu@physx@@UEBA_NAEBVShapeData@23@AEAUPrunerOverlapCallback@23@@Z 0000000180190770 f   GuIncrementalAABBPruner.obj
 0001:0018fd10       ?preallocate@IncrementalAABBPruner@Gu@physx@@UEAAXI@Z 0000000180190d10 f i GuIncrementalAABBPruner.obj
 0001:0018fd20       ?purge@IncrementalAABBPruner@Gu@physx@@UEAAXXZ 0000000180190d20 f   GuIncrementalAABBPruner.obj
 0001:0018fd70       ?raycast@IncrementalAABBPruner@Gu@physx@@UEBA_NAEBV?$PxVec3T@M@3@0AEAMAEAUPrunerRaycastCallback@23@@Z 0000000180190d70 f   GuIncrementalAABBPruner.obj
 0001:0018fdf0       ?removeObjects@IncrementalAABBPruner@Gu@physx@@UEAAXPEBIIPEAUPrunerPayloadRemovalCallback@23@@Z 0000000180190df0 f   GuIncrementalAABBPruner.obj
 0001:00190000       ?resize@?$PxArray@PEAVIncrementalAABBTreeNode@Gu@physx@@V?$PxReflectionAllocator@PEAVIncrementalAABBTreeNode@Gu@physx@@@3@@physx@@QEAAXIAEBQEAVIncrementalAABBTreeNode@Gu@2@@Z 0000000180191000 f i GuIncrementalAABBPruner.obj
 0001:001900c0       ?resizeUninitialized@?$PxArray@PEAVIncrementalAABBTreeNode@Gu@physx@@V?$PxReflectionAllocator@PEAVIncrementalAABBTreeNode@Gu@physx@@@3@@physx@@QEAAXI@Z 00000001801910c0 f i GuIncrementalAABBPruner.obj
 0001:00190100       ?setTransform@IncrementalAABBPruner@Gu@physx@@UEAA_NIAEBV?$PxTransformT@M@3@@Z 0000000180191100 f i GuIncrementalAABBPruner.obj
 0001:00190160       ?shiftOrigin@IncrementalAABBPruner@Gu@physx@@UEAAXAEBV?$PxVec3T@M@3@@Z 0000000180191160 f   GuIncrementalAABBPruner.obj
 0001:001901a0       ?sweep@IncrementalAABBPruner@Gu@physx@@UEBA_NAEBVShapeData@23@AEBV?$PxVec3T@M@3@AEAMAEAUPrunerRaycastCallback@23@@Z 00000001801911a0 f   GuIncrementalAABBPruner.obj
 0001:001902c0       ?updateMapping@IncrementalAABBPruner@Gu@physx@@AEAAXIPEAVIncrementalAABBTreeNode@23@@Z 00000001801912c0 f   GuIncrementalAABBPruner.obj
 0001:001903b0       ?updateObjects@IncrementalAABBPruner@Gu@physx@@UEAAXPEBIIM0PEBVPxBounds3@3@PEBUPxTransformPadded@3@@Z 00000001801913b0 f   GuIncrementalAABBPruner.obj
 0001:00190570       ?visualize@IncrementalAABBPruner@Gu@physx@@UEBAXAEAVPxRenderOutput@3@II@Z 0000000180191570 f   GuIncrementalAABBPruner.obj
 0001:00190760       ??0PruningPool@Gu@physx@@QEAA@_KW4TransformCacheMode@12@@Z 0000000180191760 f   GuPruningPool.obj
 0001:00190790       ??1PruningPool@Gu@physx@@QEAA@XZ 0000000180191790 f   GuPruningPool.obj
 0001:00190860       ?addObjects@PruningPool@Gu@physx@@QEAAIPEAIPEBVPxBounds3@3@PEBUPrunerPayload@23@PEBV?$PxTransformT@M@3@I@Z 0000000180191860 f   GuPruningPool.obj
 0001:00190ae0       ?preallocate@PruningPool@Gu@physx@@QEAAXI@Z 0000000180191ae0 f   GuPruningPool.obj
 0001:00190af0       ?removeObject@PruningPool@Gu@physx@@QEAAIIPEAUPrunerPayloadRemovalCallback@23@@Z 0000000180191af0 f   GuPruningPool.obj
 0001:00190cc0       ?resize@PruningPool@Gu@physx@@QEAA_NI@Z 0000000180191cc0 f   GuPruningPool.obj
 0001:00191050       ?shiftOrigin@PruningPool@Gu@physx@@QEAAXAEBV?$PxVec3T@M@3@@Z 0000000180192050 f   GuPruningPool.obj
 0001:001914a0       ?updateAndInflateBounds@PruningPool@Gu@physx@@QEAAXPEBI0PEBVPxBounds3@3@PEBUPxTransformPadded@3@IM@Z 00000001801924a0 f   GuPruningPool.obj
 0001:00192f90       ??0BucketPruner@Gu@physx@@QEAA@_K@Z 0000000180193f90 f   GuBucketPruner.obj
 0001:00192fe0       ??0BucketPrunerCore@Gu@physx@@QEAA@_N@Z 0000000180193fe0 f   GuBucketPruner.obj
 0001:00193360       ??1BucketPrunerCore@Gu@physx@@QEAA@XZ 0000000180194360 f   GuBucketPruner.obj
 0001:001934b0       ??R?$BucketPrunerOverlapTraversal@UBucketPrunerAABBAABBTest@@$00@@QEBA_NAEBVBucketPrunerCore@Gu@physx@@AEBUBucketPrunerAABBAABBTest@@AEAUPrunerOverlapCallback@23@AEBVPxBounds3@3@@Z 00000001801944b0 f i GuBucketPruner.obj
 0001:00193a90       ??R?$BucketPrunerOverlapTraversal@UOBBAABBTest_SIMD@@$0A@@@QEBA_NAEBVBucketPrunerCore@Gu@physx@@AEBUOBBAABBTest_SIMD@@AEAUPrunerOverlapCallback@23@AEBVPxBounds3@3@@Z 0000000180194a90 f i GuBucketPruner.obj
 0001:001942f0       ??R?$BucketPrunerOverlapTraversal@USphereAABBTest_SIMD@@$00@@QEBA_NAEBVBucketPrunerCore@Gu@physx@@AEBUSphereAABBTest_SIMD@@AEAUPrunerOverlapCallback@23@AEBVPxBounds3@3@@Z 00000001801952f0 f i GuBucketPruner.obj
 0001:001948d0       ??_FBucketPrunerCore@Gu@physx@@QEAAXXZ 00000001801958d0 f i GuBucketPruner.obj
 0001:001948e0       ??_GBucketPruner@Gu@physx@@UEAAPEAXI@Z 00000001801958e0 f i GuBucketPruner.obj
 0001:001948e0       ??_EBucketPruner@Gu@physx@@UEAAPEAXI@Z 00000001801958e0 f i GuBucketPruner.obj
 0001:00194970       ?addObject@BucketPrunerCore@Gu@physx@@QEAA_NAEBUPrunerPayload@23@AEBVPxBounds3@3@AEBV?$PxTransformT@M@3@I@Z 0000000180195970 f   GuBucketPruner.obj
 0001:00194c90       ?addObjects@BucketPruner@Gu@physx@@UEAA_NPEAIPEBVPxBounds3@3@PEBUPrunerPayload@23@PEBV?$PxTransformT@M@3@I_N@Z 0000000180195c90 f   GuBucketPruner.obj
 0001:00194d20       ?addPair@BucketPrunerMap@Gu@physx@@QEAAPEAUBucketPrunerPair@23@AEBUPrunerPayload@23@II@Z 0000000180195d20 f   GuBucketPruner.obj
 0001:00194f10       ?allocateSortedMemory@BucketPrunerCore@Gu@physx@@AEAAXI@Z 0000000180195f10 f   GuBucketPruner.obj
 0001:001950d0       ?classifyBoxes@BucketPrunerCore@Gu@physx@@AEAAXXZ 00000001801960d0 f   GuBucketPruner.obj
 0001:001958d0       ?classifyBoxes@BucketPrunerNode@Gu@physx@@QEAAXMMIPEIAUBucketBox@23@PEIBUPrunerPayload@23@PEIBV?$PxTransformT@M@3@0PEIAU523@PEIAV63@_NI@Z 00000001801968d0 f   GuBucketPruner.obj
 0001:001961c0       ?build@CompanionPrunerBucket@@UEAAXXZ 00000001801971c0 f   GuSecondaryPruner.obj
 0001:001961c0       ?commit@BucketPruner@Gu@physx@@UEAAXXZ 00000001801971c0 f   GuBucketPruner.obj
 0001:001961d0       ?findPair@BucketPrunerMap@Gu@physx@@QEBAPEBUBucketPrunerPair@23@AEBUPrunerPayload@23@@Z 00000001801971d0 f   GuBucketPruner.obj
 0001:001965d0       ?getGlobalBounds@BucketPruner@Gu@physx@@UEBAXAEAVPxBounds3@3@@Z 00000001801975d0 f   GuBucketPruner.obj
 0001:00196650       ?getGlobalBounds@BucketPrunerCore@Gu@physx@@QEBAXAEAVPxBounds3@3@@Z 0000000180197650 f   GuBucketPruner.obj
 0001:001966d0       ?getPayloadData@BucketPruner@Gu@physx@@UEBAAEBUPrunerPayload@23@IPEAUPrunerPayloadData@23@@Z 00000001801976d0 f i GuBucketPruner.obj
 0001:00196730       ?overlap@BucketPruner@Gu@physx@@UEBA_NAEBVShapeData@23@AEAUPrunerOverlapCallback@23@@Z 0000000180197730 f   GuBucketPruner.obj
 0001:00196750       ?overlap@BucketPrunerCore@Gu@physx@@QEBA_NAEBVShapeData@23@AEAUPrunerOverlapCallback@23@@Z 0000000180197750 f   GuBucketPruner.obj
 0001:00196a30       ?preallocate@BucketPruner@Gu@physx@@UEAAXI@Z 0000000180197a30 f i GuBucketPruner.obj
 0001:00196c20       ?purge@BucketPrunerMap@Gu@physx@@QEAAXXZ 0000000180197c20 f   GuBucketPruner.obj
 0001:00196cb0       ?raycast@BucketPruner@Gu@physx@@UEBA_NAEBV?$PxVec3T@M@3@0AEAMAEAUPrunerRaycastCallback@23@@Z 0000000180197cb0 f   GuBucketPruner.obj
 0001:00196d00       ?raycast@BucketPrunerCore@Gu@physx@@QEBA_NAEBV?$PxVec3T@M@3@0AEAMAEAUPrunerRaycastCallback@23@@Z 0000000180197d00 f   GuBucketPruner.obj
 0001:00196d40       ?reallocPairs@BucketPrunerMap@Gu@physx@@QEAAXXZ 0000000180197d40 f   GuBucketPruner.obj
 0001:00196f80       ?release@BucketPrunerCore@Gu@physx@@QEAAXXZ 0000000180197f80 f   GuBucketPruner.obj
 0001:001970c0       ?removeMarkedObjects@BucketPrunerCore@Gu@physx@@QEAAII@Z 00000001801980c0 f   GuBucketPruner.obj
 0001:00197470       ?removeObject@BucketPrunerCore@Gu@physx@@QEAA_NAEBUPrunerPayload@23@AEAI@Z 0000000180198470 f   GuBucketPruner.obj
 0001:00197730       ?removeObjects@BucketPruner@Gu@physx@@UEAAXPEBIIPEAUPrunerPayloadRemovalCallback@23@@Z 0000000180198730 f   GuBucketPruner.obj
 0001:001977e0       ?removePair@BucketPrunerMap@Gu@physx@@QEAA_NAEBUPrunerPayload@23@AEAI1@Z 00000001801987e0 f   GuBucketPruner.obj
 0001:00197960       ?removePairInternal@BucketPrunerMap@Gu@physx@@QEAAXAEBUPrunerPayload@23@II@Z 0000000180198960 f   GuBucketPruner.obj
 0001:00197ad0       ?resizeCore@BucketPrunerCore@Gu@physx@@AEAAXXZ 0000000180198ad0 f   GuBucketPruner.obj
 0001:00197d40       ?setTransform@BucketPruner@Gu@physx@@UEAA_NIAEBV?$PxTransformT@M@3@@Z 0000000180198d40 f i GuBucketPruner.obj
 0001:00197da0       ?shiftOrigin@CompanionPrunerBucket@@UEAAXAEBV?$PxVec3T@M@physx@@@Z 0000000180198da0 f   GuSecondaryPruner.obj
 0001:00197da0       ?shiftOrigin@BucketPruner@Gu@physx@@UEAAXAEBV?$PxVec3T@M@3@@Z 0000000180198da0 f   GuBucketPruner.obj
 0001:00197db0       ?shiftOrigin@BucketPrunerCore@Gu@physx@@QEAAXAEBV?$PxVec3T@M@3@@Z 0000000180198db0 f   GuBucketPruner.obj
 0001:00198cf0       ?sweep@BucketPruner@Gu@physx@@UEBA_NAEBVShapeData@23@AEBV?$PxVec3T@M@3@AEAMAEAUPrunerRaycastCallback@23@@Z 0000000180199cf0 f   GuBucketPruner.obj
 0001:00198d10       ?sweep@BucketPrunerCore@Gu@physx@@QEBA_NAEBVShapeData@23@AEBV?$PxVec3T@M@3@AEAMAEAUPrunerRaycastCallback@23@@Z 0000000180199d10 f   GuBucketPruner.obj
 0001:00198de0       ?updateObject@BucketPrunerCore@Gu@physx@@QEAA_NAEBVPxBounds3@3@AEBUPrunerPayload@23@AEBV?$PxTransformT@M@3@@Z 0000000180199de0 f   GuBucketPruner.obj
 0001:00198e40       ?updateObjects@BucketPruner@Gu@physx@@UEAAXPEBIIM0PEBVPxBounds3@3@PEBUPxTransformPadded@3@@Z 0000000180199e40 f   GuBucketPruner.obj
 0001:00198f50       ?visualize@BucketPruner@Gu@physx@@UEBAXAEAVPxRenderOutput@3@II@Z 0000000180199f50 f   GuBucketPruner.obj
 0001:00198f50       ?visualize@CompanionPrunerBucket@@UEBAXAEAVPxRenderOutput@physx@@I@Z 0000000180199f50 f   GuSecondaryPruner.obj
 0001:00198f60       ?visualize@BucketPrunerCore@Gu@physx@@QEBAXAEAVPxRenderOutput@3@I@Z 0000000180199f60 f   GuBucketPruner.obj
 0001:00199270       ?addObject@MaverickNode@Gu@physx@@QEAA_NAEBUPrunerPayload@23@IAEBVPxBounds3@3@AEBV?$PxTransformT@M@3@I@Z 000000018019a270 f   GuMaverickNode.obj
 0001:00199350       ?removeMarkedObjects@MaverickNode@Gu@physx@@QEAAII@Z 000000018019a350 f   GuMaverickNode.obj
 0001:001994d0       ?removeObject@MaverickNode@Gu@physx@@QEAA_NIAEAI@Z 000000018019a4d0 f   GuMaverickNode.obj
 0001:00199640       ?shiftOrigin@MaverickNode@Gu@physx@@QEAAXAEBV?$PxVec3T@M@3@@Z 000000018019a640 f   GuMaverickNode.obj
 0001:00199730       ?updateObject@MaverickNode@Gu@physx@@QEAA_NIAEBVPxBounds3@3@AEBV?$PxTransformT@M@3@@Z 000000018019a730 f   GuMaverickNode.obj
 0001:00199810       ??0ExtendedBucketPruner@Gu@physx@@QEAA@_KW4CompanionPrunerType@12@PEBVPruningPool@12@@Z 000000018019a810 f   GuExtendedBucketPruner.obj
 0001:00199a50       ??1ExtendedBucketPruner@Gu@physx@@QEAA@XZ 000000018019aa50 f   GuExtendedBucketPruner.obj
 0001:00199bc0       ??R?$AABBTreeOverlap@$00U?$OBBAABBTests@$00@Gu@physx@@VAABBTree@23@UBVHNode@23@U?$MainTreeOverlapPrunerCallback@U?$OBBAABBTests@$00@Gu@physx@@@@@Gu@physx@@QEAA_NAEBVAABBTreeBounds@12@AEBVAABBTree@12@AEBU?$OBBAABBTests@$00@12@AEAU?$MainTreeOverlapPrunerCallback@U?$OBBAABBTests@$00@Gu@physx@@@@@Z 000000018019abc0 f i GuExtendedBucketPruner.obj
 0001:0019a1b0       ??R?$AABBTreeOverlap@$00U?$OBBAABBTests@$00@Gu@physx@@VAABBTree@23@UBVHNode@23@UOverlapCallbackAdapter@23@@Gu@physx@@QEAA_NAEBVAABBTreeBounds@12@AEBVAABBTree@12@AEBU?$OBBAABBTests@$00@12@AEAUOverlapCallbackAdapter@12@@Z 000000018019b1b0 f i GuExtendedBucketPruner.obj
 0001:0019a780       ??R?$AABBTreeOverlap@$00UAABBAABBTest@Gu@physx@@VAABBTree@23@UBVHNode@23@U?$MainTreeOverlapPrunerCallback@UAABBAABBTest@Gu@physx@@@@@Gu@physx@@QEAA_NAEBVAABBTreeBounds@12@AEBVAABBTree@12@AEBUAABBAABBTest@12@AEAU?$MainTreeOverlapPrunerCallback@UAABBAABBTest@Gu@physx@@@@@Z 000000018019b780 f i GuExtendedBucketPruner.obj
 0001:0019aa40       ??R?$AABBTreeOverlap@$00UAABBAABBTest@Gu@physx@@VAABBTree@23@UBVHNode@23@UOverlapCallbackAdapter@23@@Gu@physx@@QEAA_NAEBVAABBTreeBounds@12@AEBVAABBTree@12@AEBUAABBAABBTest@12@AEAUOverlapCallbackAdapter@12@@Z 000000018019ba40 f i GuExtendedBucketPruner.obj
 0001:0019ace0       ??R?$AABBTreeOverlap@$00UCapsuleAABBTest@Gu@physx@@VAABBTree@23@UBVHNode@23@U?$MainTreeOverlapPrunerCallback@UCapsuleAABBTest@Gu@physx@@@@@Gu@physx@@QEAA_NAEBVAABBTreeBounds@12@AEBVAABBTree@12@AEBUCapsuleAABBTest@12@AEAU?$MainTreeOverlapPrunerCallback@UCapsuleAABBTest@Gu@physx@@@@@Z 000000018019bce0 f i GuExtendedBucketPruner.obj
 0001:0019b0a0       ??R?$AABBTreeOverlap@$00UCapsuleAABBTest@Gu@physx@@VAABBTree@23@UBVHNode@23@UOverlapCallbackAdapter@23@@Gu@physx@@QEAA_NAEBVAABBTreeBounds@12@AEBVAABBTree@12@AEBUCapsuleAABBTest@12@AEAUOverlapCallbackAdapter@12@@Z 000000018019c0a0 f i GuExtendedBucketPruner.obj
 0001:0019b450       ??R?$AABBTreeOverlap@$00USphereAABBTest@Gu@physx@@VAABBTree@23@UBVHNode@23@U?$MainTreeOverlapPrunerCallback@USphereAABBTest@Gu@physx@@@@@Gu@physx@@QEAA_NAEBVAABBTreeBounds@12@AEBVAABBTree@12@AEBUSphereAABBTest@12@AEAU?$MainTreeOverlapPrunerCallback@USphereAABBTest@Gu@physx@@@@@Z 000000018019c450 f i GuExtendedBucketPruner.obj
 0001:0019b770       ??R?$AABBTreeOverlap@$00USphereAABBTest@Gu@physx@@VAABBTree@23@UBVHNode@23@UOverlapCallbackAdapter@23@@Gu@physx@@QEAA_NAEBVAABBTreeBounds@12@AEBVAABBTree@12@AEBUSphereAABBTest@12@AEAUOverlapCallbackAdapter@12@@Z 000000018019c770 f i GuExtendedBucketPruner.obj
 0001:0019ba70       ??R?$AABBTreeRaycast@$00$00VAABBTree@Gu@physx@@UBVHNode@23@U?$MainTreeRaycastPrunerCallback@$00@@@Gu@physx@@QEAA_NAEBVAABBTreeBounds@12@AEBVAABBTree@12@AEBV?$PxVec3T@M@2@2AEAM2AEAU?$MainTreeRaycastPrunerCallback@$00@@@Z 000000018019ca70 f i GuExtendedBucketPruner.obj
 0001:0019c170       ??R?$AABBTreeRaycast@$00$00VAABBTree@Gu@physx@@UBVHNode@23@URaycastCallbackAdapter@23@@Gu@physx@@QEAA_NAEBVAABBTreeBounds@12@AEBVAABBTree@12@AEBV?$PxVec3T@M@2@2AEAM2AEAURaycastCallbackAdapter@12@@Z 000000018019d170 f i GuExtendedBucketPruner.obj
 0001:0019c830       ??R?$AABBTreeRaycast@$0A@$00VAABBTree@Gu@physx@@UBVHNode@23@U?$MainTreeRaycastPrunerCallback@$0A@@@@Gu@physx@@QEAA_NAEBVAABBTreeBounds@12@AEBVAABBTree@12@AEBV?$PxVec3T@M@2@2AEAM2AEAU?$MainTreeRaycastPrunerCallback@$0A@@@@Z 000000018019d830 f i GuExtendedBucketPruner.obj
 0001:0019cee0       ??R?$AABBTreeRaycast@$0A@$00VAABBTree@Gu@physx@@UBVHNode@23@URaycastCallbackAdapter@23@@Gu@physx@@QEAA_NAEBVAABBTreeBounds@12@AEBVAABBTree@12@AEBV?$PxVec3T@M@2@2AEAM2AEAURaycastCallbackAdapter@12@@Z 000000018019dee0 f i GuExtendedBucketPruner.obj
 0001:0019d550       ?addTree@ExtendedBucketPruner@Gu@physx@@QEAAXAEBVAABBTreeMergeData@23@I@Z 000000018019e550 f   GuExtendedBucketPruner.obj
 0001:0019d810       ?buildMainAABBTree@ExtendedBucketPruner@Gu@physx@@AEAAXXZ 000000018019e810 f   GuExtendedBucketPruner.obj
 0001:0019d8c0       ?create@?$PxHashBase@V?$PxPair@$$CBUPrunerPayload@Gu@physx@@UExtendedBucketPrunerData@23@@physx@@UPrunerPayload@Gu@2@UExtendedBucketPrunerHash@42@UGetKey@?$PxHashMapBase@UPrunerPayload@Gu@physx@@UExtendedBucketPrunerData@23@UExtendedBucketPrunerHash@23@VPxAllocator@3@@2@VPxAllocator@2@$00@physx@@QEAAPEAV?$PxPair@$$CBUPrunerPayload@Gu@physx@@UExtendedBucketPrunerData@23@@2@AEBUPrunerPayload@Gu@2@AEA_N@Z 000000018019e8c0 f i GuExtendedBucketPruner.obj
 0001:0019da80       ?eraseCurrentGetNext@PxEraseIterator@?$PxHashBase@V?$PxPair@$$CBUPrunerPayload@Gu@physx@@UExtendedBucketPrunerData@23@@physx@@UPrunerPayload@Gu@2@UExtendedBucketPrunerHash@42@UGetKey@?$PxHashMapBase@UPrunerPayload@Gu@physx@@UExtendedBucketPrunerData@23@UExtendedBucketPrunerHash@23@VPxAllocator@3@@2@VPxAllocator@2@$00@physx@@QEAAPEAV?$PxPair@$$CBUPrunerPayload@Gu@physx@@UExtendedBucketPrunerData@23@@3@_N@Z 000000018019ea80 f i GuExtendedBucketPruner.obj
 0001:0019db70       ?eraseInternal@?$PxHashBase@V?$PxPair@$$CBUPrunerPayload@Gu@physx@@UExtendedBucketPrunerData@23@@physx@@UPrunerPayload@Gu@2@UExtendedBucketPrunerHash@42@UGetKey@?$PxHashMapBase@UPrunerPayload@Gu@physx@@UExtendedBucketPrunerData@23@UExtendedBucketPrunerHash@23@VPxAllocator@3@@2@VPxAllocator@2@$00@physx@@AEAA_NPEAI@Z 000000018019eb70 f i GuExtendedBucketPruner.obj
 0001:0019dc90       ?find@?$PxHashMapBase@UPrunerPayload@Gu@physx@@UExtendedBucketPrunerData@23@UExtendedBucketPrunerHash@23@VPxAllocator@3@@physx@@QEBAPEBV?$PxPair@$$CBUPrunerPayload@Gu@physx@@UExtendedBucketPrunerData@23@@2@AEBUPrunerPayload@Gu@2@@Z 000000018019ec90 f i GuExtendedBucketPruner.obj
 0001:0019dd80       ?getGlobalBounds@ExtendedBucketPruner@Gu@physx@@QEBAXAEAVPxBounds3@3@@Z 000000018019ed80 f   GuExtendedBucketPruner.obj
 0001:0019de50       ?overlap@ExtendedBucketPruner@Gu@physx@@QEBA_NAEBVShapeData@23@AEAUPrunerOverlapCallback@23@@Z 000000018019ee50 f   GuExtendedBucketPruner.obj
 0001:0019e640       ?raycast@ExtendedBucketPruner@Gu@physx@@QEBA_NAEBV?$PxVec3T@M@3@0AEAMAEAUPrunerRaycastCallback@23@@Z 000000018019f640 f   GuExtendedBucketPruner.obj
 0001:0019e720       ?refitMarkedNodes@ExtendedBucketPruner@Gu@physx@@QEAAXPEBVPxBounds3@3@@Z 000000018019f720 f   GuExtendedBucketPruner.obj
 0001:0019ec20       ?release@ExtendedBucketPruner@Gu@physx@@QEAAXXZ 000000018019fc20 f   GuExtendedBucketPruner.obj
 0001:0019ecf0       ?removeMarkedObjects@ExtendedBucketPruner@Gu@physx@@QEAAII@Z 000000018019fcf0 f   GuExtendedBucketPruner.obj
 0001:0019f010       ?removeObject@ExtendedBucketPruner@Gu@physx@@QEAA_NAEBUPrunerPayload@23@II0I@Z 00000001801a0010 f   GuExtendedBucketPruner.obj
 0001:0019f2e0       ?reserveInternal@?$PxHashBase@V?$PxPair@$$CBUPrunerPayload@Gu@physx@@UExtendedBucketPrunerData@23@@physx@@UPrunerPayload@Gu@2@UExtendedBucketPrunerHash@42@UGetKey@?$PxHashMapBase@UPrunerPayload@Gu@physx@@UExtendedBucketPrunerData@23@UExtendedBucketPrunerHash@23@VPxAllocator@3@@2@VPxAllocator@2@$00@physx@@AEAAXI@Z 00000001801a02e0 f i GuExtendedBucketPruner.obj
 0001:0019f4e0       ?shiftOrigin@ExtendedBucketPruner@Gu@physx@@QEAAXAEBV?$PxVec3T@M@3@@Z 00000001801a04e0 f   GuExtendedBucketPruner.obj
 0001:0019f560       ?swapIndex@ExtendedBucketPruner@Gu@physx@@QEAAXIAEBUPrunerPayload@23@I_N@Z 00000001801a0560 f   GuExtendedBucketPruner.obj
 0001:0019f630       ?sweep@ExtendedBucketPruner@Gu@physx@@QEBA_NAEBVShapeData@23@AEBV?$PxVec3T@M@3@AEAMAEAUPrunerRaycastCallback@23@@Z 00000001801a0630 f   GuExtendedBucketPruner.obj
 0001:0019f7c0       ?traverseHashEntries@PxEraseIterator@?$PxHashBase@V?$PxPair@$$CBUPrunerPayload@Gu@physx@@UExtendedBucketPrunerData@23@@physx@@UPrunerPayload@Gu@2@UExtendedBucketPrunerHash@42@UGetKey@?$PxHashMapBase@UPrunerPayload@Gu@physx@@UExtendedBucketPrunerData@23@UExtendedBucketPrunerHash@23@VPxAllocator@3@@2@VPxAllocator@2@$00@physx@@AEAAPEAV?$PxPair@$$CBUPrunerPayload@Gu@physx@@UExtendedBucketPrunerData@23@@3@XZ 00000001801a07c0 f i GuExtendedBucketPruner.obj
 0001:0019f810       ?updateObject@ExtendedBucketPruner@Gu@physx@@QEAA_NAEBVPxBounds3@3@AEBV?$PxTransformT@M@3@AEBUPrunerPayload@23@II@Z 00000001801a0810 f   GuExtendedBucketPruner.obj
 0001:0019f8e0       ?visualize@ExtendedBucketPruner@Gu@physx@@QEBAXAEAVPxRenderOutput@3@I@Z 00000001801a08e0 f   GuExtendedBucketPruner.obj
 0001:001a1740       ??_ECompanionPruner@Gu@physx@@UEAAPEAXI@Z 00000001801a2740 f i GuSecondaryPruner.obj
 0001:001a1740       ??_GCompanionPruner@Gu@physx@@UEAAPEAXI@Z 00000001801a2740 f i GuSecondaryPruner.obj
 0001:001a1790       ??_ECompanionPrunerAABBTree@@UEAAPEAXI@Z 00000001801a2790 f i GuSecondaryPruner.obj
 0001:001a1790       ??_GCompanionPrunerAABBTree@@UEAAPEAXI@Z 00000001801a2790 f i GuSecondaryPruner.obj
 0001:001a1840       ??_GCompanionPrunerBucket@@UEAAPEAXI@Z 00000001801a2840 f i GuSecondaryPruner.obj
 0001:001a1840       ??_ECompanionPrunerBucket@@UEAAPEAXI@Z 00000001801a2840 f i GuSecondaryPruner.obj
 0001:001a18c0       ??_GCompanionPrunerIncremental@@UEAAPEAXI@Z 00000001801a28c0 f i GuSecondaryPruner.obj
 0001:001a18c0       ??_ECompanionPrunerIncremental@@UEAAPEAXI@Z 00000001801a28c0 f i GuSecondaryPruner.obj
 0001:001a1940       ?addObject@CompanionPrunerAABBTree@@UEAA_NAEBUPrunerPayload@Gu@physx@@IAEBVPxBounds3@4@AEBV?$PxTransformT@M@4@II@Z 00000001801a2940 f   GuSecondaryPruner.obj
 0001:001a1b90       ?addObject@CompanionPrunerBucket@@UEAA_NAEBUPrunerPayload@Gu@physx@@IAEBVPxBounds3@4@AEBV?$PxTransformT@M@4@II@Z 00000001801a2b90 f i GuSecondaryPruner.obj
 0001:001a1bb0       ?addObject@CompanionPrunerIncremental@@UEAA_NAEBUPrunerPayload@Gu@physx@@IAEBVPxBounds3@4@AEBV?$PxTransformT@M@4@II@Z 00000001801a2bb0 f i GuSecondaryPruner.obj
 0001:001a1bd0       ?addObjectInternal@CompanionPrunerAABBTree@@QEAA_NII@Z 00000001801a2bd0 f   GuSecondaryPruner.obj
 0001:001a1d80       ?build@CompanionPrunerAABBTree@@UEAAXXZ 00000001801a2d80 f   GuSecondaryPruner.obj
 0001:001a2250       ?createCompanionPruner@Gu@physx@@YAPEAVCompanionPruner@12@_KW4CompanionPrunerType@12@PEBVPruningPool@12@@Z 00000001801a3250 f   GuSecondaryPruner.obj
 0001:001a2450       ?getGlobalBounds@CompanionPrunerAABBTree@@UEBAXAEAVPxBounds3@physx@@@Z 00000001801a3450 f   GuSecondaryPruner.obj
 0001:001a2560       ?getGlobalBounds@CompanionPrunerBucket@@UEBAXAEAVPxBounds3@physx@@@Z 00000001801a3560 f i GuSecondaryPruner.obj
 0001:001a2570       ?getGlobalBounds@CompanionPrunerIncremental@@UEBAXAEAVPxBounds3@physx@@@Z 00000001801a3570 f i GuSecondaryPruner.obj
 0001:001a2580       ?getNbObjects@CompanionPrunerAABBTree@@UEBAIXZ 00000001801a3580 f   GuSecondaryPruner.obj
 0001:001a2590       ?getNbObjects@CompanionPrunerBucket@@UEBAIXZ 00000001801a3590 f i GuSecondaryPruner.obj
 0001:001a25a0       ?getNbObjects@CompanionPrunerIncremental@@UEBAIXZ 00000001801a35a0 f i GuSecondaryPruner.obj
 0001:001a25b0       ?growAndPushBack@?$PxArray@ULocalData@CompanionPrunerAABBTree@@V?$PxReflectionAllocator@ULocalData@CompanionPrunerAABBTree@@@physx@@@physx@@IEAAAEAULocalData@CompanionPrunerAABBTree@@AEBU34@@Z 00000001801a35b0 f i GuSecondaryPruner.obj
 0001:001a26f0       ?overlap@CompanionPrunerAABBTree@@UEBA_NAEBVShapeData@Gu@physx@@AEAUPrunerOverlapCallback@34@@Z 00000001801a36f0 f   GuSecondaryPruner.obj
 0001:001a3850       ?overlap@CompanionPrunerBucket@@UEBA_NAEBVShapeData@Gu@physx@@AEAUPrunerOverlapCallback@34@@Z 00000001801a4850 f i GuSecondaryPruner.obj
 0001:001a3870       ?overlap@CompanionPrunerIncremental@@UEBA_NAEBVShapeData@Gu@physx@@AEAUPrunerOverlapCallback@34@@Z 00000001801a4870 f i GuSecondaryPruner.obj
 0001:001a3890       ?raycast@CompanionPrunerAABBTree@@UEBA_NAEBV?$PxVec3T@M@physx@@0AEAMAEAUPrunerRaycastCallback@Gu@3@@Z 00000001801a4890 f   GuSecondaryPruner.obj
 0001:001a3c70       ?raycast@CompanionPrunerBucket@@UEBA_NAEBV?$PxVec3T@M@physx@@0AEAMAEAUPrunerRaycastCallback@Gu@3@@Z 00000001801a4c70 f i GuSecondaryPruner.obj
 0001:001a3c90       ?raycast@CompanionPrunerIncremental@@UEBA_NAEBV?$PxVec3T@M@physx@@0AEAMAEAUPrunerRaycastCallback@Gu@3@@Z 00000001801a4c90 f i GuSecondaryPruner.obj
 0001:001a3cb0       ?release@CompanionPrunerAABBTree@@UEAAXXZ 00000001801a4cb0 f   GuSecondaryPruner.obj
 0001:001a3cc0       ?release@CompanionPrunerBucket@@UEAAXXZ 00000001801a4cc0 f i GuSecondaryPruner.obj
 0001:001a3cd0       ?release@CompanionPrunerIncremental@@UEAAXXZ 00000001801a4cd0 f i GuSecondaryPruner.obj
 0001:001a3ce0       ?releaseInternal@CompanionPrunerAABBTree@@QEAAXXZ 00000001801a4ce0 f   GuSecondaryPruner.obj
 0001:001a3d60       ?removeMarkedObjects@CompanionPrunerAABBTree@@UEAAII@Z 00000001801a4d60 f   GuSecondaryPruner.obj
 0001:001a3d80       ?removeMarkedObjects@CompanionPrunerBucket@@UEAAII@Z 00000001801a4d80 f i GuSecondaryPruner.obj
 0001:001a3d90       ?removeMarkedObjects@CompanionPrunerIncremental@@UEAAII@Z 00000001801a4d90 f i GuSecondaryPruner.obj
 0001:001a3da0       ?removeObject@CompanionPrunerAABBTree@@UEAA_NAEBUPrunerPayload@Gu@physx@@III@Z 00000001801a4da0 f   GuSecondaryPruner.obj
 0001:001a3e40       ?removeObject@CompanionPrunerBucket@@UEAA_NAEBUPrunerPayload@Gu@physx@@III@Z 00000001801a4e40 f i GuSecondaryPruner.obj
 0001:001a3e60       ?removeObject@CompanionPrunerIncremental@@UEAA_NAEBUPrunerPayload@Gu@physx@@III@Z 00000001801a4e60 f i GuSecondaryPruner.obj
 0001:001a3e80       ?shiftOrigin@CompanionPrunerAABBTree@@UEAAXAEBV?$PxVec3T@M@physx@@@Z 00000001801a4e80 f   GuSecondaryPruner.obj
 0001:001a3fb0       ?shiftOrigin@CompanionPrunerIncremental@@UEAAXAEBV?$PxVec3T@M@physx@@@Z 00000001801a4fb0 f i GuSecondaryPruner.obj
 0001:001a3fc0       ?swapIndex@CompanionPrunerIncremental@@UEAAXII@Z 00000001801a4fc0 f i GuSecondaryPruner.obj
 0001:001a3fd0       ?sweep@CompanionPrunerAABBTree@@UEBA_NAEBVShapeData@Gu@physx@@AEBV?$PxVec3T@M@4@AEAMAEAUPrunerRaycastCallback@34@@Z 00000001801a4fd0 f   GuSecondaryPruner.obj
 0001:001a4500       ?sweep@CompanionPrunerBucket@@UEBA_NAEBVShapeData@Gu@physx@@AEBV?$PxVec3T@M@4@AEAMAEAUPrunerRaycastCallback@34@@Z 00000001801a5500 f i GuSecondaryPruner.obj
 0001:001a4520       ?sweep@CompanionPrunerIncremental@@UEBA_NAEBVShapeData@Gu@physx@@AEBV?$PxVec3T@M@4@AEAMAEAUPrunerRaycastCallback@34@@Z 00000001801a5520 f i GuSecondaryPruner.obj
 0001:001a4540       ?timeStampChange@CompanionPrunerIncremental@@UEAAXXZ 00000001801a5540 f i GuSecondaryPruner.obj
 0001:001a4560       ?updateObject@CompanionPrunerAABBTree@@UEAA_NAEBUPrunerPayload@Gu@physx@@IAEBVPxBounds3@4@AEBV?$PxTransformT@M@4@I@Z 00000001801a5560 f   GuSecondaryPruner.obj
 0001:001a45e0       ?updateObject@CompanionPrunerBucket@@UEAA_NAEBUPrunerPayload@Gu@physx@@IAEBVPxBounds3@4@AEBV?$PxTransformT@M@4@I@Z 00000001801a55e0 f i GuSecondaryPruner.obj
 0001:001a4600       ?updateObject@CompanionPrunerIncremental@@UEAA_NAEBUPrunerPayload@Gu@physx@@IAEBVPxBounds3@4@AEBV?$PxTransformT@M@4@I@Z 00000001801a5600 f i GuSecondaryPruner.obj
 0001:001a4610       ?visualize@CompanionPrunerAABBTree@@UEBAXAEAVPxRenderOutput@physx@@I@Z 00000001801a5610 f   GuSecondaryPruner.obj
 0001:001a4630       ?visualize@CompanionPrunerIncremental@@UEBAXAEAVPxRenderOutput@physx@@I@Z 00000001801a5630 f i GuSecondaryPruner.obj
 0001:001a4640       ??0AABBPruner@Gu@physx@@QEAA@_N_KW4CompanionPrunerType@12@W4BVHBuildStrategy@12@I@Z 00000001801a5640 f   GuAABBPruner.obj
 0001:001a4770       ??1AABBPruner@Gu@physx@@UEAA@XZ 00000001801a5770 f   GuAABBPruner.obj
 0001:001a48d0       ??_EAABBPruner@Gu@physx@@UEAAPEAXI@Z 00000001801a58d0 f i GuAABBPruner.obj
 0001:001a48d0       ??_GAABBPruner@Gu@physx@@UEAAPEAXI@Z 00000001801a58d0 f i GuAABBPruner.obj
 0001:001a4940       ?addObjects@AABBPruner@Gu@physx@@UEAA_NPEAIPEBVPxBounds3@3@PEBUPrunerPayload@23@PEBV?$PxTransformT@M@3@I_N@Z 00000001801a5940 f   GuAABBPruner.obj
 0001:001a4bf0       ?buildStep@AABBPruner@Gu@physx@@UEAA_N_N@Z 00000001801a5bf0 f   GuAABBPruner.obj
 0001:001a4ff0       ?commit@AABBPruner@Gu@physx@@UEAAXXZ 00000001801a5ff0 f   GuAABBPruner.obj
 0001:001a5710       ?fullRebuildAABBTree@AABBPruner@Gu@physx@@QEAA_NXZ 00000001801a6710 f   GuAABBPruner.obj
 0001:001a5910       ?getGlobalBounds@AABBPruner@Gu@physx@@UEBAXAEAVPxBounds3@3@@Z 00000001801a6910 f   GuAABBPruner.obj
 0001:001a5a40       ?getPayloadData@AABBPruner@Gu@physx@@UEBAAEBUPrunerPayload@23@IPEAUPrunerPayloadData@23@@Z 00000001801a6a40 f i GuAABBPruner.obj
 0001:001a5aa0       ?growAndPushBack@?$PxArray@UNewTreeFixup@AABBPruner@Gu@physx@@V?$PxReflectionAllocator@UNewTreeFixup@AABBPruner@Gu@physx@@@4@@physx@@IEAAAEAUNewTreeFixup@AABBPruner@Gu@2@AEBU3452@@Z 00000001801a6aa0 f i GuAABBPruner.obj
 0001:001a5be0       ?isDynamic@AABBPruner@Gu@physx@@UEBA_NXZ 00000001801a6be0 f i GuAABBPruner.obj
 0001:001a5bf0       ?merge@AABBPruner@Gu@physx@@UEAAXPEBX@Z 00000001801a6bf0 f   GuAABBPruner.obj
 0001:001a5c70       ?overlap@AABBPruner@Gu@physx@@UEBA_NAEBVShapeData@23@AEAUPrunerOverlapCallback@23@@Z 00000001801a6c70 f   GuAABBPruner.obj
 0001:001a6250       ?preallocate@AABBPruner@Gu@physx@@UEAAXI@Z 00000001801a7250 f i GuAABBPruner.obj
 0001:001a6260       ?prepareBuild@AABBPruner@Gu@physx@@UEAA_NXZ 00000001801a7260 f   GuAABBPruner.obj
 0001:001a6470       ?purge@AABBPruner@Gu@physx@@UEAAXXZ 00000001801a7470 f   GuAABBPruner.obj
 0001:001a6490       ?raycast@AABBPruner@Gu@physx@@UEBA_NAEBV?$PxVec3T@M@3@0AEAMAEAUPrunerRaycastCallback@23@@Z 00000001801a7490 f   GuAABBPruner.obj
 0001:001a6580       ?refitUpdatedAndRemoved@AABBPruner@Gu@physx@@QEAAXXZ 00000001801a7580 f   GuAABBPruner.obj
 0001:001a6650       ?release@AABBPruner@Gu@physx@@QEAAXXZ 00000001801a7650 f   GuAABBPruner.obj
 0001:001a6780       ?removeObjects@AABBPruner@Gu@physx@@UEAAXPEBIIPEAUPrunerPayloadRemovalCallback@23@@Z 00000001801a7780 f   GuAABBPruner.obj
 0001:001a6a40       ?setRebuildRateHint@AABBPruner@Gu@physx@@UEAAXI@Z 00000001801a7a40 f   GuAABBPruner.obj
 0001:001a6a60       ?setTransform@AABBPruner@Gu@physx@@UEAA_NIAEBV?$PxTransformT@M@3@@Z 00000001801a7a60 f i GuAABBPruner.obj
 0001:001a6ac0       ?shiftOrigin@AABBPruner@Gu@physx@@UEAAXAEBV?$PxVec3T@M@3@@Z 00000001801a7ac0 f   GuAABBPruner.obj
 0001:001a6b30       ?sweep@AABBPruner@Gu@physx@@UEBA_NAEBVShapeData@23@AEBV?$PxVec3T@M@3@AEAMAEAUPrunerRaycastCallback@23@@Z 00000001801a7b30 f   GuAABBPruner.obj
 0001:001a6cc0       ?updateObjects@AABBPruner@Gu@physx@@UEAAXPEBIIM0PEBVPxBounds3@3@PEBUPxTransformPadded@3@@Z 00000001801a7cc0 f   GuAABBPruner.obj
 0001:001a6f60       ?visualize@AABBPruner@Gu@physx@@UEBAXAEAVPxRenderOutput@3@II@Z 00000001801a7f60 f   GuAABBPruner.obj
 0001:001a7010       ??0ActorShapeMap@Gu@physx@@QEAA@XZ 00000001801a8010 f   GuActorShapeMap.obj
 0001:001a7070       ??1ActorShapeMap@Gu@physx@@QEAA@XZ 00000001801a8070 f   GuActorShapeMap.obj
 0001:001a70d0       ?add@ActorShapeMap@Gu@physx@@QEAA_NIPEBX0_K@Z 00000001801a80d0 f   GuActorShapeMap.obj
 0001:001a7270       ?create@?$PxHashBase@V?$PxPair@$$CBUActorShape@ActorShapeMap@Gu@physx@@_K@physx@@UActorShape@ActorShapeMap@Gu@2@U?$PxHash@UActorShape@ActorShapeMap@Gu@physx@@@2@UGetKey@?$PxHashMapBase@UActorShape@ActorShapeMap@Gu@physx@@_KU?$PxHash@UActorShape@ActorShapeMap@Gu@physx@@@4@VPxAllocator@4@@2@VPxAllocator@2@$00@physx@@QEAAPEAV?$PxPair@$$CBUActorShape@ActorShapeMap@Gu@physx@@_K@2@AEBUActorShape@ActorShapeMap@Gu@2@AEA_N@Z 00000001801a8270 f i GuActorShapeMap.obj
 0001:001a7460       ?erase@?$PxHashBase@V?$PxPair@$$CBUActorShape@ActorShapeMap@Gu@physx@@_K@physx@@UActorShape@ActorShapeMap@Gu@2@U?$PxHash@UActorShape@ActorShapeMap@Gu@physx@@@2@UGetKey@?$PxHashMapBase@UActorShape@ActorShapeMap@Gu@physx@@_KU?$PxHash@UActorShape@ActorShapeMap@Gu@physx@@@4@VPxAllocator@4@@2@VPxAllocator@2@$00@physx@@QEAA_NAEBUActorShape@ActorShapeMap@Gu@2@AEAV?$PxPair@$$CBUActorShape@ActorShapeMap@Gu@physx@@_K@2@@Z 00000001801a8460 f i GuActorShapeMap.obj
 0001:001a7670       ?find@ActorShapeMap@Gu@physx@@QEBA_KIPEBX0@Z 00000001801a8670 f   GuActorShapeMap.obj
 0001:001a7760       ?remove@ActorShapeMap@Gu@physx@@QEAA_NIPEBX0PEA_K@Z 00000001801a8760 f   GuActorShapeMap.obj
 0001:001a77f0       ?reserveInternal@?$PxHashBase@V?$PxPair@$$CBUActorShape@ActorShapeMap@Gu@physx@@_K@physx@@UActorShape@ActorShapeMap@Gu@2@U?$PxHash@UActorShape@ActorShapeMap@Gu@physx@@@2@UGetKey@?$PxHashMapBase@UActorShape@ActorShapeMap@Gu@physx@@_KU?$PxHash@UActorShape@ActorShapeMap@Gu@physx@@@4@VPxAllocator@4@@2@VPxAllocator@2@$00@physx@@AEAAXI@Z 00000001801a87f0 f i GuActorShapeMap.obj
 0001:001a7a00       ??0QuerySystem@Gu@physx@@QEAA@_KMAEBVAdapter@12@_N@Z 00000001801a8a00 f   GuQuerySystem.obj
 0001:001a7ad0       ??1QuerySystem@Gu@physx@@QEAA@XZ 00000001801a8ad0 f   GuQuerySystem.obj
 0001:001a7cf0       ??_GPrunerExt@QuerySystem@Gu@physx@@QEAAPEAXI@Z 00000001801a8cf0 f i GuQuerySystem.obj
 0001:001a7e00       ?addPruner@QuerySystem@Gu@physx@@QEAAIPEAVPruner@23@I@Z 00000001801a8e00 f   GuQuerySystem.obj
 0001:001a7f30       ?addPrunerShape@QuerySystem@Gu@physx@@QEAA_KAEBUPrunerPayload@23@I_NAEBV?$PxTransformT@M@3@PEBVPxBounds3@3@@Z 00000001801a8f30 f   GuQuerySystem.obj
 0001:001a8070       ?addToDirtyList@PrunerExt@QuerySystem@Gu@physx@@QEAAXIIAEBV?$PxTransformT@M@4@PEBVPxBounds3@4@@Z 00000001801a9070 f   GuQuerySystem.obj
 0001:001a82d0       ?commitUpdates@QuerySystem@Gu@physx@@QEAAXXZ 00000001801a92d0 f   GuQuerySystem.obj
 0001:001a83f0       ?createTreeOfPruners@QuerySystem@Gu@physx@@QEAAXXZ 00000001801a93f0 f   GuQuerySystem.obj
 0001:001a85d0       ?flushMemory@QuerySystem@Gu@physx@@QEAAXXZ 00000001801a95d0 f   GuQuerySystem.obj
 0001:001a8660       ?getPayloadData@QuerySystem@Gu@physx@@QEBAAEBUPrunerPayload@23@_KPEAUPrunerPayloadData@23@@Z 00000001801a9660 f   GuQuerySystem.obj
 0001:001a8680       ?growAndPushBack@?$PxArray@PEAUPrunerExt@QuerySystem@Gu@physx@@V?$PxReflectionAllocator@PEAUPrunerExt@QuerySystem@Gu@physx@@@4@@physx@@IEAAAEAPEAUPrunerExt@QuerySystem@Gu@2@AEBQEAU3452@@Z 00000001801a9680 f i GuQuerySystem.obj
 0001:001a87c0       ?overlap@QuerySystem@Gu@physx@@QEBAXAEBVShapeData@23@AEAUPrunerOverlapCallback@23@PEBVPrunerFilter@23@@Z 00000001801a97c0 f   GuQuerySystem.obj
 0001:001a88c0       ?processDirtyList@PrunerExt@QuerySystem@Gu@physx@@QEAA_NAEBVAdapter@34@M@Z 00000001801a98c0 f   GuQuerySystem.obj
 0001:001a8ae0       ?processDirtyLists@QuerySystem@Gu@physx@@AEAAXXZ 00000001801a9ae0 f   GuQuerySystem.obj
 0001:001a8c40       ?raycast@QuerySystem@Gu@physx@@QEBAXAEBV?$PxVec3T@M@3@0AEAMAEAUPrunerRaycastCallback@23@PEBVPrunerFilter@23@@Z 00000001801a9c40 f   GuQuerySystem.obj
 0001:001a8d80       ?recreate@?$PxArray@UData@PrunerExt@QuerySystem@Gu@physx@@V?$PxReflectionAllocator@UData@PrunerExt@QuerySystem@Gu@physx@@@5@@physx@@IEAAXI@Z 00000001801a9d80 f i GuQuerySystem.obj
 0001:001a9080       ?removePruner@QuerySystem@Gu@physx@@QEAAXI@Z 00000001801aa080 f   GuQuerySystem.obj
 0001:001a9160       ?removePrunerShape@QuerySystem@Gu@physx@@QEAAX_KPEAUPrunerPayloadRemovalCallback@23@@Z 00000001801aa160 f   GuQuerySystem.obj
 0001:001a9380       ?sweep@QuerySystem@Gu@physx@@QEBAXAEBVShapeData@23@AEBV?$PxVec3T@M@3@AEAMAEAUPrunerRaycastCallback@23@PEBVPrunerFilter@23@@Z 00000001801aa380 f   GuQuerySystem.obj
 0001:001a94b0       ?sync@QuerySystem@Gu@physx@@QEAAXIPEBI0PEBVPxBounds3@3@PEBUPxTransformPadded@3@I@Z 00000001801aa4b0 f   GuQuerySystem.obj
 0001:001a9560       ?update@QuerySystem@Gu@physx@@QEAAX_N0@Z 00000001801aa560 f   GuQuerySystem.obj
 0001:001a96d0       ?updatePrunerShape@QuerySystem@Gu@physx@@QEAAX_K_NAEBV?$PxTransformT@M@3@PEBVPxBounds3@3@@Z 00000001801aa6d0 f   GuQuerySystem.obj
 0001:001a98c0       createAABBPruner           00000001801aa8c0 f   GuFactory.obj
 0001:001a9980       createBucketPruner         00000001801aa980 f   GuFactory.obj
 0001:001a9a10       createIncrementalPruner    00000001801aaa10 f   GuFactory.obj
 0001:001a9aa0       ??$PxSmallSort@I$$CBUSortBoundsPredicate@physx@@@physx@@YAXPEAIHHAEBUSortBoundsPredicate@0@@Z 00000001801aaaa0 f i GuRTreeCooking.obj
 0001:001a9d70       ??$PxSort@IU?$PxLess@I@physx@@V?$PxReflectionAllocator@I@2@@physx@@YAXPEAIIAEBU?$PxLess@I@0@AEBV?$PxReflectionAllocator@I@0@I@Z 00000001801aad70 f i GuRTreeCooking.obj
 0001:001aa1c0       ??$PxSort@IUSortBoundsPredicate@physx@@V?$PxReflectionAllocator@I@2@@physx@@YAXPEAIIAEBUSortBoundsPredicate@0@AEBV?$PxReflectionAllocator@I@0@I@Z 00000001801ab1c0 f i GuRTreeCooking.obj
 0001:001aa6b0       ??$quickSelectFirstK@UBoundsLTE@physx@@@quickSelect@physx@@YAXPEIAIIIIAEBUBoundsLTE@1@@Z 00000001801ab6b0 f i GuRTreeCooking.obj
 0001:001aa890       ?allocate@?$PxArray@UInterval@physx@@V?$PxInlineAllocator@$0CAAA@V?$PxReflectionAllocator@UInterval@physx@@@physx@@@2@@physx@@IEAAPEAUInterval@2@IPEAI@Z 00000001801ab890 f i GuRTreeCooking.obj
 0001:001ab5c0       ?buildFromTriangles@RTreeCooker@physx@@SAXAEAURTree@Gu@2@PEBV?$PxVec3T@M@2@IPEBGPEBIIAEAV?$PxArray@IV?$PxReflectionAllocator@I@physx@@@2@PEAURemapCallback@12@MW4Enum@PxMeshCookingHint@2@@Z 00000001801ac5c0 f   GuRTreeCooking.obj
 0001:001ab860       ?copy@?$PxArray@URTreeNodeNQ@physx@@V?$PxReflectionAllocator@URTreeNodeNQ@physx@@@2@@physx@@KAXPEAURTreeNodeNQ@2@0PEBU32@@Z 00000001801ac860 f i GuRTreeCooking.obj
 0001:001aba20       ?growAndPushBack@?$PxArray@UInterval@physx@@V?$PxInlineAllocator@$0CAAA@V?$PxReflectionAllocator@UInterval@physx@@@physx@@@2@@physx@@IEAAAEAUInterval@2@AEBU32@@Z 00000001801aca20 f i GuRTreeCooking.obj
 0001:001abb10       ?growAndPushBack@?$PxArray@UPxBounds3V@physx@@V?$PxReflectionAllocator@UPxBounds3V@physx@@@2@@physx@@IEAAAEAUPxBounds3V@2@AEBU32@@Z 00000001801acb10 f i GuRTreeCooking.obj
 0001:001abc60       ?growAndPushBack@?$PxArray@URTreeNodeNQ@physx@@V?$PxReflectionAllocator@URTreeNodeNQ@physx@@@2@@physx@@IEAAAEAURTreeNodeNQ@2@AEBU32@@Z 00000001801acc60 f i GuRTreeCooking.obj
 0001:001abdc0       ?growAndPushBack@?$PxArray@URTreeNodeQ@Gu@physx@@V?$PxReflectionAllocator@URTreeNodeQ@Gu@physx@@@3@@physx@@IEAAAEAURTreeNodeQ@Gu@2@AEBU342@@Z 00000001801acdc0 f i GuRTreeCooking.obj
 0001:001abf20       ?recreate@?$PxArray@UPxBounds3V@physx@@V?$PxReflectionAllocator@UPxBounds3V@physx@@@2@@physx@@IEAAXI@Z 00000001801acf20 f i GuRTreeCooking.obj
 0001:001ac040       ?recreate@?$PxArray@URTreeNodeNQ@physx@@V?$PxReflectionAllocator@URTreeNodeNQ@physx@@@2@@physx@@IEAAXI@Z 00000001801ad040 f i GuRTreeCooking.obj
 0001:001ac140       ?recreate@?$PxArray@URTreeNodeQ@Gu@physx@@V?$PxReflectionAllocator@URTreeNodeQ@Gu@physx@@@3@@physx@@IEAAXI@Z 00000001801ad140 f i GuRTreeCooking.obj
 0001:001ac260       ?resizeUninitialized@?$PxArray@URTreeNodeNQ@physx@@V?$PxReflectionAllocator@URTreeNodeNQ@physx@@@2@@physx@@QEAAXI@Z 00000001801ad260 f i GuRTreeCooking.obj
 0001:001ac2a0       ?sort4@SubSortQuick@physx@@QEAAXPEIAIIAEAV?$PxArray@URTreeNodeNQ@physx@@V?$PxReflectionAllocator@URTreeNodeNQ@physx@@@2@@2@AEAIAEAUPxBounds3V@2@I@Z 00000001801ad2a0 f i GuRTreeCooking.obj
 0001:001ac630       ?sort4@SubSortSAH@physx@@QEAAXPEAIIAEAV?$PxArray@URTreeNodeNQ@physx@@V?$PxReflectionAllocator@URTreeNodeNQ@physx@@@2@@2@AEAIIPEAURTreeNodeNQ@2@@Z 00000001801ad630 f i GuRTreeCooking.obj
 0001:001acef0       ?split@SubSortSAH@physx@@QEAAIPEAII@Z 00000001801adef0 f i GuRTreeCooking.obj
 0001:001ad8f0       cookBVH                    00000001801ae8f0 f   GuCookingBVH.obj
 0001:001ada80       createBVH                  00000001801aea80 f   GuCookingBVH.obj
 0001:001adc10       cookHeightField            00000001801aec10 f   GuCookingHF.obj
 0001:001add20       createHeightField          00000001801aed20 f   GuCookingHF.obj
 0001:001ae3a0       computeHullPolygons        00000001801af3a0 f   GuCookingConvexMesh.obj
 0001:001ae580       cookConvexMesh             00000001801af580 f   GuCookingConvexMesh.obj
 0001:001ae6c0       createConvexMesh           00000001801af6c0 f   GuCookingConvexMesh.obj
 0001:001ae840       validateConvexMesh         00000001801af840 f   GuCookingConvexMesh.obj
 0001:001ae960       ??1BV4TriangleMeshBuilder@physx@@UEAA@XZ 00000001801af960 f   GuCookingTriangleMesh.obj
 0001:001ae9f0       ??1RTreeTriangleMeshBuilder@physx@@UEAA@XZ 00000001801af9f0 f   GuCookingTriangleMesh.obj
 0001:001aea60       ??_EBV4TriangleMeshBuilder@physx@@UEAAPEAXI@Z 00000001801afa60 f i GuCookingTriangleMesh.obj
 0001:001aea60       ??_GBV4TriangleMeshBuilder@physx@@UEAAPEAXI@Z 00000001801afa60 f i GuCookingTriangleMesh.obj
 0001:001aeaa0       ??_GRTreeTriangleMeshBuilder@physx@@UEAAPEAXI@Z 00000001801afaa0 f i GuCookingTriangleMesh.obj
 0001:001aeaa0       ??_ERTreeTriangleMeshBuilder@physx@@UEAAPEAXI@Z 00000001801afaa0 f i GuCookingTriangleMesh.obj
 0001:001aeae0       ??_ETriangleMeshBuilder@physx@@UEAAPEAXI@Z 00000001801afae0 f i GuCookingTriangleMesh.obj
 0001:001aeae0       ??_GTriangleMeshBuilder@physx@@UEAAPEAXI@Z 00000001801afae0 f i GuCookingTriangleMesh.obj
 0001:001af490       ?buildInertiaTensor@TriangleMeshBuilder@physx@@IEAAX_N@Z 00000001801b0490 f   GuCookingTriangleMesh.obj
 0001:001af5b0       ?buildInertiaTensorFromSDF@TriangleMeshBuilder@physx@@IEAAXXZ 00000001801b05b0 f   GuCookingTriangleMesh.obj
 0001:001af7b0       ?checkInputFloats@@YA_NIPEBMPEBDI1@Z 00000001801b07b0 f   GuCookingTriangleMesh.obj
 0001:001af840       ?cleanMesh@TriangleMeshBuilder@physx@@QEAA_N_NPEAW4Enum@PxTriangleMeshCookingResult@2@@Z 00000001801b0840 f   GuCookingTriangleMesh.obj
 0001:001afd50       ?createGRBMidPhaseAndData@TriangleMeshBuilder@physx@@QEAA_NI@Z 00000001801b0d50 f   GuCookingTriangleMesh.obj
 0001:001aff00       ?createMidPhaseStructure@BV32TriangleMeshBuilder@physx@@SA_NAEBUPxCookingParams@2@AEAVTriangleMeshData@Gu@2@AEAVBV32Tree@52@@Z 00000001801b0f00 f   GuCookingTriangleMesh.obj
 0001:001b0130       ?createMidPhaseStructure@BV4TriangleMeshBuilder@physx@@UEAA_NXZ 00000001801b1130 f   GuCookingTriangleMesh.obj
 0001:001b0400       ?createMidPhaseStructure@RTreeTriangleMeshBuilder@physx@@UEAA_NXZ 00000001801b1400 f   GuCookingTriangleMesh.obj
 0001:001b04f0       ?createSharedEdgeData@TriangleMeshBuilder@physx@@QEAAX_N0@Z 00000001801b14f0 f   GuCookingTriangleMesh.obj
 0001:001b0b70       ?createVertMapping@TriangleMeshBuilder@physx@@QEAAXXZ 00000001801b1b70 f   GuCookingTriangleMesh.obj
 0001:001b0ef0       ?importMesh@TriangleMeshBuilder@physx@@IEAA_NAEBVPxTriangleMeshDesc@2@PEAW4Enum@PxTriangleMeshCookingResult@2@_N@Z 00000001801b1ef0 f   GuCookingTriangleMesh.obj
 0001:001b1520       ?isValid@PxTriangleMeshDesc@physx@@QEBA_NXZ 00000001801b2520 f i GuCookingTriangleMesh.obj
 0001:001b1600       ?loadFromDescInternal@TriangleMeshBuilder@physx@@IEAA_NAEAVPxTriangleMeshDesc@2@PEAW4Enum@PxTriangleMeshCookingResult@2@_N@Z 00000001801b2600 f   GuCookingTriangleMesh.obj
 0001:001b1830       ?onMeshIndexFormatChange@BV4TriangleMeshBuilder@physx@@UEAAXXZ 00000001801b2830 f   GuCookingTriangleMesh.obj
 0001:001b1870       ?remap@RTreeCookerRemap@@UEAAXPEAIII@Z 00000001801b2870 f i GuCookingTriangleMesh.obj
 0001:001b1890       ?remapTopology@TriangleMeshBuilder@physx@@QEAAXPEBI@Z 00000001801b2890 f   GuCookingTriangleMesh.obj
 0001:001b1b30       ?save@TriangleMeshBuilder@physx@@QEBA_NAEAVPxOutputStream@2@_NAEBUPxCookingParams@2@@Z 00000001801b2b30 f   GuCookingTriangleMesh.obj
 0001:001b22f0       ?saveMidPhaseStructure@BV32TriangleMeshBuilder@physx@@SAXPEAVBV32Tree@Gu@2@AEAVPxOutputStream@2@_N@Z 00000001801b32f0 f   GuCookingTriangleMesh.obj
 0001:001b24f0       ?saveMidPhaseStructure@BV4TriangleMeshBuilder@physx@@UEBAXAEAVPxOutputStream@2@_N@Z 00000001801b34f0 f   GuCookingTriangleMesh.obj
 0001:001b26a0       ?saveMidPhaseStructure@RTreeTriangleMeshBuilder@physx@@UEBAXAEAVPxOutputStream@2@_N@Z 00000001801b36a0 f   GuCookingTriangleMesh.obj
 0001:001b28e0       cookTriangleMesh           00000001801b38e0 f   GuCookingTriangleMesh.obj
 0001:001b2bc0       createTriangleMesh         00000001801b3bc0 f   GuCookingTriangleMesh.obj
 0001:001b2de0       validateTriangleMesh       00000001801b3de0 f   GuCookingTriangleMesh.obj
 0001:001b3070       ??_ECollisionTetrahedronMeshData@Gu@physx@@UEAAPEAXI@Z 00000001801b4070 f i GuCookingTetrahedronMesh.obj
 0001:001b3070       ??_GCollisionTetrahedronMeshData@Gu@physx@@UEAAPEAXI@Z 00000001801b4070 f i GuCookingTetrahedronMesh.obj
 0001:001b3140       ??_GPxCollisionTetrahedronMeshData@physx@@UEAAPEAXI@Z 00000001801b4140 f i GuCookingTetrahedronMesh.obj
 0001:001b3140       ??_EPxCollisionTetrahedronMeshData@physx@@UEAAPEAXI@Z 00000001801b4140 f i GuCookingTetrahedronMesh.obj
 0001:001b3190       ??_EPxSimulationTetrahedronMeshData@physx@@UEAAPEAXI@Z 00000001801b4190 f i GuCookingTetrahedronMesh.obj
 0001:001b3190       ??_GPxSimulationTetrahedronMeshData@physx@@UEAAPEAXI@Z 00000001801b4190 f i GuCookingTetrahedronMesh.obj
 0001:001b31e0       ??_GSimulationTetrahedronMeshData@Gu@physx@@UEAAPEAXI@Z 00000001801b41e0 f i GuCookingTetrahedronMesh.obj
 0001:001b31e0       ??_ESimulationTetrahedronMeshData@Gu@physx@@UEAAPEAXI@Z 00000001801b41e0 f i GuCookingTetrahedronMesh.obj
 0001:001b32b0       ?PointOutsideOfPlane4@Gu@physx@@YA?AV?$PxVec4T@M@2@AEBV?$PxVec3T@M@2@0000@Z 00000001801b42b0 f i GuCookingTetrahedronMesh.obj
 0001:001b3720       ?combineGridModelPartitions@@YAXAEBVTetrahedronMeshData@Gu@physx@@AEAVDeformableVolumeSimulationData@23@PEAPEAI@Z 00000001801b4720 f   GuCookingTetrahedronMesh.obj
 0001:001b3f70       ?combineGridModelPartitionsHexMesh_parallelGS@@YAXAEBVTetrahedronMeshData@Gu@physx@@AEAVDeformableVolumeSimulationData@23@PEAPEAI@Z 00000001801b4f70 f   GuCookingTetrahedronMesh.obj
 0001:001b42a0       ?computeCollisionData@TetrahedronMeshBuilder@physx@@SA_NAEBVPxTetrahedronMeshDesc@2@AEAVTetrahedronMeshData@Gu@2@AEAVDeformableVolumeCollisionData@52@AEBUPxCookingParams@2@_N@Z 00000001801b52a0 f   GuCookingTetrahedronMesh.obj
 0001:001b44d0       ?computeGridModelTetrahedronPartitions@@YAPEAIAEBVTetrahedronMeshData@Gu@physx@@AEAVDeformableVolumeSimulationData@23@@Z 00000001801b54d0 f   GuCookingTetrahedronMesh.obj
 0001:001b49a0       ?computeGridModelVoxelPartitions@@YAPEAIAEBVTetrahedronMeshData@Gu@physx@@AEAVDeformableVolumeSimulationData@23@@Z 00000001801b59a0 f   GuCookingTetrahedronMesh.obj
 0001:001b5180       ?computeModelsMapping@TetrahedronMeshBuilder@physx@@SAXAEAVTetrahedronMeshData@Gu@2@AEBV342@AEBVDeformableVolumeCollisionData@42@AEAVCollisionMeshMappingData@42@_NPEBUPxBoundedData@2@@Z 00000001801b6180 f   GuCookingTetrahedronMesh.obj
 0001:001b5d80       ?computeRestPoseAndPointMass@@YAXPEAU?$TetrahedronT@I@Gu@physx@@IPEBV?$PxVec3T@M@3@PEAMPEAV?$PxMat33T@M@3@@Z 00000001801b6d80 f   GuCookingTetrahedronMesh.obj
 0001:001b6200       ?computeSimData@TetrahedronMeshBuilder@physx@@SAXAEBVPxTetrahedronMeshDesc@2@AEAVTetrahedronMeshData@Gu@2@AEAVDeformableVolumeSimulationData@52@AEBUPxCookingParams@2@@Z 00000001801b7200 f   GuCookingTetrahedronMesh.obj
 0001:001b68f0       ?computeTetData@TetrahedronMeshBuilder@physx@@SAXAEBVPxTetrahedronMeshDesc@2@AEAVTetrahedronMeshData@Gu@2@@Z 00000001801b78f0 f   GuCookingTetrahedronMesh.obj
 0001:001b69e0       ?computeTetrahedronPartition@@YAIPEBU?$TetrahedronT@I@Gu@physx@@IPEAII@Z 00000001801b79e0 f   GuCookingTetrahedronMesh.obj
 0001:001b6ae0       ?createCollisionModelMapping@TetrahedronMeshBuilder@physx@@SAXAEBVTetrahedronMeshData@Gu@2@AEBVDeformableVolumeCollisionData@42@AEAVCollisionMeshMappingData@42@@Z 00000001801b7ae0 f   GuCookingTetrahedronMesh.obj
 0001:001b7110       ?createGRBMidPhaseAndData@TetrahedronMeshBuilder@physx@@SA_NIAEAVTetrahedronMeshData@Gu@2@AEAVDeformableVolumeCollisionData@42@AEBUPxCookingParams@2@@Z 00000001801b8110 f   GuCookingTetrahedronMesh.obj
 0001:001b7e90       ?createMidPhaseStructure@BV32TetrahedronMeshBuilder@physx@@SA_NAEBUPxCookingParams@2@AEAVTetrahedronMeshData@Gu@2@AEAVBV32Tree@52@AEAVDeformableVolumeCollisionData@52@@Z 00000001801b8e90 f   GuCookingTetrahedronMesh.obj
 0001:001b8170       ?createMidPhaseStructure@TetrahedronMeshBuilder@physx@@SA_NAEAVTetrahedronMeshData@Gu@2@AEAVDeformableVolumeCollisionData@42@AEBUPxCookingParams@2@@Z 00000001801b9170 f   GuCookingTetrahedronMesh.obj
 0001:001b8e40       ?getData@CollisionTetrahedronMeshData@Gu@physx@@UEAAPEAVPxDeformableVolumeCollisionData@3@XZ 00000001801b9e40 f i GuCookingTetrahedronMesh.obj
 0001:001b8e40       ?getData@SimulationTetrahedronMeshData@Gu@physx@@UEAAPEAVPxDeformableVolumeSimulationData@3@XZ 00000001801b9e40 f i GuCookingTetrahedronMesh.obj
 0001:001b8e40       ?getData@CollisionTetrahedronMeshData@Gu@physx@@UEBAPEBVPxDeformableVolumeCollisionData@3@XZ 00000001801b9e40 f i GuCookingTetrahedronMesh.obj
 0001:001b8e60       ?importMesh@TetrahedronMeshBuilder@physx@@SA_NAEBVPxTetrahedronMeshDesc@2@AEBUPxCookingParams@2@AEAVTetrahedronMeshData@Gu@2@AEAVDeformableVolumeCollisionData@62@_N@Z 00000001801b9e60 f   GuCookingTetrahedronMesh.obj
 0001:001b9220       ?isValid@PxTetrahedronMeshDesc@physx@@QEBA_NXZ 00000001801ba220 f i GuCookingTetrahedronMesh.obj
 0001:001b92a0       ?loadFromDesc@TetrahedronMeshBuilder@physx@@SA_NAEBVPxTetrahedronMeshDesc@2@0VPxDeformableVolumeSimulationDataDesc@2@AEAVTetrahedronMeshData@Gu@2@AEAVDeformableVolumeSimulationData@62@2AEAVDeformableVolumeCollisionData@62@AEAVCollisionMeshMappingData@62@AEBUPxCookingParams@2@_N@Z 00000001801ba2a0 f   GuCookingTetrahedronMesh.obj
 0001:001b9410       ?recreate@?$PxArray@V?$PxArray@IV?$PxReflectionAllocator@I@physx@@@physx@@V?$PxReflectionAllocator@V?$PxArray@IV?$PxReflectionAllocator@I@physx@@@physx@@@2@@physx@@IEAAXI@Z 00000001801ba410 f i GuCookingTetrahedronMesh.obj
 0001:001b9550       ?release@CollisionTetrahedronMeshData@Gu@physx@@UEAAXXZ 00000001801ba550 f i GuCookingTetrahedronMesh.obj
 0001:001b9570       ?reserveInternal@?$PxHashBase@IIU?$PxHash@I@physx@@UGetKey@?$PxHashSetBase@IU?$PxHash@I@physx@@VPxAllocator@2@$0A@@2@VPxAllocator@2@$0A@@physx@@AEAAXI@Z 00000001801ba570 f i GuCookingTetrahedronMesh.obj
 0001:001b9910       ?reserveInternal@?$PxHashBase@V?$PxPair@$$CBVSortedTriangleInds@@I@physx@@VSortedTriangleInds@@USortedTriangleIndsHash@@UGetKey@?$PxHashMapBase@VSortedTriangleInds@@IUSortedTriangleIndsHash@@VPxAllocator@physx@@@2@VPxAllocator@2@$00@physx@@AEAAXI@Z 00000001801ba910 f i GuCookingTetrahedronMesh.obj
 0001:001b9b60       ?resize@?$PxArray@V?$PxArray@IV?$PxReflectionAllocator@I@physx@@@physx@@V?$PxReflectionAllocator@V?$PxArray@IV?$PxReflectionAllocator@I@physx@@@physx@@@2@@physx@@QEAAXIAEBV?$PxArray@IV?$PxReflectionAllocator@I@physx@@@2@@Z 00000001801bab60 f i GuCookingTetrahedronMesh.obj
 0001:001b9c00       ?saveDeformableVolumeMeshData@TetrahedronMeshBuilder@physx@@SA_NAEAVPxOutputStream@2@_NAEBUPxCookingParams@2@AEBVTetrahedronMeshData@Gu@2@AEBVDeformableVolumeSimulationData@62@3AEBVDeformableVolumeCollisionData@62@AEBVCollisionMeshMappingData@62@@Z 00000001801bac00 f   GuCookingTetrahedronMesh.obj
 0001:001ba330       ?saveTetrahedronMeshData@TetrahedronMeshBuilder@physx@@SA_NAEAVPxOutputStream@2@_NAEBUPxCookingParams@2@AEBVTetrahedronMeshData@Gu@2@@Z 00000001801bb330 f   GuCookingTetrahedronMesh.obj
 0001:001ba4e0       ?smoothMassRatiosWhilePreservingTotalMass@@YAXPEAMIPEBIHMM@Z 00000001801bb4e0 f   GuCookingTetrahedronMesh.obj
 0001:001ba970       ?support@?$LocalConvex@VTetrahedronV@Gu@physx@@@Gu@physx@@UEBA?AT__m128@@AEBT4@@Z 00000001801bb970 f i GuCookingTetrahedronMesh.obj
 0001:001baa30       ?support@?$LocalConvex@VTetrahedronV@Gu@physx@@@Gu@physx@@UEBA?AT__m128@@AEBT4@AEAH@Z 00000001801bba30 f i GuCookingTetrahedronMesh.obj
 0001:001babe0       assembleDeformableVolumeMesh 00000001801bbbe0 f   GuCookingTetrahedronMesh.obj
 0001:001bac40       computeCollisionData       00000001801bbc40 f   GuCookingTetrahedronMesh.obj
 0001:001bae40       computeModelsMapping       00000001801bbe40 f   GuCookingTetrahedronMesh.obj
 0001:001baf40       computeSimulationData      00000001801bbf40 f   GuCookingTetrahedronMesh.obj
 0001:001bb110       cookDeformableVolumeMesh   00000001801bc110 f   GuCookingTetrahedronMesh.obj
 0001:001bb720       cookTetrahedronMesh        00000001801bc720 f   GuCookingTetrahedronMesh.obj
 0001:001bb820       createDeformableVolumeMesh 00000001801bc820 f   GuCookingTetrahedronMesh.obj
 0001:001bbeb0       createTetrahedronMesh      00000001801bceb0 f   GuCookingTetrahedronMesh.obj
 0001:001bdc90       ?computeVolumeIntegrals@physx@@YA_NAEBVPxSimpleTriangleMesh@1@MAEAUPxIntegrals@1@@Z 00000001801bec90 f   GuCookingVolumeIntegration.obj
 0001:001bdcd0       ?computeVolumeIntegralsEberly@physx@@YA_NAEBVPxConvexMeshDesc@1@MAEAUPxIntegrals@1@AEBV?$PxVec3T@M@1@_N@Z 00000001801becd0 f   GuCookingVolumeIntegration.obj
 0001:001be320       ??0QuickHull@local@@QEAA@AEBUPxCookingParams@physx@@AEBVPxConvexMeshDesc@3@@Z 00000001801bf320 f   GuCookingQuickHullConvexHullLib.obj
 0001:001be3d0       ??0QuickHullConvexHullLib@physx@@QEAA@AEBVPxConvexMeshDesc@1@AEBUPxCookingParams@1@@Z 00000001801bf3d0 f   GuCookingQuickHullConvexHullLib.obj
 0001:001be4b0       ??1?$MemBlock@UQuickHullHalfEdge@local@@$0A@@local@@QEAA@XZ 00000001801bf4b0 f i GuCookingQuickHullConvexHullLib.obj
 0001:001be4b0       ??1?$MemBlock@UQuickHullFace@local@@$00@local@@QEAA@XZ 00000001801bf4b0 f i GuCookingQuickHullConvexHullLib.obj
 0001:001be570       ??1QuickHull@local@@QEAA@XZ 00000001801bf570 f   GuCookingQuickHullConvexHullLib.obj
 0001:001be6d0       ??_GConvexHull@physx@@QEAAPEAXI@Z 00000001801bf6d0 f i GuCookingQuickHullConvexHullLib.obj
 0001:001be7c0       ??_EConvexHullLib@physx@@UEAAPEAXI@Z 00000001801bf7c0 f i GuCookingQuickHullConvexHullLib.obj
 0001:001be7c0       ??_GConvexHullLib@physx@@UEAAPEAXI@Z 00000001801bf7c0 f i GuCookingQuickHullConvexHullLib.obj
 0001:001be800       ??_GQuickHullConvexHullLib@physx@@UEAAPEAXI@Z 00000001801bf800 f i GuCookingQuickHullConvexHullLib.obj
 0001:001be800       ??_EQuickHullConvexHullLib@physx@@UEAAPEAXI@Z 00000001801bf800 f i GuCookingQuickHullConvexHullLib.obj
 0001:001be920       ?addPointToHull@QuickHull@local@@IEAA_NPEBUQuickHullVertex@2@AEAUQuickHullFace@2@AEA_N@Z 00000001801bf920 f   GuCookingQuickHullConvexHullLib.obj
 0001:001bebf0       ?addSimplex@QuickHull@local@@IEAA_NPEAUQuickHullVertex@2@_N@Z 00000001801bfbf0 f   GuCookingQuickHullConvexHullLib.obj
 0001:001bf100       ?buildHull@QuickHull@local@@QEAA?AW4Enum@QuickHullResult@2@XZ 00000001801c0100 f   GuCookingQuickHullConvexHullLib.obj
 0001:001bf350       ?calculateHorizon@QuickHull@local@@IEAAXAEBV?$PxVec3T@M@physx@@PEAUQuickHullHalfEdge@2@AEAUQuickHullFace@2@AEAV?$PxArray@PEAUQuickHullHalfEdge@local@@V?$PxReflectionAllocator@PEAUQuickHullHalfEdge@local@@@physx@@@4@AEAV?$PxArray@PEAUQuickHullFace@local@@V?$PxReflectionAllocator@PEAUQuickHullFace@local@@@physx@@@4@@Z 00000001801c0350 f   GuCookingQuickHullConvexHullLib.obj
 0001:001bf500       ?canMergeFaces@QuickHull@local@@IEAA_NAEBUQuickHullHalfEdge@2@@Z 00000001801c0500 f   GuCookingQuickHullConvexHullLib.obj
 0001:001bfd40       ?cleanupForSimplex@QuickHullConvexHullLib@physx@@IEAA_NPEAV?$PxVec3T@M@2@IPEAUQuickHullVertex@local@@1AEAM2@Z 00000001801c0d40 f   GuCookingQuickHullConvexHullLib.obj
 0001:001c0990       ?computeMinMaxVerts@QuickHull@local@@IEAAXXZ 00000001801c1990 f   GuCookingQuickHullConvexHullLib.obj
 0001:001c0d60       ?connectHalfEdges@QuickHullFace@local@@AEAAPEAU12@PEAUQuickHullHalfEdge@2@0@Z 00000001801c1d60 f   GuCookingQuickHullConvexHullLib.obj
 0001:001c10d0       ?copy@?$PxArray@UExpandPoint@local@@V?$PxReflectionAllocator@UExpandPoint@local@@@physx@@@physx@@KAXPEAUExpandPoint@local@@0PEBU34@@Z 00000001801c20d0 f i GuCookingQuickHullConvexHullLib.obj
 0001:001c1180       ?copy@?$PxArray@VPxPlane@physx@@V?$PxReflectionAllocator@VPxPlane@physx@@@2@@physx@@KAXPEAVPxPlane@2@0PEBV32@@Z 00000001801c2180 f i GuCookingQuickHullConvexHullLib.obj
 0001:001c1280       ?createConvexHull@QuickHullConvexHullLib@physx@@UEAA?AW4Enum@PxConvexMeshCookingResult@2@XZ 00000001801c2280 f   GuCookingQuickHullConvexHullLib.obj
 0001:001c1680       ?createEdgeList@QuickHullConvexHullLib@physx@@UEAA_NIPEBEPEAPEAEPEAPEAG2@Z 00000001801c2680 f   GuCookingQuickHullConvexHullLib.obj
 0001:001c1890       ?createTriangle@QuickHull@local@@IEAAPEAUQuickHullFace@2@AEBUQuickHullVertex@2@00@Z 00000001801c2890 f   GuCookingQuickHullConvexHullLib.obj
 0001:001c1c60       ?doAdjacentMerge@QuickHull@local@@IEAA_NAEAUQuickHullFace@2@_NAEA_N@Z 00000001801c2c60 f   GuCookingQuickHullConvexHullLib.obj
 0001:001c1fa0       ?expandHull@QuickHullConvexHullLib@physx@@IEAA?AW4Enum@PxConvexMeshCookingResult@2@XZ 00000001801c2fa0 f   GuCookingQuickHullConvexHullLib.obj
 0001:001c2d00       ?expandHullOBB@QuickHullConvexHullLib@physx@@IEAA?AW4Enum@PxConvexMeshCookingResult@2@XZ 00000001801c3d00 f   GuCookingQuickHullConvexHullLib.obj
 0001:001c3120       ?fillConvexMeshDesc@QuickHullConvexHullLib@physx@@UEAAXAEAVPxConvexMeshDesc@2@@Z 00000001801c4120 f   GuCookingQuickHullConvexHullLib.obj
 0001:001c3170       ?fillConvexMeshDescFromCroppedHull@QuickHullConvexHullLib@physx@@IEAAXAEAVPxConvexMeshDesc@2@@Z 00000001801c4170 f   GuCookingQuickHullConvexHullLib.obj
 0001:001c3360       ?fillConvexMeshDescFromQuickHull@QuickHullConvexHullLib@physx@@IEAAXAEAVPxConvexMeshDesc@2@@Z 00000001801c4360 f   GuCookingQuickHullConvexHullLib.obj
 0001:001c3700       ?findSimplex@QuickHull@local@@IEAA_NXZ 00000001801c4700 f   GuCookingQuickHullConvexHullLib.obj
 0001:001c43b0       ?getFreeItem@?$MemBlock@UQuickHullFace@local@@$00@local@@QEAAPEAUQuickHullFace@2@XZ 00000001801c53b0 f i GuCookingQuickHullConvexHullLib.obj
 0001:001c44f0       ?getFreeItem@?$MemBlock@UQuickHullHalfEdge@local@@$0A@@local@@QEAAPEAUQuickHullHalfEdge@2@XZ 00000001801c54f0 f i GuCookingQuickHullConvexHullLib.obj
 0001:001c45c0       ?growAndPushBack@?$PxArray@PEAUQuickHullFace@local@@V?$PxReflectionAllocator@PEAUQuickHullFace@local@@@physx@@@physx@@IEAAAEAPEAUQuickHullFace@local@@AEBQEAU34@@Z 00000001801c55c0 f i GuCookingQuickHullConvexHullLib.obj
 0001:001c4700       ?growAndPushBack@?$PxArray@PEAUQuickHullHalfEdge@local@@V?$PxReflectionAllocator@PEAUQuickHullHalfEdge@local@@@physx@@@physx@@IEAAAEAPEAUQuickHullHalfEdge@local@@AEBQEAU34@@Z 00000001801c5700 f i GuCookingQuickHullConvexHullLib.obj
 0001:001c4840       ?growAndPushBack@?$PxArray@PEAUQuickHullVertex@local@@V?$PxReflectionAllocator@PEAUQuickHullVertex@local@@@physx@@@physx@@IEAAAEAPEAUQuickHullVertex@local@@AEBQEAU34@@Z 00000001801c5840 f i GuCookingQuickHullConvexHullLib.obj
 0001:001c4980       ?growAndPushBack@?$PxArray@UExpandPoint@local@@V?$PxReflectionAllocator@UExpandPoint@local@@@physx@@@physx@@IEAAAEAUExpandPoint@local@@AEBU34@@Z 00000001801c5980 f i GuCookingQuickHullConvexHullLib.obj
 0001:001c4b10       ?growAndPushBack@?$PxArray@VPxPlane@physx@@V?$PxReflectionAllocator@VPxPlane@physx@@@2@@physx@@IEAAAEAVPxPlane@2@AEBV32@@Z 00000001801c5b10 f i GuCookingQuickHullConvexHullLib.obj
 0001:001c4c50       ?init@?$MemBlock@UQuickHullFace@local@@$00@local@@QEAAXI@Z 00000001801c5c50 f i GuCookingQuickHullConvexHullLib.obj
 0001:001c4d50       ?init@?$MemBlock@UQuickHullHalfEdge@local@@$0A@@local@@QEAAXI@Z 00000001801c5d50 f i GuCookingQuickHullConvexHullLib.obj
 0001:001c4df0       ?mergeAdjacentFace@QuickHullFace@local@@QEAA_NPEAUQuickHullHalfEdge@2@AEAV?$PxArray@PEAUQuickHullFace@local@@V?$PxReflectionAllocator@PEAUQuickHullFace@local@@@physx@@@physx@@@Z 00000001801c5df0 f   GuCookingQuickHullConvexHullLib.obj
 0001:001c5250       ?nextPointToAdd@QuickHull@local@@IEAAPEAUQuickHullVertex@2@AEAPEAUQuickHullFace@2@@Z 00000001801c6250 f   GuCookingQuickHullConvexHullLib.obj
 0001:001c53d0       ?parseInputVertices@QuickHull@local@@QEAAXPEBV?$PxVec3T@M@physx@@I@Z 00000001801c63d0 f   GuCookingQuickHullConvexHullLib.obj
 0001:001c5560       ?postMergeHull@QuickHull@local@@IEAAXXZ 00000001801c6560 f   GuCookingQuickHullConvexHullLib.obj
 0001:001c57b0       ?preallocate@QuickHull@local@@QEAAXI@Z 00000001801c67b0 f   GuCookingQuickHullConvexHullLib.obj
 0001:001c58f0       ?recreate@?$PxArray@PEAUQuickHullFace@local@@V?$PxReflectionAllocator@PEAUQuickHullFace@local@@@physx@@@physx@@IEAAXI@Z 00000001801c68f0 f i GuCookingQuickHullConvexHullLib.obj
 0001:001c5a00       ?recreate@?$PxArray@PEAUQuickHullHalfEdge@local@@V?$PxReflectionAllocator@PEAUQuickHullHalfEdge@local@@@physx@@@physx@@IEAAXI@Z 00000001801c6a00 f i GuCookingQuickHullConvexHullLib.obj
 0001:001c5b10       ?recreate@?$PxArray@PEAUQuickHullVertex@local@@V?$PxReflectionAllocator@PEAUQuickHullVertex@local@@@physx@@@physx@@IEAAXI@Z 00000001801c6b10 f i GuCookingQuickHullConvexHullLib.obj
 0001:001c5c20       ?recreate@?$PxArray@UExpandPoint@local@@V?$PxReflectionAllocator@UExpandPoint@local@@@physx@@@physx@@IEAAXI@Z 00000001801c6c20 f i GuCookingQuickHullConvexHullLib.obj
 0001:001c5d10       ?recreate@?$PxArray@VPxPlane@physx@@V?$PxReflectionAllocator@VPxPlane@physx@@@2@@physx@@IEAAXI@Z 00000001801c6d10 f i GuCookingQuickHullConvexHullLib.obj
 0001:001c5e10       ?resolveUnclaimedPoints@QuickHull@local@@IEAAXAEBV?$PxArray@PEAUQuickHullFace@local@@V?$PxReflectionAllocator@PEAUQuickHullFace@local@@@physx@@@physx@@@Z 00000001801c6e10 f   GuCookingQuickHullConvexHullLib.obj
 0001:001c6090       ??$copy@V?$PxReflectionAllocator@VPair@@@physx@@@?$PxArray@VPair@@V?$PxReflectionAllocator@VPair@@@physx@@@physx@@IEAAXAEBV01@@Z 00000001801c7090 f i GuCookingConvexPolygonsBuilder.obj
 0001:001c6110       ??0ConvexPolygonsBuilder@physx@@QEAA@PEAUConvexHullData@Gu@1@_N@Z 00000001801c7110 f   GuCookingConvexPolygonsBuilder.obj
 0001:001c6130       ??1ConvexPolygonsBuilder@physx@@QEAA@XZ 00000001801c7130 f   GuCookingConvexPolygonsBuilder.obj
 0001:001c6980       ?allocate@?$PxArray@VPair@@V?$PxReflectionAllocator@VPair@@@physx@@@physx@@IEAAPEAVPair@@IPEAI@Z 00000001801c7980 f i GuCookingConvexPolygonsBuilder.obj
 0001:001c7480       ?computeHullPolygons@ConvexPolygonsBuilder@physx@@QEAA_NAEBIPEBV?$PxVec3T@M@2@0PEBI@Z 00000001801c8480 f   GuCookingConvexPolygonsBuilder.obj
 0001:001c8510       ?createPolygonData@ConvexPolygonsBuilder@physx@@AEAA_NXZ 00000001801c9510 f   GuCookingConvexPolygonsBuilder.obj
 0001:001c9110       ?createTrianglesFromPolygons@ConvexPolygonsBuilder@physx@@AEAA_NXZ 00000001801ca110 f   GuCookingConvexPolygonsBuilder.obj
 0001:001ca7e0       ?growAndPushBack@?$PxArray@VPair@@V?$PxReflectionAllocator@VPair@@@physx@@@physx@@IEAAAEAVPair@@AEBV3@@Z 00000001801cb7e0 f i GuCookingConvexPolygonsBuilder.obj
 0001:001ca9f0       ??0ConvexMeshBuilder@physx@@QEAA@_N@Z 00000001801cb9f0 f   GuCookingConvexMeshBuilder.obj
 0001:001caa60       ??1ConvexMeshBuilder@physx@@QEAA@XZ 00000001801cba60 f   GuCookingConvexMeshBuilder.obj
 0001:001caf20       ?build@ConvexMeshBuilder@physx@@QEAA_NAEBVPxConvexMeshDesc@2@I_NPEAVConvexHullLib@2@@Z 00000001801cbf20 f   GuCookingConvexMeshBuilder.obj
 0001:001cb2c0       ?checkExtentRadiusRatio@ConvexMeshBuilder@physx@@QEAA_NXZ 00000001801cc2c0 f   GuCookingConvexMeshBuilder.obj
 0001:001cb2f0       ?computeHullPolygons@ConvexMeshBuilder@physx@@QEAA_NAEBIPEBV?$PxVec3T@M@2@0PEBIAEAVPxAllocatorCallback@2@AEAIAEAPEAV32@4AEAPEAI4AEAPEAUPxHullPolygon@2@@Z 00000001801cc2f0 f   GuCookingConvexMeshBuilder.obj
 0001:001cb4f0       ?computeMassInfo@ConvexMeshBuilder@physx@@QEAAX_N@Z 00000001801cc4f0 f   GuCookingConvexMeshBuilder.obj
 0001:001cb880       ?computeSDF@ConvexMeshBuilder@physx@@QEAAXAEBVPxConvexMeshDesc@2@@Z 00000001801cc880 f   GuCookingConvexMeshBuilder.obj
 0001:001cbcf0       ?copy@ConvexMeshBuilder@physx@@QEAA_NAEAUConvexHullInitData@Gu@2@@Z 00000001801cccf0 f   GuCookingConvexMeshBuilder.obj
 0001:001cbe50       ?loadConvexHull@ConvexMeshBuilder@physx@@QEAA_NAEBVPxConvexMeshDesc@2@PEAVConvexHullLib@2@@Z 00000001801cce50 f   GuCookingConvexMeshBuilder.obj
 0001:001cc0c0       ?save@ConvexMeshBuilder@physx@@QEBA_NAEAVPxOutputStream@2@_N@Z 00000001801cd0c0 f   GuCookingConvexMeshBuilder.obj
 0001:001cc4e0       ??0ConvexHull@physx@@QEAA@AEBV?$PxVec3T@M@1@AEBV?$PxTransformT@M@1@AEBV?$PxArray@VPxPlane@physx@@V?$PxReflectionAllocator@VPxPlane@physx@@@2@@1@@Z 00000001801cd4e0 f   GuCookingConvexHullUtils.obj
 0001:001cd600       ?assertIntact@ConvexHull@physx@@QEBA_NM@Z 00000001801ce600 f   GuCookingConvexHullUtils.obj
 0001:001cd910       ?computeOBBFromConvex@physx@@YA_NAEBVPxConvexMeshDesc@1@AEAV?$PxVec3T@M@1@AEAV?$PxTransformT@M@1@@Z 00000001801ce910 f   GuCookingConvexHullUtils.obj
 0001:001cdf80       ?computeOBBSIMD@local@@YAXIPEBT__m128@@AEAT2@AEBT2@1@Z 00000001801cef80 f   GuCookingConvexHullUtils.obj
 0001:001ce360       ?convexHullCrop@physx@@YAPEAVConvexHull@1@AEBV21@AEBVPxPlane@1@M@Z 00000001801cf360 f   GuCookingConvexHullUtils.obj
 0001:001cf120       ?findCandidatePlane@ConvexHull@physx@@QEBAHMM@Z 00000001801d0120 f   GuCookingConvexHullUtils.obj
 0001:001cf590       ?growAndPushBack@?$PxArray@VHalfEdge@ConvexHull@physx@@V?$PxReflectionAllocator@VHalfEdge@ConvexHull@physx@@@3@@physx@@IEAAAEAVHalfEdge@ConvexHull@2@AEBV342@@Z 00000001801d0590 f i GuCookingConvexHullUtils.obj
 0001:001cf6d0       ?maxNumVertsPerFace@ConvexHull@physx@@QEBAIXZ 00000001801d06d0 f   GuCookingConvexHullUtils.obj
 0001:001cf740       ?recreate@?$PxArray@VHalfEdge@ConvexHull@physx@@V?$PxReflectionAllocator@VHalfEdge@ConvexHull@physx@@@3@@physx@@IEAAXI@Z 00000001801d0740 f i GuCookingConvexHullUtils.obj
 0001:001cf850       ?resize@?$PxArray@VHalfEdge@ConvexHull@physx@@V?$PxReflectionAllocator@VHalfEdge@ConvexHull@physx@@@3@@physx@@QEAAXIAEBVHalfEdge@ConvexHull@2@@Z 00000001801d0850 f i GuCookingConvexHullUtils.obj
 0001:001cf910       ?resize@?$PxArray@VPxPlane@physx@@V?$PxReflectionAllocator@VPxPlane@physx@@@2@@physx@@QEAAXIAEBVPxPlane@2@@Z 00000001801d0910 f i GuCookingConvexHullUtils.obj
 0001:001cfa30       ??1ConvexHullLib@physx@@UEAA@XZ 00000001801d0a30 f   GuCookingConvexHullLib.obj
 0001:001d0050       ?cleanupVertices@ConvexHullLib@physx@@IEAA_NIPEBV?$PxVec3T@M@2@IAEAIPEAV32@@Z 00000001801d1050 f   GuCookingConvexHullLib.obj
 0001:001d0190       ?shiftAndcleanupVertices@ConvexHullLib@physx@@IEAA_NIPEBV?$PxVec3T@M@2@IAEAIPEAV32@@Z 00000001801d1190 f   GuCookingConvexHullLib.obj
 0001:001d0770       ?shiftConvexMeshDesc@ConvexHullLib@physx@@IEAAXAEAVPxConvexMeshDesc@2@@Z 00000001801d1770 f   GuCookingConvexHullLib.obj
 0001:001d0830       ?swapLargestFace@ConvexHullLib@physx@@IEAAXAEAVPxConvexMeshDesc@2@@Z 00000001801d1830 f   GuCookingConvexHullLib.obj
 0001:001d0a60       ??0ConvexHullBuilder@physx@@QEAA@PEAUConvexHullData@Gu@1@_N@Z 00000001801d1a60 f   GuCookingConvexHullBuilder.obj
 0001:001d0a90       ??1ConvexHullBuilder@physx@@QEAA@XZ 00000001801d1a90 f   GuCookingConvexHullBuilder.obj
 0001:001d0ba0       ?calculateVertexMapTable@ConvexHullBuilder@physx@@QEAA_NI_N@Z 00000001801d1ba0 f   GuCookingConvexHullBuilder.obj
 0001:001d0d60       ?checkHullPolygons@ConvexHullBuilder@physx@@QEBA_NXZ 00000001801d1d60 f   GuCookingConvexHullBuilder.obj
 0001:001d12f0       ?copy@ConvexHullBuilder@physx@@QEAA_NAEAUConvexHullData@Gu@2@AEAI@Z 00000001801d22f0 f   GuCookingConvexHullBuilder.obj
 0001:001d1590       ?createEdgeList@ConvexHullBuilder@physx@@QEAA_N_NI@Z 00000001801d2590 f   GuCookingConvexHullBuilder.obj
 0001:001d1d00       ?init@ConvexHullBuilder@physx@@QEAA_NIPEBV?$PxVec3T@M@2@PEBIIIPEBUPxHullPolygon@2@_NPEAVConvexHullLib@2@@Z 00000001801d2d00 f   GuCookingConvexHullBuilder.obj
 0001:001d2630       ?save@ConvexHullBuilder@physx@@QEBA_NAEAVPxOutputStream@2@_N@Z 00000001801d3630 f   GuCookingConvexHullBuilder.obj
 0001:001d2950       ??0BigConvexDataBuilder@physx@@QEAA@PEBUConvexHullData@Gu@1@PEAVBigConvexData@1@PEBV?$PxVec3T@M@1@@Z 00000001801d3950 f   GuCookingBigConvexDataBuilder.obj
 0001:001d2960       ?computeValencies@BigConvexDataBuilder@physx@@QEAA_NAEBVConvexHullBuilder@2@@Z 00000001801d3960 f   GuCookingBigConvexDataBuilder.obj
 0001:001d2d60       ?precompute@BigConvexDataBuilder@physx@@QEAA_NI@Z 00000001801d3d60 f   GuCookingBigConvexDataBuilder.obj
 0001:001d3960       ?save@BigConvexDataBuilder@physx@@QEBA_NAEAVPxOutputStream@2@_N@Z 00000001801d4960 f   GuCookingBigConvexDataBuilder.obj
 0001:001d3ee0       ?buildSDF@physx@@YA_NAEAVPxTriangleMeshDesc@1@AEAV?$PxArray@MV?$PxReflectionAllocator@M@physx@@@1@AEAV?$PxArray@EV?$PxReflectionAllocator@E@physx@@@1@AEAV?$PxArray@IV?$PxReflectionAllocator@I@physx@@@1@@Z 00000001801d4ee0 f   GuCookingSDF.obj
 0001:001d4f20       ?recreate@?$PxArray@EV?$PxReflectionAllocator@E@physx@@@physx@@IEAAXI@Z 00000001801d5f20 f i GuCookingSDF.obj
 0001:001d5010       ?resize@?$PxArray@EV?$PxReflectionAllocator@E@physx@@@physx@@QEAAXIAEBE@Z 00000001801d6010 f i GuCookingSDF.obj
 0001:001d50ca       __imp_load_PxGetFoundation 00000001801d60ca f   PhysXFoundation_64:PhysXFoundation_64.dll
 0001:001d50d6       __tailMerge_physxfoundation_64_dll 00000001801d60d6     PhysXFoundation_64:PhysXFoundation_64.dll
 0001:001d514f       __imp_load_PxGetBroadcastAllocator 00000001801d614f f   PhysXFoundation_64:PhysXFoundation_64.dll
 0001:001d515b       __imp_load_?PxAtomicIncrement@physx@@YAHPECH@Z 00000001801d615b f   PhysXFoundation_64:PhysXFoundation_64.dll
 0001:001d5167       __imp_load_??0PxMutexImpl@physx@@QEAA@XZ 00000001801d6167 f   PhysXFoundation_64:PhysXFoundation_64.dll
 0001:001d5173       __imp_load_??1PxMutexImpl@physx@@QEAA@XZ 00000001801d6173 f   PhysXFoundation_64:PhysXFoundation_64.dll
 0001:001d517f       __imp_load_?lock@PxMutexImpl@physx@@QEAAXXZ 00000001801d617f f   PhysXFoundation_64:PhysXFoundation_64.dll
 0001:001d518b       __imp_load_?unlock@PxMutexImpl@physx@@QEAAXXZ 00000001801d618b f   PhysXFoundation_64:PhysXFoundation_64.dll
 0001:001d5197       __imp_load_?getSize@PxMutexImpl@physx@@SAIXZ 00000001801d6197 f   PhysXFoundation_64:PhysXFoundation_64.dll
 0001:001d51a3       __imp_load_?PxTransformFromSegment@physx@@YA?AV?$PxTransformT@M@1@AEBV?$PxVec3T@M@1@0PEAM@Z 00000001801d61a3 f   PhysXFoundation_64:PhysXFoundation_64.dll
 0001:001d51af       __imp_load_?PxAtomicAdd@physx@@YAHPECHH@Z 00000001801d61af f   PhysXFoundation_64:PhysXFoundation_64.dll
 0001:001d51bb       __imp_load_?getDefaultStackSize@PxThreadImpl@physx@@SAIXZ 00000001801d61bb f   PhysXFoundation_64:PhysXFoundation_64.dll
 0001:001d51c7       __imp_load_??0PxThreadImpl@physx@@QEAA@P6APEAXPEAX@Z0PEBD@Z 00000001801d61c7 f   PhysXFoundation_64:PhysXFoundation_64.dll
 0001:001d51d3       __imp_load_??1PxThreadImpl@physx@@QEAA@XZ 00000001801d61d3 f   PhysXFoundation_64:PhysXFoundation_64.dll
 0001:001d51df       __imp_load_?start@PxThreadImpl@physx@@QEAAXIPEAVPxRunnable@2@@Z 00000001801d61df f   PhysXFoundation_64:PhysXFoundation_64.dll
 0001:001d51eb       __imp_load_?waitForQuit@PxThreadImpl@physx@@QEAA_NXZ 00000001801d61eb f   PhysXFoundation_64:PhysXFoundation_64.dll
 0001:001d51f7       __imp_load_?getSize@PxThreadImpl@physx@@SAIXZ 00000001801d61f7 f   PhysXFoundation_64:PhysXFoundation_64.dll
 0001:001d5203       __imp_load_?allocate@PxTempAllocator@physx@@QEAAPEAX_KPEBDH@Z 00000001801d6203 f   PhysXFoundation_64:PhysXFoundation_64.dll
 0001:001d520f       __imp_load_?deallocate@PxTempAllocator@physx@@QEAAXPEAX@Z 00000001801d620f f   PhysXFoundation_64:PhysXFoundation_64.dll
 0001:001d521b       __imp_load_?PxOptimizeBoundingBox@physx@@YA?AV?$PxVec3T@M@1@AEAV?$PxMat33T@M@1@@Z 00000001801d621b f   PhysXFoundation_64:PhysXFoundation_64.dll
 0001:001d5227       __imp_load_?Pxstrcmp@physx@@YAHPEBD0@Z 00000001801d6227 f   PhysXFoundation_64:PhysXFoundation_64.dll
 0001:001d5233       __imp_load_?PxAtomicDecrement@physx@@YAHPECH@Z 00000001801d6233 f   PhysXFoundation_64:PhysXFoundation_64.dll
 0001:001d523f       __imp_load_PxGetProfilerCallback 00000001801d623f f   PhysXFoundation_64:PhysXFoundation_64.dll
 0001:001d524b       __imp_load_??0PxFPUGuard@physx@@QEAA@XZ 00000001801d624b f   PhysXFoundation_64:PhysXFoundation_64.dll
 0001:001d5257       __imp_load_??1PxFPUGuard@physx@@QEAA@XZ 00000001801d6257 f   PhysXFoundation_64:PhysXFoundation_64.dll
 0001:001d5263       __imp_load_?PxDiagonalize@physx@@YA?AV?$PxVec3T@M@1@AEBV?$PxMat33T@M@1@AEAV?$PxQuatT@M@1@@Z 00000001801d6263 f   PhysXFoundation_64:PhysXFoundation_64.dll
 0001:001d5270       ?DloadAcquireSectionWriteAccess@@YAXXZ 00000001801d6270 f i Delayimp:delayhlp.obj
 0001:001d531c       ?DloadGetSRWLockFunctionPointers@@YAEXZ 00000001801d631c f i Delayimp:delayhlp.obj
 0001:001d53b8       ?DloadMakePermanentImageCommit@@YAXPEAX_K@Z 00000001801d63b8 f i Delayimp:delayhlp.obj
 0001:001d5450       ?DloadObtainSection@@YAPEAXPEAK0@Z 00000001801d6450 f i Delayimp:delayhlp.obj
 0001:001d54ec       ?DloadProtectSection@@YAXKPEAK@Z 00000001801d64ec f i Delayimp:delayhlp.obj
 0001:001d557c       ?DloadReleaseSectionWriteAccess@@YAXXZ 00000001801d657c f i Delayimp:delayhlp.obj
 0001:001d5610       __delayLoadHelper2         00000001801d6610 f   Delayimp:delayhlp.obj
 0001:001d58e4       ??_V@YAXPEAX@Z             00000001801d68e4 f   LIBCMT:delete_array.obj
 0001:001d58e4       ??3@YAXPEAX_K@Z            00000001801d68e4 f   LIBCMT:delete_scalar_size.obj
 0001:001d58ec       ??_Etype_info@@UEAAPEAXI@Z 00000001801d68ec f i LIBCMT:std_type_info_static.obj
 0001:001d58ec       ??_Gtype_info@@UEAAPEAXI@Z 00000001801d68ec f i LIBCMT:std_type_info_static.obj
 0001:001d5918       ?__scrt_initialize_type_info@@YAXXZ 00000001801d6918 f   LIBCMT:tncleanup.obj
 0001:001d5928       ?__scrt_uninitialize_type_info@@YAXXZ 00000001801d6928 f   LIBCMT:tncleanup.obj
 0001:001d5950       _alloca_probe              00000001801d6950 f   LIBCMT:chkstk.obj
 0001:001d5950       __chkstk                   00000001801d6950 f   LIBCMT:chkstk.obj
 0001:001d59a0       __vdecl_sinf4              00000001801d69a0 f   LIBCMT:svml_ssinf4_dispatch.obj
 0001:001d59c0       __libm_sse2_sincosf_       00000001801d69c0 f   LIBCMT:svml_ssinf4_dispatch.obj
 0001:001d5a03       __libm_sse2_sincosf4_      00000001801d6a03 f   LIBCMT:svml_ssinf4_dispatch.obj
 0001:001d5a10       ??3@YAXPEAX@Z              00000001801d6a10 f   LIBCMT:delete_scalar.obj
 0001:001d5a18       __scrt_acquire_startup_lock 00000001801d6a18 f   LIBCMT:utility.obj
 0001:001d5a54       __scrt_dllmain_after_initialize_c 00000001801d6a54 f   LIBCMT:utility.obj
 0001:001d5a88       __scrt_dllmain_before_initialize_c 00000001801d6a88 f   LIBCMT:utility.obj
 0001:001d5aa0       __scrt_dllmain_crt_thread_attach 00000001801d6aa0 f   LIBCMT:utility.obj
 0001:001d5ac8       __scrt_dllmain_crt_thread_detach 00000001801d6ac8 f   LIBCMT:utility.obj
 0001:001d5ae0       __scrt_dllmain_exception_filter 00000001801d6ae0 f   LIBCMT:utility.obj
 0001:001d5b40       __scrt_dllmain_uninitialize_c 00000001801d6b40 f   LIBCMT:utility.obj
 0001:001d5b70       __scrt_dllmain_uninitialize_critical 00000001801d6b70 f   LIBCMT:utility.obj
 0001:001d5b84       __scrt_initialize_crt      00000001801d6b84 f   LIBCMT:utility.obj
 0001:001d5bd0       __scrt_initialize_onexit_tables 00000001801d6bd0 f   LIBCMT:utility.obj
 0001:001d5c5c       __scrt_is_nonwritable_in_current_image 00000001801d6c5c f   LIBCMT:utility.obj
 0001:001d5cf4       __scrt_release_startup_lock 00000001801d6cf4 f   LIBCMT:utility.obj
 0001:001d5d18       __scrt_uninitialize_crt    00000001801d6d18 f   LIBCMT:utility.obj
 0001:001d5d44       _onexit                    00000001801d6d44 f   LIBCMT:utility.obj
 0001:001d5d80       atexit                     00000001801d6d80 f   LIBCMT:utility.obj
 0001:001d5d98       __isa_available_init       00000001801d6d98 f   LIBCMT:cpu_disp.obj
 0001:001d625c       _DllMainCRTStartup         00000001801d725c f   LIBCMT:dll_dllmain.obj
 0001:001d62a0       __sse2_sinf4@@16           00000001801d72a0 f   LIBCMT:svml_ssinf4_sse2.obj
 0001:001d6be0       __sse4_sinf4@@16           00000001801d7be0 f   LIBCMT:svml_ssinf4_sse4.obj
 0001:001d7354       __scrt_is_ucrt_dll_in_use  00000001801d8354 f   LIBCMT:ucrt_detection.obj
 0001:001d7360       __crt_debugger_hook        00000001801d8360 f   LIBCMT:utility_desktop.obj
 0001:001d7368       __scrt_fastfail            00000001801d8368 f   LIBCMT:utility_desktop.obj
 0001:001d74b4       __security_init_cookie     00000001801d84b4 f   LIBCMT:gs_support.obj
 0001:001d7560       __local_stdio_scanf_options 00000001801d8560 f i LIBCMT:default_local_stdio_options.obj
 0001:001d7568       __scrt_initialize_default_local_stdio_options 00000001801d8568 f   LIBCMT:default_local_stdio_options.obj
 0001:001d7584       __scrt_get_dyn_tls_init_callback 00000001801d8584 f   LIBCMT:dyn_tls_init.obj
 0001:001d758c       _RTC_Initialize            00000001801d858c f   LIBCMT:initsect.obj
 0001:001d75c8       _RTC_Terminate             00000001801d85c8 f   LIBCMT:initsect.obj
 0001:001d7610       __common_ssin_cout_rare    00000001801d8610 f   LIBCMT:svml_s_sin_cout.obj
 0001:001d7690       memcpy_repmovs             00000001801d8690 f   libvcruntime:memcpy.obj
 0001:001d76b0       memcpy                     00000001801d86b0 f   libvcruntime:memcpy.obj
 0001:001d76b0       memmove                    00000001801d86b0 f   libvcruntime:memcpy.obj
 0001:001d7d28       _get_purecall_handler      00000001801d8d28 f   libvcruntime:purevirt.obj
 0001:001d7d34       _purecall                  00000001801d8d34 f   libvcruntime:purevirt.obj
 0001:001d7d58       __std_type_info_compare    00000001801d8d58 f   libvcruntime:std_type_info.obj
 0001:001d7d80       __std_type_info_destroy_list 00000001801d8d80 f   libvcruntime:std_type_info.obj
 0001:001d7dac       __std_type_info_name       00000001801d8dac f   libvcruntime:std_type_info.obj
 0001:001d7ee0       memset_repmovs             00000001801d8ee0 f   libvcruntime:memset.obj
 0001:001d7f00       memset                     00000001801d8f00 f   libvcruntime:memset.obj
 0001:001d8090       strstr                     00000001801d9090 f   libvcruntime:strstr.obj
 0001:001d828c       __vcrt_initialize          00000001801d928c f   libvcruntime:initialization.obj
 0001:001d82b4       __vcrt_thread_attach       00000001801d92b4 f   libvcruntime:initialization.obj
 0001:001d82c8       __vcrt_thread_detach       00000001801d92c8 f   libvcruntime:initialization.obj
 0001:001d82dc       __vcrt_uninitialize        00000001801d92dc f   libvcruntime:initialization.obj
 0001:001d82f8       __vcrt_uninitialize_critical 00000001801d92f8 f   libvcruntime:initialization.obj
 0001:001d8308       __C_specific_handler       00000001801d9308 f   libvcruntime:riscchandler.obj
 0001:001d8514       __DestructExceptionObject  00000001801d9514 f   libvcruntime:ehhelpers.obj
 0001:001d8584       ?_CallMemberFunction0@@YAXQEAX0@Z 00000001801d9584 f i libvcruntime:ehhelpers.obj
 0001:001d8588       _IsExceptionObjectToBeDestroyed 00000001801d9588 f   libvcruntime:ehhelpers.obj
 0001:001d85b8       __AdjustPointer            00000001801d95b8 f   libvcruntime:ehhelpers.obj
 0001:001d85dc       __FrameUnwindFilter        00000001801d95dc f   libvcruntime:ehhelpers.obj
 0001:001d8644       ??$?0$00@DName@@QEAA@PEBDU?$StringLifeSelector@$00@@@Z 00000001801d9644 f i libvcruntime:undname.obj
 0001:001d8684       ??$?0$0A@@DName@@QEAA@PEBDU?$StringLifeSelector@$0A@@@@Z 00000001801d9684 f i libvcruntime:undname.obj
 0001:001d8684       ??$?0$01@DName@@QEAA@PEBDU?$StringLifeSelector@$01@@@Z 00000001801d9684 f i libvcruntime:undname.obj
 0001:001d86c4       ??$?0$01@pcharNode@@QEAA@PEBDHU?$StringLifeSelector@$01@@@Z 00000001801d96c4 f i libvcruntime:undname.obj
 0001:001d86c4       ??$?0$0A@@pcharNode@@QEAA@PEBDHU?$StringLifeSelector@$0A@@@@Z 00000001801d96c4 f i libvcruntime:undname.obj
 0001:001d8738       ??$append@VpcharNode@@@DName@@AEAAXPEBVpcharNode@@@Z 00000001801d9738 f i libvcruntime:undname.obj
 0001:001d8738       ??$append@VDNameStatusNode@@@DName@@AEAAXPEBVDNameStatusNode@@@Z 00000001801d9738 f i libvcruntime:undname.obj
 0001:001d8738       ??$append@VcharNode@@@DName@@AEAAXPEBVcharNode@@@Z 00000001801d9738 f i libvcruntime:undname.obj
 0001:001d8738       ??$append@VDNameNode@@@DName@@AEAAXPEBVDNameNode@@@Z 00000001801d9738 f i libvcruntime:undname.obj
 0001:001d879c       ??$doPchar@$00@DName@@AEAAXPEBDH@Z 00000001801d979c f i libvcruntime:undname.obj
 0001:001d8840       ??$doPchar@$01@DName@@AEAAXPEBDH@Z 00000001801d9840 f i libvcruntime:undname.obj
 0001:001d8840       ??$doPchar@$0A@@DName@@AEAAXPEBDH@Z 00000001801d9840 f i libvcruntime:undname.obj
 0001:001d88d8       ??0DName@@QEAA@AEAPEBDD@Z  00000001801d98d8 f   libvcruntime:undname.obj
 0001:001d8988       ??0DName@@QEAA@AEBUStringLiteral@@@Z 00000001801d9988 f   libvcruntime:undname.obj
 0001:001d89b4       ??0DName@@QEAA@PEAV0@@Z    00000001801d99b4 f   libvcruntime:undname.obj
 0001:001d8a38       ??0DName@@QEAA@_J@Z        00000001801d9a38 f   libvcruntime:undname.obj
 0001:001d8ae0       ??0DName@@QEAA@_K@Z        00000001801d9ae0 f   libvcruntime:undname.obj
 0001:001d8b70       ??2@YAPEAX_KAEAV_HeapManager@@H@Z 00000001801d9b70 f   libvcruntime:undname.obj
 0001:001d8b9c       ??AReplicator@@QEBA?AVDName@@H@Z 00000001801d9b9c f   libvcruntime:undname.obj
 0001:001d8bdc       ??HDName@@QEBA?AV0@AEBUStringLiteral@@@Z 00000001801d9bdc f   libvcruntime:undname.obj
 0001:001d8c08       ??HDName@@QEBA?AV0@AEBV0@@Z 00000001801d9c08 f   libvcruntime:undname.obj
 0001:001d8c34       ??HDName@@QEBA?AV0@D@Z     00000001801d9c34 f   libvcruntime:undname.obj
 0001:001d8c60       ??HDName@@QEBA?AV0@W4DNameStatus@@@Z 00000001801d9c60 f   libvcruntime:undname.obj
 0001:001d8c8c       ??YDName@@QEAAAEAV0@AEBUStringLiteral@@@Z 00000001801d9c8c f   libvcruntime:undname.obj
 0001:001d8d0c       ??YDName@@QEAAAEAV0@AEBV0@@Z 00000001801d9d0c f   libvcruntime:undname.obj
 0001:001d8dc0       ??YDName@@QEAAAEAV0@D@Z    00000001801d9dc0 f   libvcruntime:undname.obj
 0001:001d8e2c       ??YDName@@QEAAAEAV0@W4DNameStatus@@@Z 00000001801d9e2c f   libvcruntime:undname.obj
 0001:001d8e98       ??YReplicator@@QEAAAEAV0@AEBVDName@@@Z 00000001801d9e98 f   libvcruntime:undname.obj
 0001:001d8ef0       ?UScore@UnDecorator@@SA?AUStringLiteral@@W4Tokens@@@Z 00000001801d9ef0 f   libvcruntime:undname.obj
 0001:001d8f3c       ?composeDeclaration@UnDecorator@@CA?AVDName@@AEBV2@@Z 00000001801d9f3c f i libvcruntime:undname.obj
 0001:001d9de4       ?doPchar@DName@@AEAAXD@Z   00000001801dade4 f   libvcruntime:undname.obj
 0001:001d9e34       ?getAddressOf@UnDecorator@@CA?AVDName@@XZ 00000001801dae34 f   libvcruntime:undname.obj
 0001:001d9ec4       ?getArgumentList@UnDecorator@@CA?AVDName@@XZ 00000001801daec4 f   libvcruntime:undname.obj
 0001:001da058       ?getArgumentTypes@UnDecorator@@CA?AVDName@@XZ 00000001801db058 f   libvcruntime:undname.obj
 0001:001da1a4       ?getArrayAccess@UnDecorator@@CA?AVDName@@XZ 00000001801db1a4 f   libvcruntime:undname.obj
 0001:001da240       ?getArrayObject@UnDecorator@@CA?AVDName@@XZ 00000001801db240 f   libvcruntime:undname.obj
 0001:001da314       ?getArrayType@UnDecorator@@CA?AVDName@@AEBV2@@Z 00000001801db314 f i libvcruntime:undname.obj
 0001:001da55c       ?getBasedType@UnDecorator@@CA?AVDName@@XZ 00000001801db55c f   libvcruntime:undname.obj
 0001:001da654       ?getBasicDataType@UnDecorator@@CA?AVDName@@AEBV2@@Z 00000001801db654 f   libvcruntime:undname.obj
 0001:001dabf8       ?getCallingConvention@UnDecorator@@CA?AVDName@@XZ 00000001801dbbf8 f   libvcruntime:undname.obj
 0001:001dad38       ?getDataIndirectType@UnDecorator@@CA?AVDName@@AEBV2@W4IndirectionKind@@0H@Z 00000001801dbd38 f   libvcruntime:undname.obj
 0001:001db5d0       ?getDataType@UnDecorator@@CA?AVDName@@PEAV2@@Z 00000001801dc5d0 f   libvcruntime:undname.obj
 0001:001db6e4       ?getDecoratedName@UnDecorator@@CA?AVDName@@XZ 00000001801dc6e4 f   libvcruntime:undname.obj
 0001:001db9c8       ?getDimension@UnDecorator@@CA?AVDName@@_N@Z 00000001801dc9c8 f   libvcruntime:undname.obj
 0001:001dbb10       ?getDispatchTarget@UnDecorator@@CA?AVDName@@XZ 00000001801dcb10 f   libvcruntime:undname.obj
 0001:001dbb74       ?getECSUDataType@UnDecorator@@CA?AVDName@@XZ 00000001801dcb74 f   libvcruntime:undname.obj
 0001:001dbd6c       ?getEnumType@UnDecorator@@CA?AVDName@@XZ 00000001801dcd6c f i libvcruntime:undname.obj
 0001:001dbe9c       ?getExtendedDataIndirectType@UnDecorator@@CA?AVDName@@AEAW4IndirectionKind@@AEA_NH@Z 00000001801dce9c f   libvcruntime:undname.obj
 0001:001dc0a4       ?getExternalDataType@UnDecorator@@CA?AVDName@@AEBV2@@Z 00000001801dd0a4 f i libvcruntime:undname.obj
 0001:001dc164       ?getFloatingPoint@UnDecorator@@CA?AVDName@@H@Z 00000001801dd164 f   libvcruntime:undname.obj
 0001:001dc28c       ?getFunctionIndirectType@UnDecorator@@CA?AVDName@@AEBV2@@Z 00000001801dd28c f   libvcruntime:undname.obj
 0001:001dc7c4       ?getLastChar@DNameStatusNode@@UEBADXZ 00000001801dd7c4 f i libvcruntime:undname.obj
 0001:001dc7d0       ?getLastChar@charNode@@UEBADXZ 00000001801dd7d0 f i libvcruntime:undname.obj
 0001:001dc7d4       ?getLastChar@pDNameNode@@UEBADXZ 00000001801dd7d4 f i libvcruntime:undname.obj
 0001:001dc800       ?getLastChar@pairNode@@UEBADXZ 00000001801dd800 f i libvcruntime:undname.obj
 0001:001dc838       ?getLastChar@pcharNode@@UEBADXZ 00000001801dd838 f i libvcruntime:undname.obj
 0001:001dc84c       ?getLexicalFrame@UnDecorator@@CA?AVDName@@XZ 00000001801dd84c f i libvcruntime:undname.obj
 0001:001dc8b0       ?getMemberAccess@UnDecorator@@CA?AVDName@@XZ 00000001801dd8b0 f   libvcruntime:undname.obj
 0001:001dc944       ?getMemoryWithBuffer@_HeapManager@@QEAAPEAX_K@Z 00000001801dd944 f   libvcruntime:undname.obj
 0001:001dc9d4       ?getNoexcept@UnDecorator@@CA?AVDName@@XZ 00000001801dd9d4 f   libvcruntime:undname.obj
 0001:001dca38       ?getNumberOfDimensions@UnDecorator@@CAHXZ 00000001801dda38 f   libvcruntime:undname.obj
 0001:001dca98       ?getOperatorName@UnDecorator@@CA?AVDName@@_NPEA_N@Z 00000001801dda98 f i libvcruntime:undname.obj
 0001:001dd448       ?getPointerToMember@UnDecorator@@CA?AVDName@@XZ 00000001801de448 f   libvcruntime:undname.obj
 0001:001dd540       ?getPrimaryDataType@UnDecorator@@CA?AVDName@@AEBV2@@Z 00000001801de540 f   libvcruntime:undname.obj
 0001:001dd7f4       ?getPtrRefDataType@UnDecorator@@CA?AVDName@@AEBV2@H@Z 00000001801de7f4 f   libvcruntime:undname.obj
 0001:001dd9c0       ?getPtrRefType@UnDecorator@@CA?AVDName@@AEBV2@0W4IndirectionKind@@@Z 00000001801de9c0 f   libvcruntime:undname.obj
 0001:001ddb98       ?getRestrictionSpec@UnDecorator@@CA?AVDName@@XZ 00000001801deb98 f   libvcruntime:undname.obj
 0001:001ddd64       ?getReturnType@UnDecorator@@CA?AVDName@@PEAV2@@Z 00000001801ded64 f   libvcruntime:undname.obj
 0001:001ddd98       ?getScope@UnDecorator@@CA?AVDName@@XZ 00000001801ded98 f   libvcruntime:undname.obj
 0001:001de24c       ?getScopedName@UnDecorator@@CA?AVDName@@XZ 00000001801df24c f   libvcruntime:undname.obj
 0001:001de388       ?getSignedDimension@UnDecorator@@CA?AVDName@@XZ 00000001801df388 f   libvcruntime:undname.obj
 0001:001de410       ?getString@DNameStatusNode@@UEBAPEADPEAD0@Z 00000001801df410 f i libvcruntime:undname.obj
 0001:001de458       ?getString@charNode@@UEBAPEADPEAD0@Z 00000001801df458 f i libvcruntime:undname.obj
 0001:001de46c       ?getString@pDNameNode@@UEBAPEADPEAD0@Z 00000001801df46c f i libvcruntime:undname.obj
 0001:001de49c       ?getString@pairNode@@UEBAPEADPEAD0@Z 00000001801df49c f i libvcruntime:undname.obj
 0001:001de4e8       ?getString@pcharNode@@UEBAPEADPEAD0@Z 00000001801df4e8 f i libvcruntime:undname.obj
 0001:001de520       ?getStringEncoding@UnDecorator@@CA?AVDName@@W4PrefixKind@@H@Z 00000001801df520 f   libvcruntime:undname.obj
 0001:001de618       ?getStringObject@UnDecorator@@CA?AVDName@@XZ 00000001801df618 f   libvcruntime:undname.obj
 0001:001de680       ?getSymbolName@UnDecorator@@CA?AVDName@@XZ 00000001801df680 f i libvcruntime:undname.obj
 0001:001de6cc       ?getTemplateArgumentList@UnDecorator@@CA?AVDName@@XZ 00000001801df6cc f   libvcruntime:undname.obj
 0001:001de940       ?getTemplateName@UnDecorator@@CA?AVDName@@_N@Z 00000001801df940 f   libvcruntime:undname.obj
 0001:001debd4       ?getTemplateNonTypeArgument@UnDecorator@@CA?AVDName@@XZ 00000001801dfbd4 f   libvcruntime:undname.obj
 0001:001df104       ?getTemplateTypeArgument@UnDecorator@@CA?AVDName@@XZ 00000001801e0104 f   libvcruntime:undname.obj
 0001:001df26c       ?getThrowTypes@UnDecorator@@CA?AVDName@@XZ 00000001801e026c f   libvcruntime:undname.obj
 0001:001df290       ?getTypeEncoding@UnDecorator@@CAHXZ 00000001801e0290 f i libvcruntime:undname.obj
 0001:001df644       ?getUndecoratedName@UnDecorator@@QEAAPEADPEADH@Z 00000001801e0644 f i libvcruntime:undname.obj
 0001:001df798       ?getUnionObject@UnDecorator@@CA?AVDName@@XZ 00000001801e0798 f   libvcruntime:undname.obj
 0001:001df870       ?getVCallThunkType@UnDecorator@@CA?AVDName@@XZ 00000001801e0870 f i libvcruntime:undname.obj
 0001:001df8e8       ?getValue@UnDecorator@@CA?AV?$optional@_K@std@@XZ 00000001801e08e8 f   libvcruntime:undname.obj
 0001:001df95c       ?getValueObject@UnDecorator@@CA?AVDName@@XZ 00000001801e095c f   libvcruntime:undname.obj
 0001:001dfac0       ?getVdispMapType@UnDecorator@@CA?AVDName@@AEBV2@@Z 00000001801e0ac0 f i libvcruntime:undname.obj
 0001:001dfb3c       ?getVfTableType@UnDecorator@@CA?AVDName@@AEBV2@@Z 00000001801e0b3c f i libvcruntime:undname.obj
 0001:001dfd44       ?getZName@UnDecorator@@CA?AVDName@@_N0@Z 00000001801e0d44 f   libvcruntime:undname.obj
 0001:001e0020       ?length@pDNameNode@@UEBAHXZ 00000001801e1020 f i libvcruntime:undname.obj
 0001:001e0048       ?length@pairNode@@UEBAHXZ  00000001801e1048 f i libvcruntime:undname.obj
 0001:001e0090       ?parseDecoratedName@UnDecorator@@CA?AVDName@@XZ 00000001801e1090 f   libvcruntime:undname.obj
 0001:001e01a8       ?raw_length@pDNameNode@@UEBAHXZ 00000001801e11a8 f i libvcruntime:undname.obj
 0001:001e01ac       ?raw_length@pairNode@@UEBAHXZ 00000001801e11ac f i libvcruntime:undname.obj
 0001:001e01b0       __unDName                  00000001801e11b0 f   libvcruntime:undname.obj
 0001:001e01d8       __unDNameEx                00000001801e11d8 f   libvcruntime:undname.obj
 0001:001e030c       sprintf_s                  00000001801e130c f i libvcruntime:undname.obj
 0001:001e0360       __vcrt_freefls             00000001801e1360 f   libvcruntime:per_thread_data.obj
 0001:001e0380       __vcrt_freeptd             00000001801e1380 f   libvcruntime:per_thread_data.obj
 0001:001e03d0       __vcrt_getptd              00000001801e13d0 f   libvcruntime:per_thread_data.obj
 0001:001e03ec       __vcrt_getptd_noexit       00000001801e13ec f   libvcruntime:per_thread_data.obj
 0001:001e04ac       __vcrt_initialize_ptd      00000001801e14ac f   libvcruntime:per_thread_data.obj
 0001:001e04f4       __vcrt_uninitialize_ptd    00000001801e14f4 f   libvcruntime:per_thread_data.obj
 0001:001e0518       __vcrt_initialize_locks    00000001801e1518 f   libvcruntime:locks.obj
 0001:001e054c       __vcrt_lock                00000001801e154c f   libvcruntime:locks.obj
 0001:001e0568       __vcrt_uninitialize_locks  00000001801e1568 f   libvcruntime:locks.obj
 0001:001e05a0       __vcrt_unlock              00000001801e15a0 f   libvcruntime:locks.obj
 0001:001e05d0       _NLG_Notify                00000001801e15d0 f   libvcruntime:notify.obj
 0001:001e05f0       __NLG_Dispatch2            00000001801e15f0 f   libvcruntime:notify.obj
 0001:001e0600       __NLG_Return2              00000001801e1600 f   libvcruntime:notify.obj
 0001:001e0604       __except_validate_context_record 00000001801e1604 f   libvcruntime:jbcxrval.obj
 0001:001e063c       ??$_CallSETranslator@V__FrameHandler4@@@@YAHPEAUEHExceptionRecord@@PEA_KPEAU_CONTEXT@@PEAU_xDISPATCHER_CONTEXT@@PEAUFuncInfo4@FH4@@K1H@Z 00000001801e163c f i libvcruntime:risctrnsctrl.obj
 0001:001e0690       ?DecompFuncInfo@FH4@@YA_JPEAEAEAUFuncInfo4@1@_KH_N@Z 00000001801e1690 f i libvcruntime:risctrnsctrl.obj
 0001:001e07b4       ?ExecutionInCatch@__FrameHandler4@@SA_NPEAU_xDISPATCHER_CONTEXT@@PEAUFuncInfo4@FH4@@@Z 00000001801e17b4 f   libvcruntime:risctrnsctrl.obj
 0001:001e07bc       ?FrameUnwindToEmptyState@__FrameHandler4@@SAXPEA_KPEAU_xDISPATCHER_CONTEXT@@PEAUFuncInfo4@FH4@@@Z 00000001801e17bc f   libvcruntime:risctrnsctrl.obj
 0001:001e07f0       ?GetEstablisherFrame@__FrameHandler4@@SAPEA_KPEA_KPEAU_xDISPATCHER_CONTEXT@@PEAUFuncInfo4@FH4@@0@Z 00000001801e17f0 f   libvcruntime:risctrnsctrl.obj
 0001:001e0814       ?GetRangeOfTrysToCheck@__FrameHandler4@@SA?AU?$pair@Viterator@TryBlockMap4@FH4@@V123@@std@@AEAVTryBlockMap4@FH4@@HPEAU_xDISPATCHER_CONTEXT@@PEAUFuncInfo4@5@H@Z 00000001801e1814 f   libvcruntime:risctrnsctrl.obj
 0001:001e097c       ?UnwindNestedFrames@__FrameHandler4@@SAXPEA_KPEAUEHExceptionRecord@@PEAU_CONTEXT@@0PEAXPEAUFuncInfo4@FH4@@HHPEAUHandlerType4@5@PEAU_xDISPATCHER_CONTEXT@@E@Z 00000001801e197c f   libvcruntime:risctrnsctrl.obj
 0001:001e0a9c       ?setBuffer@TryBlockMap4@FH4@@QEAAXViterator@12@@Z 00000001801e1a9c f i libvcruntime:risctrnsctrl.obj
 0001:001e0c5c       _CreateFrameInfo           00000001801e1c5c f   libvcruntime:risctrnsctrl.obj
 0001:001e0c98       _FindAndUnlinkFrame        00000001801e1c98 f   libvcruntime:risctrnsctrl.obj
 0001:001e0cec       _GetImageBase              00000001801e1cec f   libvcruntime:risctrnsctrl.obj
 0001:001e0d00       _GetThrowImageBase         00000001801e1d00 f   libvcruntime:risctrnsctrl.obj
 0001:001e0d14       _SetImageBase              00000001801e1d14 f   libvcruntime:risctrnsctrl.obj
 0001:001e0d2c       _SetThrowImageBase         00000001801e1d2c f   libvcruntime:risctrnsctrl.obj
 0001:001e0d44       __CxxFrameHandler4         00000001801e1d44 f   libvcruntime:risctrnsctrl.obj
 0001:001e0f54       __vcrt_FlsAlloc            00000001801e1f54 f   libvcruntime:winapi_downlevel.obj
 0001:001e0f9c       __vcrt_FlsFree             00000001801e1f9c f   libvcruntime:winapi_downlevel.obj
 0001:001e0fe4       __vcrt_FlsGetValue         00000001801e1fe4 f   libvcruntime:winapi_downlevel.obj
 0001:001e102c       __vcrt_FlsSetValue         00000001801e202c f   libvcruntime:winapi_downlevel.obj
 0001:001e1080       __vcrt_InitializeCriticalSectionEx 00000001801e2080 f   libvcruntime:winapi_downlevel.obj
 0001:001e10e4       ?StateFromControlPc@__FrameHandler4@@SAHPEAUFuncInfo4@FH4@@PEAU_xDISPATCHER_CONTEXT@@@Z 00000001801e20e4 f   libvcruntime:ehstate.obj
 0001:001e10ec       ?StateFromIp@__FrameHandler4@@SAHPEAUFuncInfo4@FH4@@PEAU_xDISPATCHER_CONTEXT@@_K@Z 00000001801e20ec f   libvcruntime:ehstate.obj
 0001:001e1d5c       ??$TypeMatchHelper@V__FrameHandler3@@@@YAHPEBU_s_HandlerType@@PEBU_s_CatchableType@@PEBU_s_ThrowInfo@@@Z 00000001801e2d5c f i libvcruntime:frame.obj
 0001:001e1e9c       ??$TypeMatchHelper@V__FrameHandler4@@@@YAHPEAUHandlerType4@FH4@@PEBU_s_CatchableType@@PEBU_s_ThrowInfo@@@Z 00000001801e2e9c f i libvcruntime:frame.obj
 0001:001e1fe0       ??$__InternalCxxFrameHandler@V__FrameHandler4@@@@YA?AW4_EXCEPTION_DISPOSITION@@PEAUEHExceptionRecord@@PEA_KPEAU_CONTEXT@@PEAU_xDISPATCHER_CONTEXT@@PEAUFuncInfo4@FH4@@H1E@Z 00000001801e2fe0 f i libvcruntime:frame.obj
 0001:001e2274       ??0HandlerMap4@FH4@@QEAA@PEBUTryBlockMapEntry4@1@_KH@Z 00000001801e3274 f i libvcruntime:frame.obj
 0001:001e22f0       ??0TryBlockMap4@FH4@@QEAA@PEBUFuncInfo4@1@_K@Z 00000001801e32f0 f i libvcruntime:frame.obj
 0001:001e23c8       ??0bad_exception@std@@QEAA@AEBV01@@Z 00000001801e33c8 f i libvcruntime:frame.obj
 0001:001e2404       ??0bad_exception@std@@QEAA@XZ 00000001801e3404 f i libvcruntime:frame.obj
 0001:001e2424       ??0exception@std@@QEAA@AEBV01@@Z 00000001801e3424 f i libvcruntime:frame.obj
 0001:001e2458       ??1bad_exception@std@@UEAA@XZ 00000001801e3458 f i libvcruntime:frame.obj
 0001:001e246c       ??_Ebad_exception@std@@UEAAPEAXI@Z 00000001801e346c f i libvcruntime:frame.obj
 0001:001e246c       ??_Gbad_exception@std@@UEAAPEAXI@Z 00000001801e346c f i libvcruntime:frame.obj
 0001:001e246c       ??_Eexception@std@@UEAAPEAXI@Z 00000001801e346c f i libvcruntime:frame.obj
 0001:001e246c       ??_Gexception@std@@UEAAPEAXI@Z 00000001801e346c f i libvcruntime:frame.obj
 0001:001e24b0       ?CxxCallCatchBlock@__FrameHandler4@@SAPEAXPEAU_EXCEPTION_RECORD@@@Z 00000001801e34b0 f   libvcruntime:frame.obj
 0001:001e2700       ?DecompHandler@HandlerMap4@FH4@@AEAAXXZ 00000001801e3700 f i libvcruntime:frame.obj
 0001:001e2940       ?FrameUnwindToState@__FrameHandler4@@SAXPEA_KPEAU_xDISPATCHER_CONTEXT@@PEAUFuncInfo4@FH4@@H@Z 00000001801e3940 f   libvcruntime:frame.obj
 0001:001e2da0       ?ReadEntry@UWMap4@FH4@@AEAAXPEAPEAE@Z 00000001801e3da0 f i libvcruntime:frame.obj
 0001:001e2e40       ?_CallMemberFunction1@@YAXQEAX00@Z 00000001801e3e40 f i libvcruntime:frame.obj
 0001:001e2e4c       ?_CallMemberFunction2@@YAXQEAX00H@Z 00000001801e3e4c f i libvcruntime:frame.obj
 0001:001e2e5c       ?getStartStop@UWMap4@FH4@@QEAAXHHAEAViterator@12@0@Z 00000001801e3e5c f i libvcruntime:frame.obj
 0001:001e2f2c       ?getStateFromIterators@UWMap4@FH4@@SAHAEBViterator@12@H0H0@Z 00000001801e3f2c f i libvcruntime:frame.obj
 0001:001e2ff4       ?what@exception@std@@UEBAPEBDXZ 00000001801e3ff4 f i libvcruntime:frame.obj
 0001:001e3020       _CallSettingFrame          00000001801e4020 f   libvcruntime:handlers.obj
 0001:001e3070       _CallSettingFrame_LookupContinuationIndex 00000001801e4070 f   libvcruntime:handlers.obj
 0001:001e30a0       _CallSettingFrame_NotifyContinuationAddr 00000001801e40a0 f   libvcruntime:handlers.obj
 0001:001e30d0       _CallSettingFrameEncoded   00000001801e40d0 f   libvcruntime:handlers.obj
 0001:001e3118       __std_exception_copy       00000001801e4118 f   libvcruntime:std_exception.obj
 0001:001e31a8       __std_exception_destroy    00000001801e41a8 f   libvcruntime:std_exception.obj
 0001:001e31d0       _CxxThrowException         00000001801e41d0 f   libvcruntime:throw.obj
 0001:001e3270       cosf                       00000001801e4270 f   libucrt:cosf.obj
 0001:001e3770       sinf                       00000001801e4770 f   libucrt:sinf.obj
 0001:001e3e70       tanf                       00000001801e4e70 f   libucrt:tanf.obj
 0001:001e44e4       __acrt_initialize_stdio    00000001801e54e4 f   libucrt:_file.obj
 0001:001e4604       __acrt_iob_func            00000001801e5604 f   libucrt:_file.obj
 0001:001e4618       __acrt_uninitialize_stdio  00000001801e5618 f   libucrt:_file.obj
 0001:001e4674       _lock_file                 00000001801e5674 f   libucrt:_file.obj
 0001:001e4680       _unlock_file               00000001801e5680 f   libucrt:_file.obj
 0001:001e4898       ??$ensure_buffer_is_big_enough@D@formatting_buffer@__crt_stdio_output@@QEAA_N_K@Z 00000001801e5898 f i libucrt:output.obj
 0001:001e4940       ??$type_case_integer_parse_into_buffer@I@?$output_processor@DV?$string_output_adapter@D@__crt_stdio_output@@V?$format_validation_base@DV?$string_output_adapter@D@__crt_stdio_output@@@2@@__crt_stdio_output@@AEAAXII_N@Z 00000001801e5940 f i libucrt:output.obj
 0001:001e4940       ??$type_case_integer_parse_into_buffer@I@?$output_processor@DV?$stream_output_adapter@D@__crt_stdio_output@@V?$standard_base@DV?$stream_output_adapter@D@__crt_stdio_output@@@2@@__crt_stdio_output@@AEAAXII_N@Z 00000001801e5940 f i libucrt:output.obj
 0001:001e49c8       ??$type_case_integer_parse_into_buffer@_K@?$output_processor@DV?$string_output_adapter@D@__crt_stdio_output@@V?$format_validation_base@DV?$string_output_adapter@D@__crt_stdio_output@@@2@@__crt_stdio_output@@AEAAX_KI_N@Z 00000001801e59c8 f i libucrt:output.obj
 0001:001e49c8       ??$type_case_integer_parse_into_buffer@_K@?$output_processor@DV?$stream_output_adapter@D@__crt_stdio_output@@V?$standard_base@DV?$stream_output_adapter@D@__crt_stdio_output@@@2@@__crt_stdio_output@@AEAAX_KI_N@Z 00000001801e59c8 f i libucrt:output.obj
 0001:001e4a58       ??$write_multiple_characters@V?$stream_output_adapter@D@__crt_stdio_output@@D@__crt_stdio_output@@YAXAEBV?$stream_output_adapter@D@0@DHQEAH@Z 00000001801e5a58 f i libucrt:output.obj
 0001:001e4ae4       ??$write_multiple_characters@V?$string_output_adapter@D@__crt_stdio_output@@D@__crt_stdio_output@@YAXAEBV?$string_output_adapter@D@0@DHQEAH@Z 00000001801e5ae4 f i libucrt:output.obj
 0001:001e4b5c       ??0_LocaleUpdate@@QEAA@QEAU__crt_locale_pointers@@@Z 00000001801e5b5c f i libucrt:output.obj
 0001:001e4d28       ?crop_zeroes@__crt_stdio_output@@YAXPEADQEAU__crt_locale_pointers@@@Z 00000001801e5d28 f i libucrt:output.obj
 0001:001e4d94       ?parse_int_from_format_string@?$output_processor@DV?$stream_output_adapter@D@__crt_stdio_output@@V?$standard_base@DV?$stream_output_adapter@D@__crt_stdio_output@@@2@@__crt_stdio_output@@AEAA_NQEAH@Z 00000001801e5d94 f i libucrt:output.obj
 0001:001e4d94       ?parse_int_from_format_string@?$output_processor@DV?$string_output_adapter@D@__crt_stdio_output@@V?$format_validation_base@DV?$string_output_adapter@D@__crt_stdio_output@@@2@@__crt_stdio_output@@AEAA_NQEAH@Z 00000001801e5d94 f i libucrt:output.obj
 0001:001e4e38       ?process@?$output_processor@DV?$stream_output_adapter@D@__crt_stdio_output@@V?$standard_base@DV?$stream_output_adapter@D@__crt_stdio_output@@@2@@__crt_stdio_output@@QEAAHXZ 00000001801e5e38 f i libucrt:output.obj
 0001:001e5050       ?process@?$output_processor@DV?$string_output_adapter@D@__crt_stdio_output@@V?$format_validation_base@DV?$string_output_adapter@D@__crt_stdio_output@@@2@@__crt_stdio_output@@QEAAHXZ 00000001801e6050 f i libucrt:output.obj
 0001:001e5268       ?state_case_normal@?$output_processor@DV?$stream_output_adapter@D@__crt_stdio_output@@V?$standard_base@DV?$stream_output_adapter@D@__crt_stdio_output@@@2@@__crt_stdio_output@@AEAA_NXZ 00000001801e6268 f i libucrt:output.obj
 0001:001e52d8       ?state_case_normal@?$output_processor@DV?$string_output_adapter@D@__crt_stdio_output@@V?$format_validation_base@DV?$string_output_adapter@D@__crt_stdio_output@@@2@@__crt_stdio_output@@AEAA_NXZ 00000001801e62d8 f i libucrt:output.obj
 0001:001e534c       ?state_case_normal_tchar@?$output_processor@DV?$stream_output_adapter@D@__crt_stdio_output@@V?$standard_base@DV?$stream_output_adapter@D@__crt_stdio_output@@@2@@__crt_stdio_output@@AEAA_ND@Z 00000001801e634c f i libucrt:output.obj
 0001:001e53f0       ?state_case_normal_tchar@?$output_processor@DV?$string_output_adapter@D@__crt_stdio_output@@V?$format_validation_base@DV?$string_output_adapter@D@__crt_stdio_output@@@2@@__crt_stdio_output@@AEAA_ND@Z 00000001801e63f0 f i libucrt:output.obj
 0001:001e5498       ?state_case_size@?$output_processor@DV?$stream_output_adapter@D@__crt_stdio_output@@V?$standard_base@DV?$stream_output_adapter@D@__crt_stdio_output@@@2@@__crt_stdio_output@@AEAA_NXZ 00000001801e6498 f i libucrt:output.obj
 0001:001e560c       ?state_case_size@?$output_processor@DV?$string_output_adapter@D@__crt_stdio_output@@V?$format_validation_base@DV?$string_output_adapter@D@__crt_stdio_output@@@2@@__crt_stdio_output@@AEAA_NXZ 00000001801e660c f i libucrt:output.obj
 0001:001e5780       ?state_case_type@?$output_processor@DV?$stream_output_adapter@D@__crt_stdio_output@@V?$standard_base@DV?$stream_output_adapter@D@__crt_stdio_output@@@2@@__crt_stdio_output@@AEAA_NXZ 00000001801e6780 f i libucrt:output.obj
 0001:001e5a04       ?state_case_type@?$output_processor@DV?$string_output_adapter@D@__crt_stdio_output@@V?$format_validation_base@DV?$string_output_adapter@D@__crt_stdio_output@@@2@@__crt_stdio_output@@AEAA_NXZ 00000001801e6a04 f i libucrt:output.obj
 0001:001e5c6c       ?type_case_Z@?$output_processor@DV?$string_output_adapter@D@__crt_stdio_output@@V?$format_validation_base@DV?$string_output_adapter@D@__crt_stdio_output@@@2@@__crt_stdio_output@@AEAA_NXZ 00000001801e6c6c f i libucrt:output.obj
 0001:001e5c6c       ?type_case_Z@?$output_processor@DV?$stream_output_adapter@D@__crt_stdio_output@@V?$standard_base@DV?$stream_output_adapter@D@__crt_stdio_output@@@2@@__crt_stdio_output@@AEAA_NXZ 00000001801e6c6c f i libucrt:output.obj
 0001:001e5ce0       ?type_case_a@?$output_processor@DV?$stream_output_adapter@D@__crt_stdio_output@@V?$standard_base@DV?$stream_output_adapter@D@__crt_stdio_output@@@2@@__crt_stdio_output@@AEAA_NXZ 00000001801e6ce0 f i libucrt:output.obj
 0001:001e5ce0       ?type_case_a@?$output_processor@DV?$string_output_adapter@D@__crt_stdio_output@@V?$format_validation_base@DV?$string_output_adapter@D@__crt_stdio_output@@@2@@__crt_stdio_output@@AEAA_NXZ 00000001801e6ce0 f i libucrt:output.obj
 0001:001e5ef8       ?type_case_c_tchar@?$output_processor@DV?$stream_output_adapter@D@__crt_stdio_output@@V?$standard_base@DV?$stream_output_adapter@D@__crt_stdio_output@@@2@@__crt_stdio_output@@AEAA_ND@Z 00000001801e6ef8 f i libucrt:output.obj
 0001:001e5ef8       ?type_case_c_tchar@?$output_processor@DV?$string_output_adapter@D@__crt_stdio_output@@V?$format_validation_base@DV?$string_output_adapter@D@__crt_stdio_output@@@2@@__crt_stdio_output@@AEAA_ND@Z 00000001801e6ef8 f i libucrt:output.obj
 0001:001e5fb4       ?type_case_integer@?$output_processor@DV?$stream_output_adapter@D@__crt_stdio_output@@V?$standard_base@DV?$stream_output_adapter@D@__crt_stdio_output@@@2@@__crt_stdio_output@@AEAA_NI_N@Z 00000001801e6fb4 f i libucrt:output.obj
 0001:001e5fb4       ?type_case_integer@?$output_processor@DV?$string_output_adapter@D@__crt_stdio_output@@V?$format_validation_base@DV?$string_output_adapter@D@__crt_stdio_output@@@2@@__crt_stdio_output@@AEAA_NI_N@Z 00000001801e6fb4 f i libucrt:output.obj
 0001:001e617c       ?type_case_n@?$output_processor@DV?$string_output_adapter@D@__crt_stdio_output@@V?$format_validation_base@DV?$string_output_adapter@D@__crt_stdio_output@@@2@@__crt_stdio_output@@AEAA_NXZ 00000001801e717c f i libucrt:output.obj
 0001:001e617c       ?type_case_n@?$output_processor@DV?$stream_output_adapter@D@__crt_stdio_output@@V?$standard_base@DV?$stream_output_adapter@D@__crt_stdio_output@@@2@@__crt_stdio_output@@AEAA_NXZ 00000001801e717c f i libucrt:output.obj
 0001:001e6258       ?type_case_s@?$output_processor@DV?$string_output_adapter@D@__crt_stdio_output@@V?$format_validation_base@DV?$string_output_adapter@D@__crt_stdio_output@@@2@@__crt_stdio_output@@AEAA_NXZ 00000001801e7258 f i libucrt:output.obj
 0001:001e6258       ?type_case_s@?$output_processor@DV?$stream_output_adapter@D@__crt_stdio_output@@V?$standard_base@DV?$stream_output_adapter@D@__crt_stdio_output@@@2@@__crt_stdio_output@@AEAA_NXZ 00000001801e7258 f i libucrt:output.obj
 0001:001e62f0       ?validate_stream_is_ansi_if_required@?$__acrt_stdio_char_traits@D@@SA_NQEAU_iobuf@@@Z 00000001801e72f0 f i libucrt:output.obj
 0001:001e638c       ?write_stored_string_tchar@?$output_processor@DV?$stream_output_adapter@D@__crt_stdio_output@@V?$standard_base@DV?$stream_output_adapter@D@__crt_stdio_output@@@2@@__crt_stdio_output@@AEAA_ND@Z 00000001801e738c f i libucrt:output.obj
 0001:001e64b0       ?write_stored_string_tchar@?$output_processor@DV?$string_output_adapter@D@__crt_stdio_output@@V?$format_validation_base@DV?$string_output_adapter@D@__crt_stdio_output@@@2@@__crt_stdio_output@@AEAA_ND@Z 00000001801e74b0 f i libucrt:output.obj
 0001:001e6588       ?write_string@?$string_output_adapter@D@__crt_stdio_output@@QEBAXQEBDHQEAHAEAV__crt_deferred_errno_cache@@@Z 00000001801e7588 f i libucrt:output.obj
 0001:001e662c       ?write_string_impl@?$output_adapter_common@DV?$stream_output_adapter@D@__crt_stdio_output@@@__crt_stdio_output@@IEBAXQEBDHQEAHAEAV__crt_deferred_errno_cache@@@Z 00000001801e762c f i libucrt:output.obj
 0001:001e6724       __stdio_common_vfprintf    00000001801e7724 f   libucrt:output.obj
 0001:001e67b0       __stdio_common_vsprintf_s  00000001801e77b0 f   libucrt:output.obj
 0001:001e6814       _fpclass                   00000001801e7814 f   libucrt:ieeemisc.obj
 0001:001e689c       acosf                      00000001801e789c f   libucrt:acosf.obj
 0001:001e6af0       powf                       00000001801e7af0 f   libucrt:powf.obj
 0001:001e79b8       atan2f                     00000001801e89b8 f   libucrt:atan2f.obj
 0001:001e7dcc       free                       00000001801e8dcc f   libucrt:free.obj
 0001:001e7de0       _seh_filter_dll            00000001801e8de0 f   libucrt:exception_filter.obj
 0001:001e7df4       _seh_filter_exe            00000001801e8df4 f   libucrt:exception_filter.obj
 0001:001e81e4       __acrt_initialize_thread_local_exit_callback 00000001801e91e4 f   libucrt:exit.obj
 0001:001e81ec       _cexit                     00000001801e91ec f   libucrt:exit.obj
 0001:001e81fc       _exit                      00000001801e91fc f   libucrt:exit.obj
 0001:001e8208       _is_c_termination_complete 00000001801e9208 f   libucrt:exit.obj
 0001:001e83d4       __acrt_allocate_buffer_for_argv 00000001801e93d4 f   libucrt:argv_parsing.obj
 0001:001e8434       _configure_narrow_argv     00000001801e9434 f   libucrt:argv_parsing.obj
 0001:001e87ac       __dcrt_uninitialize_environments_nolock 00000001801e97ac f   libucrt:environment_initialization.obj
 0001:001e87e4       _initialize_narrow_environment 00000001801e97e4 f   libucrt:environment_initialization.obj
 0001:001e8b2c       _crt_atexit                00000001801e9b2c f   libucrt:onexit.obj
 0001:001e8b3c       _execute_onexit_table      00000001801e9b3c f   libucrt:onexit.obj
 0001:001e8b78       _initialize_onexit_table   00000001801e9b78 f   libucrt:onexit.obj
 0001:001e8ba0       _register_onexit_function  00000001801e9ba0 f   libucrt:onexit.obj
 0001:001e8c20       __acrt_uninitialize_command_line 00000001801e9c20 f   libucrt:argv_data.obj
 0001:001e8d18       __acrt_initialize          00000001801e9d18 f   libucrt:initialization.obj
 0001:001e8d2c       __acrt_thread_attach       00000001801e9d2c f   libucrt:initialization.obj
 0001:001e8d40       __acrt_thread_detach       00000001801e9d40 f   libucrt:initialization.obj
 0001:001e8d50       __acrt_uninitialize        00000001801e9d50 f   libucrt:initialization.obj
 0001:001e8d88       __acrt_uninitialize_critical 00000001801e9d88 f   libucrt:initialization.obj
 0001:001e8d98       _initterm                  00000001801e9d98 f   libucrt:initterm.obj
 0001:001e8dfc       _initterm_e                00000001801e9dfc f   libucrt:initterm.obj
 0001:001e8e3c       terminate                  00000001801e9e3c f   libucrt:terminate.obj
 0001:001e8e5c       abort                      00000001801e9e5c f   libucrt:abort.obj
 0001:001e8eb4       malloc                     00000001801e9eb4 f   libucrt:malloc.obj
 0001:001e8ebc       strcpy_s                   00000001801e9ebc f   libucrt:strcpy_s.obj
 0001:001e8f1c       ??$parse_integer@KV?$c_string_character_source@D@__crt_strtox@@@__crt_strtox@@YAKQEAU__crt_locale_pointers@@V?$c_string_character_source@D@0@H_N@Z 00000001801e9f1c f i libucrt:atox.obj
 0001:001e9224       _ischartype_l              00000001801ea224 f i libucrt:atox.obj
 0001:001e929c       atol                       00000001801ea29c f   libucrt:atox.obj
 0001:001e92e0       strncmp                    00000001801ea2e0 f   libucrt:strncmp.obj
 0001:001e9360       calloc                     00000001801ea360 f   libucrt:calloc.obj
 0001:001e9368       wcsncmp                    00000001801ea368 f   libucrt:wcsncmp.obj
 0001:001e93a0       __remainder_piby2d2f_forAsm 00000001801ea3a0 f   libucrt:remainder_piby2f_forasm.obj
 0001:001e94f0       __remainder_piby2_fma3     00000001801ea4f0 f   libucrt:remainder_piby2_forfma3.obj
 0001:001e96e0       __remainder_piby2_fma3_bdl 00000001801ea6e0 f   libucrt:remainder_piby2_forfma3.obj
 0001:001e9758       _cosf_special              00000001801ea758 f   libucrt:sincos_special.obj
 0001:001e97f8       _sinf_special              00000001801ea7f8 f   libucrt:sincos_special.obj
 0001:001e980c       _tanf_special              00000001801ea80c f   libucrt:sincos_special.obj
 0001:001e9820       _clrfp                     00000001801ea820 f   libucrt:fpctrl.obj
 0001:001e9840       _ctrlfp                    00000001801ea840 f   libucrt:fpctrl.obj
 0001:001e98bc       _set_statfp                00000001801ea8bc f   libucrt:fpctrl.obj
 0001:001e98dc       _statfp                    00000001801ea8dc f   libucrt:fpctrl.obj
 0001:001e98f0       __acrt_initialize_fma3     00000001801ea8f0 f   libucrt:fma3_available.obj
 0001:001e9960       __remainder_piby2d2f_forC  00000001801ea960 f   libucrt:remainder_piby2f_forc.obj
 0001:001e9aec       __acrt_call_reportfault    00000001801eaaec f   libucrt:invalid_parameter.obj
 0001:001e9c48       __acrt_initialize_invalid_parameter_handler 00000001801eac48 f   libucrt:invalid_parameter.obj
 0001:001e9c50       _invalid_parameter         00000001801eac50 f   libucrt:invalid_parameter.obj
 0001:001e9d00       _invalid_parameter_noinfo  00000001801ead00 f   libucrt:invalid_parameter.obj
 0001:001e9d20       _invoke_watson             00000001801ead20 f   libucrt:invalid_parameter.obj
 0001:001e9d68       __acrt_errno_from_os_error 00000001801ead68 f   libucrt:errno.obj
 0001:001e9db0       __acrt_errno_map_os_error  00000001801eadb0 f   libucrt:errno.obj
 0001:001e9e00       __doserrno                 00000001801eae00 f   libucrt:errno.obj
 0001:001e9e20       _errno                     00000001801eae20 f   libucrt:errno.obj
 0001:001e9e40       _calloc_base               00000001801eae40 f   libucrt:calloc_base.obj
 0001:001e9eb8       _free_base                 00000001801eaeb8 f   libucrt:free_base.obj
 0001:001ea0d0       __acrt_AppPolicyGetProcessTerminationMethodInternal 00000001801eb0d0 f   libucrt:winapi_thunks.obj
 0001:001ea120       __acrt_AreFileApisANSI     00000001801eb120 f   libucrt:winapi_thunks.obj
 0001:001ea15c       __acrt_FlsAlloc            00000001801eb15c f   libucrt:winapi_thunks.obj
 0001:001ea1a4       __acrt_FlsFree             00000001801eb1a4 f   libucrt:winapi_thunks.obj
 0001:001ea1ec       __acrt_FlsGetValue         00000001801eb1ec f   libucrt:winapi_thunks.obj
 0001:001ea234       __acrt_FlsSetValue         00000001801eb234 f   libucrt:winapi_thunks.obj
 0001:001ea288       __acrt_InitializeCriticalSectionEx 00000001801eb288 f   libucrt:winapi_thunks.obj
 0001:001ea2ec       __acrt_LCMapStringEx       00000001801eb2ec f   libucrt:winapi_thunks.obj
 0001:001ea3c8       __acrt_LocaleNameToLCID    00000001801eb3c8 f   libucrt:winapi_thunks.obj
 0001:001ea418       __acrt_initialize_winapi_thunks 00000001801eb418 f   libucrt:winapi_thunks.obj
 0001:001ea44c       __acrt_uninitialize_winapi_thunks 00000001801eb44c f   libucrt:winapi_thunks.obj
 0001:001ea490       _fcloseall                 00000001801eb490 f   libucrt:closeall.obj
 0001:001ea720       __acrt_stdio_flush_nolock  00000001801eb720 f   libucrt:fflush.obj
 0001:001ea79c       _fflush_nolock             00000001801eb79c f   libucrt:fflush.obj
 0001:001ea7e8       _flushall                  00000001801eb7e8 f   libucrt:fflush.obj
 0001:001ea7f0       __acrt_stdio_free_buffer_nolock 00000001801eb7f0 f   libucrt:_freebuf.obj
 0001:001eaa2c       __acrt_initialize_lowio    00000001801eba2c f   libucrt:ioinit.obj
 0001:001eaa68       __acrt_uninitialize_lowio  00000001801eba68 f   libucrt:ioinit.obj
 0001:001eaaa8       _malloc_base               00000001801ebaa8 f   libucrt:malloc_base.obj
 0001:001eab08       strtol                     00000001801ebb08 f   libucrt:strtox.obj
 0001:001eab34       _mbtowc_l                  00000001801ebb34 f   libucrt:mbtowc.obj
 0001:001eacb4       mbtowc                     00000001801ebcb4 f   libucrt:mbtowc.obj
 0001:001eacbc       _wctomb_s_l                00000001801ebcbc f   libucrt:wctomb.obj
 0001:001eae58       wctomb_s                   00000001801ebe58 f   libucrt:wctomb.obj
 0001:001eae6c       strnlen                    00000001801ebe6c f   libucrt:strnlen.obj
 0001:001eafbc       wcsnlen                    00000001801ebfbc f   libucrt:strnlen.obj
 0001:001eb50c       __acrt_freeptd             00000001801ec50c f   libucrt:per_thread_data.obj
 0001:001eb550       __acrt_getptd              00000001801ec550 f   libucrt:per_thread_data.obj
 0001:001eb624       __acrt_getptd_head         00000001801ec624 f   libucrt:per_thread_data.obj
 0001:001eb6cc       __acrt_getptd_noexit       00000001801ec6cc f   libucrt:per_thread_data.obj
 0001:001eb798       __acrt_initialize_ptd      00000001801ec798 f   libucrt:per_thread_data.obj
 0001:001eb7d4       __acrt_uninitialize_ptd    00000001801ec7d4 f   libucrt:per_thread_data.obj
 0001:001eb7f8       __acrt_update_locale_info  00000001801ec7f8 f   libucrt:locale_update.obj
 0001:001eb82c       __acrt_update_multibyte_info 00000001801ec82c f   libucrt:locale_update.obj
 0001:001ec0f8       __acrt_fp_format           00000001801ed0f8 f   libucrt:cvt.obj
 0001:001ec3fc       _fileno                    00000001801ed3fc f   libucrt:fileno.obj
 0001:001ec424       _fputc_nolock              00000001801ed424 f   libucrt:fputc.obj
 0001:001ec43c       _get_printf_count_output   00000001801ed43c f   libucrt:printf_count_output.obj
 0001:001ec454       __acrt_stdio_begin_temporary_buffering_nolock 00000001801ed454 f   libucrt:_sftbuf.obj
 0001:001ec524       __acrt_stdio_end_temporary_buffering_nolock 00000001801ed524 f   libucrt:_sftbuf.obj
 0001:001ec5d0       __acrt_set_locale_changed  00000001801ed5d0 f   libucrt:wsetlocale.obj
 0001:001ec5dc       __acrt_uninitialize_locale 00000001801ed5dc f   libucrt:wsetlocale.obj
 0001:001ec730       _handle_error              00000001801ed730 f   libucrt:libm_error.obj
 0001:001ec858       _handle_errorf             00000001801ed858 f   libucrt:libm_error.obj
 0001:001ec98c       _handle_nan                00000001801ed98c f   libucrt:libm_error.obj
 0001:001ec9a8       _handle_nanf               00000001801ed9a8 f   libucrt:libm_error.obj
 0001:001ec9c0       _powf_special              00000001801ed9c0 f   libucrt:pow_special.obj
 0001:001ecb4c       __acrt_initialize_locks    00000001801edb4c f   libucrt:locks.obj
 0001:001ecb94       __acrt_lock                00000001801edb94 f   libucrt:locks.obj
 0001:001ecbb0       __acrt_uninitialize_locks  00000001801edbb0 f   libucrt:locks.obj
 0001:001ecbe8       __acrt_unlock              00000001801edbe8 f   libucrt:locks.obj
 0001:001ecc04       __acrt_get_process_end_policy 00000001801edc04 f   libucrt:win_policies.obj
 0001:001ecc54       ??$__acrt_mbs_to_wcs_cp@U__crt_win32_buffer_internal_dynamic_resizing@@@@YAHQEBDAEAV?$__crt_win32_buffer@_WU__crt_win32_buffer_internal_dynamic_resizing@@@@I@Z 00000001801edc54 f i libucrt:argv_wildcards.obj
 0001:001ecdcc       ??$__acrt_wcs_to_mbs_cp@U__crt_win32_buffer_internal_dynamic_resizing@@@@YAHQEB_WAEAV?$__crt_win32_buffer@DU__crt_win32_buffer_internal_dynamic_resizing@@@@I@Z 00000001801eddcc f i libucrt:argv_wildcards.obj
 0001:001ed5fc       __acrt_expand_narrow_argv_wildcards 00000001801ee5fc f   libucrt:argv_wildcards.obj
 0001:001ed604       ??$__acrt_wcs_to_mbs_cp@U__crt_win32_buffer_no_resizing@@@@YAHQEB_WAEAV?$__crt_win32_buffer@DU__crt_win32_buffer_no_resizing@@@@I@Z 00000001801ee604 f i libucrt:getmodulefilenamea.obj
 0001:001ed718       __acrt_GetModuleFileNameA  00000001801ee718 f   libucrt:getmodulefilenamea.obj
 0001:001edf64       __acrt_initialize_multibyte 00000001801eef64 f   libucrt:mbctype.obj
 0001:001edfc4       __acrt_update_thread_multibyte_data 00000001801eefc4 f   libucrt:mbctype.obj
 0001:001edfe0       _setmbcp_nolock            00000001801eefe0 f   libucrt:mbctype.obj
 0001:001ee314       _ismbblead                 00000001801ef314 f   libucrt:ismbbyte.obj
 0001:001ee328       __acrt_initialize_command_line 00000001801ef328 f   libucrt:argv_data.obj
 0001:001ee350       __acrt_MultiByteToWideChar 00000001801ef350 f   libucrt:multibytetowidechar.obj
 0001:001ee3ac       __acrt_WideCharToMultiByte 00000001801ef3ac f   libucrt:widechartomultibyte.obj
 0001:001ee444       __dcrt_get_narrow_environment_from_os 00000001801ef444 f   libucrt:get_environment_from_os.obj
 0001:001ee548       _recalloc_base             00000001801ef548 f   libucrt:recalloc.obj
 0001:001ee5e0       __acrt_initialize_heap     00000001801ef5e0 f   libucrt:heap_handle.obj
 0001:001ee5fc       __acrt_uninitialize_heap   00000001801ef5fc f   libucrt:heap_handle.obj
 0001:001ee608       __acrt_execute_initializers 00000001801ef608 f   libucrt:shared_initialization.obj
 0001:001ee688       __acrt_execute_uninitializers 00000001801ef688 f   libucrt:shared_initialization.obj
 0001:001ee6c4       __acrt_initialize_new_handler 00000001801ef6c4 f   libucrt:new_handler.obj
 0001:001ee6cc       _callnewh                  00000001801ef6cc f   libucrt:new_handler.obj
 0001:001ee6fc       _query_new_handler         00000001801ef6fc f   libucrt:new_handler.obj
 0001:001ee778       __acrt_get_sigabrt_handler 00000001801ef778 f   libucrt:signal.obj
 0001:001ee7a8       __acrt_initialize_signal_handlers 00000001801ef7a8 f   libucrt:signal.obj
 0001:001ee7c8       raise                      00000001801ef7c8 f   libucrt:signal.obj
 0001:001eea34       __acrt_has_user_matherr    00000001801efa34 f   libucrt:matherr.obj
 0001:001eea54       __acrt_initialize_user_matherr 00000001801efa54 f   libucrt:matherr.obj
 0001:001eea5c       __acrt_invoke_user_matherr 00000001801efa5c f   libucrt:matherr.obj
 0001:001eea8c       __pctype_func              00000001801efa8c f   libucrt:ctype.obj
 0001:001eeabc       _isctype_l                 00000001801efabc f   libucrt:isctype.obj
 0001:001eebe0       _get_fpsr                  00000001801efbe0 f   libucrt:fpsr.obj
 0001:001eebf0       _set_fpsr                  00000001801efbf0 f   libucrt:fpsr.obj
 0001:001eebfa       _fclrf                     00000001801efbfa f   libucrt:fpsr.obj
 0001:001eec0e       _frnd                      00000001801efc0e f   libucrt:fpsr.obj
 0001:001eec30       _query_new_mode            00000001801efc30 f   libucrt:new_mode.obj
 0001:001eec38       __acrt_DownlevelLocaleNameToLCID 00000001801efc38 f   libucrt:lcidtoname_downlevel.obj
 0001:001eece8       _fclose_nolock             00000001801efce8 f   libucrt:fclose.obj
 0001:001eed6c       fclose                     00000001801efd6c f   libucrt:fclose.obj
 0001:001eee5c       _commit                    00000001801efe5c f   libucrt:commit.obj
 0001:001ef750       _write                     00000001801f0750 f   libucrt:write.obj
 0001:001ef83c       _write_nolock              00000001801f083c f   libucrt:write.obj
 0001:001efb18       __acrt_lowio_create_handle_array 00000001801f0b18 f   libucrt:osfinfo.obj
 0001:001efbc0       __acrt_lowio_destroy_handle_array 00000001801f0bc0 f   libucrt:osfinfo.obj
 0001:001efc10       __acrt_lowio_ensure_fh_exists 00000001801f0c10 f   libucrt:osfinfo.obj
 0001:001efcb8       __acrt_lowio_lock_fh       00000001801f0cb8 f   libucrt:osfinfo.obj
 0001:001efce0       __acrt_lowio_unlock_fh     00000001801f0ce0 f   libucrt:osfinfo.obj
 0001:001efd08       _free_osfhnd               00000001801f0d08 f   libucrt:osfinfo.obj
 0001:001efdc4       _get_osfhandle             00000001801f0dc4 f   libucrt:osfinfo.obj
 0001:001efe3c       _isleadbyte_l              00000001801f0e3c f i libucrt:_wctype.obj
 0001:001efe88       ?__mbrtowc_utf8@__crt_mbstring@@YA_KPEA_WPEBD_KPEAU_Mbstatet@@@Z 00000001801f0e88 f   libucrt:mbrtowc.obj
 0001:001efec4       ?__mbsrtowcs_utf8@__crt_mbstring@@YA_KPEA_WPEAPEBD_KPEAU_Mbstatet@@@Z 00000001801f0ec4 f   libucrt:mbrtowc.obj
 0001:001f003c       ?__c32rtomb_utf8@__crt_mbstring@@YA_KPEAD_UPEAU_Mbstatet@@@Z 00000001801f103c f   libucrt:c32rtomb.obj
 0001:001f00f0       __acrt_add_locale_ref      00000001801f10f0 f   libucrt:locale_refcounting.obj
 0001:001f017c       __acrt_free_locale         00000001801f117c f   libucrt:locale_refcounting.obj
 0001:001f02f4       __acrt_locale_add_lc_time_reference 00000001801f12f4 f   libucrt:locale_refcounting.obj
 0001:001f031c       __acrt_locale_free_lc_time_if_unreferenced 00000001801f131c f   libucrt:locale_refcounting.obj
 0001:001f0354       __acrt_locale_release_lc_time_reference 00000001801f1354 f   libucrt:locale_refcounting.obj
 0001:001f037c       __acrt_release_locale_ref  00000001801f137c f   libucrt:locale_refcounting.obj
 0001:001f0424       __acrt_update_thread_locale_data 00000001801f1424 f   libucrt:locale_refcounting.obj
 0001:001f0490       _updatetlocinfoEx_nolock   00000001801f1490 f   libucrt:locale_refcounting.obj
 0001:001f04f8       __acrt_fp_strflt_to_string 00000001801f14f8 f   libucrt:_fptostr.obj
 0001:001f05e0       ?divide@__crt_strtox@@YA_KAEAUbig_integer@1@AEBU21@@Z 00000001801f15e0 f i libucrt:cfout.obj
 0001:001f0a0c       __acrt_fltout              00000001801f1a0c f   libucrt:cfout.obj
 0001:001f1e28       __acrt_stdio_flush_and_write_narrow_nolock 00000001801f2e28 f   libucrt:_flsbuf.obj
 0001:001f1f14       _isatty                    00000001801f2f14 f   libucrt:isatty.obj
 0001:001f1f74       __acrt_locale_free_monetary 00000001801f2f74 f   libucrt:initmon.obj
 0001:001f2080       __acrt_locale_free_numeric 00000001801f3080 f   libucrt:initnum.obj
 0001:001f2144       __acrt_locale_free_time    00000001801f3144 f   libucrt:inittime.obj
 0001:001f224c       __acrt_GetStringTypeA      00000001801f324c f   libucrt:getstringtypea.obj
 0001:001f23dc       _raise_exc                 00000001801f33dc f   libucrt:fpexcept.obj
 0001:001f2404       _raise_exc_ex              00000001801f3404 f   libucrt:fpexcept.obj
 0001:001f2714       _raise_excf                00000001801f3714 f   libucrt:fpexcept.obj
 0001:001f2740       _set_errno_from_matherr    00000001801f3740 f   libucrt:fpexcept.obj
 0001:001f2770       qsort                      00000001801f3770 f   libucrt:qsort.obj
 0001:001f2b20       strncpy_s                  00000001801f3b20 f   libucrt:strncpy_s.obj
 0001:001f2ca0       strpbrk                    00000001801f3ca0 f   libucrt:strpbrk.obj
 0001:001f3080       _mbsdec                    00000001801f4080 f   libucrt:mbsdec.obj
 0001:001f3088       _mbsdec_l                  00000001801f4088 f   libucrt:mbsdec.obj
 0001:001f3434       __acrt_LCMapStringA        00000001801f4434 f   libucrt:lcmapstringa.obj
 0001:001f34e4       _msize_base                00000001801f44e4 f   libucrt:msize.obj
 0001:001f3520       _realloc_base              00000001801f4520 f   libucrt:realloc_base.obj
 0001:001f359c       __ascii_wcsnicmp           00000001801f459c f   libucrt:wcsnicmp.obj
 0001:001f365c       _close                     00000001801f465c f   libucrt:close.obj
 0001:001f3700       _close_nolock              00000001801f4700 f   libucrt:close.obj
 0001:001f37c0       ?__acrt_stdio_free_stream@@YAXV__crt_stdio_stream@@@Z 00000001801f47c0 f   libucrt:stream.obj
 0001:001f3968       _lseeki64                  00000001801f4968 f   libucrt:lseek.obj
 0001:001f3970       _lseeki64_nolock           00000001801f4970 f   libucrt:lseek.obj
 0001:001f3978       _putwch_nolock             00000001801f4978 f   libucrt:putwch.obj
 0001:001f39b4       _query_app_type            00000001801f49b4 f   libucrt:report_runtime_error.obj
 0001:001f39bc       ?__mbrtoc32_utf8@__crt_mbstring@@YA_KPEA_UPEBD_KPEAU_Mbstatet@@@Z 00000001801f49bc f   libucrt:mbrtoc32.obj
 0001:001f3b98       fegetenv                   00000001801f4b98 f   libucrt:fegetenv.obj
 0001:001f3bb8       fesetenv                   00000001801f4bb8 f   libucrt:fesetenv.obj
 0001:001f3c04       feholdexcept               00000001801f4c04 f   libucrt:feholdexcept.obj
 0001:001f3c54       ceil                       00000001801f4c54 f   libucrt:ceil.obj
 0001:001f3d20       log10                      00000001801f4d20 f   libucrt:log10.obj
 0001:001f42cc       __acrt_stdio_allocate_buffer_nolock 00000001801f52cc f   libucrt:_getbuf.obj
 0001:001f4334       __strncnt                  00000001801f5334 f   libucrt:strncnt.obj
 0001:001f434c       __dcrt_lowio_ensure_console_output_initialized 00000001801f534c f   libucrt:initcon.obj
 0001:001f43a0       __dcrt_terminate_console_output 00000001801f53a0 f   libucrt:initcon.obj
 0001:001f43bc       __dcrt_write_console       00000001801f53bc f   libucrt:initcon.obj
 0001:001f447c       __acrt_fenv_get_control    00000001801f547c f   libucrt:_fenvutils.obj
 0001:001f4570       __acrt_fenv_get_status     00000001801f5570 f   libucrt:_fenvutils.obj
 0001:001f45c4       __acrt_fenv_set_control    00000001801f55c4 f   libucrt:_fenvutils.obj
 0001:001f470c       __acrt_fenv_set_status     00000001801f570c f   libucrt:_fenvutils.obj
 0001:001f4790       _clearfp                   00000001801f5790 f   libucrt:ieee.obj
 0001:001f4800       _log10_special             00000001801f5800 f   libucrt:log_special.obj
 0001:001f48c0       _FindPESection             00000001801f58c0 f   LIBCMT:pesect.obj
 0001:001f4910       _IsNonwritableInCurrentImage 00000001801f5910 f   LIBCMT:pesect.obj
 0001:001f4960       _ValidateImageBase         00000001801f5960 f   LIBCMT:pesect.obj
 0001:001f4990       __GSHandlerCheck           00000001801f5990 f   LIBCMT:gshandler.obj
 0001:001f49b0       __GSHandlerCheckCommon     00000001801f59b0 f   LIBCMT:gshandler.obj
 0001:001f4a20       __security_check_cookie    00000001801f5a20 f   LIBCMT:amdsecgs.obj
 0001:001f4a40       __GSHandlerCheck_SEH       00000001801f5a40 f   LIBCMT:gshandlerseh.obj
 0001:001f4ac8       __raise_securityfailure    00000001801f5ac8 f   LIBCMT:gs_report.obj
 0001:001f4afc       __report_gsfailure         00000001801f5afc f   LIBCMT:gs_report.obj
 0001:001f4bd0       __report_rangecheckfailure 00000001801f5bd0 f   LIBCMT:gs_report.obj
 0001:001f4be4       __report_securityfailure   00000001801f5be4 f   LIBCMT:gs_report.obj
 0001:001f4d64       strrchr                    00000001801f5d64 f   libvcruntime:strrchr.obj
 0001:001f4ea0       memcmp                     00000001801f5ea0 f   libvcruntime:memcmp.obj
 0001:001f4f80       _guard_dispatch_icall_nop  00000001801f5f80 f   LIBCMT:guard_dispatch.obj
 0001:001f4fa0       _guard_xfg_dispatch_icall_nop 00000001801f5fa0 f   LIBCMT:guard_xfg_dispatch.obj
 0002:00000000       __imp_GetLastError         00000001801f7000     kernel32:KERNEL32.dll
 0002:00000008       __imp_FreeLibrary          00000001801f7008     kernel32:KERNEL32.dll
 0002:00000010       __imp_GetProcAddress       00000001801f7010     kernel32:KERNEL32.dll
 0002:00000018       __imp_LoadLibraryA         00000001801f7018     kernel32:KERNEL32.dll
 0002:00000020       __imp_RaiseException       00000001801f7020     kernel32:KERNEL32.dll
 0002:00000028       __imp_GetSystemInfo        00000001801f7028     kernel32:KERNEL32.dll
 0002:00000030       __imp_VirtualProtect       00000001801f7030     kernel32:KERNEL32.dll
 0002:00000038       __imp_VirtualQuery         00000001801f7038     kernel32:KERNEL32.dll
 0002:00000040       __imp_GetModuleHandleW     00000001801f7040     kernel32:KERNEL32.dll
 0002:00000048       __imp_LoadLibraryExA       00000001801f7048     kernel32:KERNEL32.dll
 0002:00000050       __imp_InitializeSListHead  00000001801f7050     kernel32:KERNEL32.dll
 0002:00000058       __imp_RtlCaptureContext    00000001801f7058     kernel32:KERNEL32.dll
 0002:00000060       __imp_RtlLookupFunctionEntry 00000001801f7060     kernel32:KERNEL32.dll
 0002:00000068       __imp_RtlVirtualUnwind     00000001801f7068     kernel32:KERNEL32.dll
 0002:00000070       __imp_IsDebuggerPresent    00000001801f7070     kernel32:KERNEL32.dll
 0002:00000078       __imp_UnhandledExceptionFilter 00000001801f7078     kernel32:KERNEL32.dll
 0002:00000080       __imp_SetUnhandledExceptionFilter 00000001801f7080     kernel32:KERNEL32.dll
 0002:00000088       __imp_GetStartupInfoW      00000001801f7088     kernel32:KERNEL32.dll
 0002:00000090       __imp_IsProcessorFeaturePresent 00000001801f7090     kernel32:KERNEL32.dll
 0002:00000098       __imp_QueryPerformanceCounter 00000001801f7098     kernel32:KERNEL32.dll
 0002:000000a0       __imp_GetCurrentProcessId  00000001801f70a0     kernel32:KERNEL32.dll
 0002:000000a8       __imp_GetCurrentThreadId   00000001801f70a8     kernel32:KERNEL32.dll
 0002:000000b0       __imp_GetSystemTimeAsFileTime 00000001801f70b0     kernel32:KERNEL32.dll
 0002:000000b8       __imp_InterlockedPushEntrySList 00000001801f70b8     kernel32:KERNEL32.dll
 0002:000000c0       __imp_InterlockedFlushSList 00000001801f70c0     kernel32:KERNEL32.dll
 0002:000000c8       __imp_RtlUnwindEx          00000001801f70c8     kernel32:KERNEL32.dll
 0002:000000d0       __imp_SetLastError         00000001801f70d0     kernel32:KERNEL32.dll
 0002:000000d8       __imp_EnterCriticalSection 00000001801f70d8     kernel32:KERNEL32.dll
 0002:000000e0       __imp_LeaveCriticalSection 00000001801f70e0     kernel32:KERNEL32.dll
 0002:000000e8       __imp_DeleteCriticalSection 00000001801f70e8     kernel32:KERNEL32.dll
 0002:000000f0       __imp_InitializeCriticalSectionAndSpinCount 00000001801f70f0     kernel32:KERNEL32.dll
 0002:000000f8       __imp_TlsAlloc             00000001801f70f8     kernel32:KERNEL32.dll
 0002:00000100       __imp_TlsGetValue          00000001801f7100     kernel32:KERNEL32.dll
 0002:00000108       __imp_TlsSetValue          00000001801f7108     kernel32:KERNEL32.dll
 0002:00000110       __imp_TlsFree              00000001801f7110     kernel32:KERNEL32.dll
 0002:00000118       __imp_LoadLibraryExW       00000001801f7118     kernel32:KERNEL32.dll
 0002:00000120       __imp_EncodePointer        00000001801f7120     kernel32:KERNEL32.dll
 0002:00000128       __imp_RtlPcToFileHeader    00000001801f7128     kernel32:KERNEL32.dll
 0002:00000130       __imp_GetCurrentProcess    00000001801f7130     kernel32:KERNEL32.dll
 0002:00000138       __imp_ExitProcess          00000001801f7138     kernel32:KERNEL32.dll
 0002:00000140       __imp_TerminateProcess     00000001801f7140     kernel32:KERNEL32.dll
 0002:00000148       __imp_GetModuleHandleExW   00000001801f7148     kernel32:KERNEL32.dll
 0002:00000150       __imp_GetModuleFileNameW   00000001801f7150     kernel32:KERNEL32.dll
 0002:00000158       __imp_HeapAlloc            00000001801f7158     kernel32:KERNEL32.dll
 0002:00000160       __imp_HeapFree             00000001801f7160     kernel32:KERNEL32.dll
 0002:00000168       __imp_LCMapStringW         00000001801f7168     kernel32:KERNEL32.dll
 0002:00000170       __imp_GetStdHandle         00000001801f7170     kernel32:KERNEL32.dll
 0002:00000178       __imp_GetFileType          00000001801f7178     kernel32:KERNEL32.dll
 0002:00000180       __imp_FindClose            00000001801f7180     kernel32:KERNEL32.dll
 0002:00000188       __imp_FindFirstFileExW     00000001801f7188     kernel32:KERNEL32.dll
 0002:00000190       __imp_FindNextFileW        00000001801f7190     kernel32:KERNEL32.dll
 0002:00000198       __imp_IsValidCodePage      00000001801f7198     kernel32:KERNEL32.dll
 0002:000001a0       __imp_GetACP               00000001801f71a0     kernel32:KERNEL32.dll
 0002:000001a8       __imp_GetOEMCP             00000001801f71a8     kernel32:KERNEL32.dll
 0002:000001b0       __imp_GetCPInfo            00000001801f71b0     kernel32:KERNEL32.dll
 0002:000001b8       __imp_GetCommandLineA      00000001801f71b8     kernel32:KERNEL32.dll
 0002:000001c0       __imp_GetCommandLineW      00000001801f71c0     kernel32:KERNEL32.dll
 0002:000001c8       __imp_MultiByteToWideChar  00000001801f71c8     kernel32:KERNEL32.dll
 0002:000001d0       __imp_WideCharToMultiByte  00000001801f71d0     kernel32:KERNEL32.dll
 0002:000001d8       __imp_GetEnvironmentStringsW 00000001801f71d8     kernel32:KERNEL32.dll
 0002:000001e0       __imp_FreeEnvironmentStringsW 00000001801f71e0     kernel32:KERNEL32.dll
 0002:000001e8       __imp_GetProcessHeap       00000001801f71e8     kernel32:KERNEL32.dll
 0002:000001f0       __imp_FlushFileBuffers     00000001801f71f0     kernel32:KERNEL32.dll
 0002:000001f8       __imp_WriteFile            00000001801f71f8     kernel32:KERNEL32.dll
 0002:00000200       __imp_GetConsoleCP         00000001801f7200     kernel32:KERNEL32.dll
 0002:00000208       __imp_GetConsoleMode       00000001801f7208     kernel32:KERNEL32.dll
 0002:00000210       __imp_SetStdHandle         00000001801f7210     kernel32:KERNEL32.dll
 0002:00000218       __imp_GetFileSizeEx        00000001801f7218     kernel32:KERNEL32.dll
 0002:00000220       __imp_SetFilePointerEx     00000001801f7220     kernel32:KERNEL32.dll
 0002:00000228       __imp_GetStringTypeW       00000001801f7228     kernel32:KERNEL32.dll
 0002:00000230       __imp_HeapSize             00000001801f7230     kernel32:KERNEL32.dll
 0002:00000238       __imp_HeapReAlloc          00000001801f7238     kernel32:KERNEL32.dll
 0002:00000240       __imp_CloseHandle          00000001801f7240     kernel32:KERNEL32.dll
 0002:00000248       __imp_CreateFileW          00000001801f7248     kernel32:KERNEL32.dll
 0002:00000250       __imp_WriteConsoleW        00000001801f7250     kernel32:KERNEL32.dll
 0002:00000258       \177KERNEL32_NULL_THUNK_DATA 00000001801f7258     kernel32:KERNEL32.dll
 0002:00000260       __guard_check_icall_fptr   00000001801f7260     LIBCMT:guard_support.obj
 0002:00000268       __guard_xfg_check_icall_fptr 00000001801f7268     LIBCMT:guard_support.obj
 0002:00000270       __guard_dispatch_icall_fptr 00000001801f7270     LIBCMT:guard_support.obj
 0002:00000278       __guard_xfg_dispatch_icall_fptr 00000001801f7278     LIBCMT:guard_support.obj
 0002:00000280       __guard_xfg_table_dispatch_icall_fptr 00000001801f7280     LIBCMT:guard_support.obj
 0002:00000288       __xc_a                     00000001801f7288     LIBCMT:initializers.obj
 0002:00001d80       __xc_z                     00000001801f8d80     LIBCMT:initializers.obj
 0002:00001d88       __xi_a                     00000001801f8d88     LIBCMT:initializers.obj
 0002:00001d90       __acrt_stdio_initializer   00000001801f8d90     libucrt:stdio_initializer.obj
 0002:00001d98       __acrt_tran_fma3_initializer 00000001801f8d98     libucrt:fma3_initializer.obj
 0002:00001da0       __acrt_multibyte_initializer 00000001801f8da0     libucrt:multibyte_initializer.obj
 0002:00001da8       __xi_z                     00000001801f8da8     LIBCMT:initializers.obj
 0002:00001db0       __xp_a                     00000001801f8db0     LIBCMT:initializers.obj
 0002:00001db8       __acrt_locale_terminator   00000001801f8db8     libucrt:locale_initializer.obj
 0002:00001dc0       __dcrt_console_output_terminator 00000001801f8dc0     libucrt:console_output_initializer.obj
 0002:00001dc8       __acrt_stdio_terminator    00000001801f8dc8     libucrt:stdio_initializer.obj
 0002:00001dd0       __xp_z                     00000001801f8dd0     LIBCMT:initializers.obj
 0002:00001dd8       __xt_a                     00000001801f8dd8     LIBCMT:initializers.obj
 0002:00001de0       __xt_z                     00000001801f8de0     LIBCMT:initializers.obj
 0002:00001df0       ??_7PxCollection@physx@@6B@ 00000001801f8df0     CmCollection.obj
 0002:00001e70       ??_C@_00CNPNBAHC@@         00000001801f8e70     CmCollection.obj
 0002:00001e78       ??_7Collection@Cm@physx@@6B@ 00000001801f8e78     CmCollection.obj
 0002:00001f00       ??_C@_0GE@GBACBMOC@PxCollection?3?3add?5called?5for?5an@ 00000001801f8f00     CmCollection.obj
 0002:00001f68       ??_C@_0DP@CJKGCKLP@D?3?2Coding?2physx?2PhysX?2physx?2sou@ 00000001801f8f68     CmCollection.obj
 0002:00001fb0       ??_C@_0EM@OMMGDOMK@PxCollection?3?3add?5called?5with?5a@ 00000001801f8fb0     CmCollection.obj
 0002:00002000       ??_C@_0EL@CBFFIHFG@PxCollection?3?3remove?5called?5for@ 00000001801f9000     CmCollection.obj
 0002:00002050       ??_C@_0EP@DBNENNLL@PxCollection?3?3addId?5called?5for?5@ 00000001801f9050     CmCollection.obj
 0002:000020a0       ??_C@_0FL@DACPFKDD@PxCollection?3?3addId?5called?5with@ 00000001801f90a0     CmCollection.obj
 0002:00002100       ??_C@_0EP@GMPAMDKI@PxCollection?3?3addId?5called?5with@ 00000001801f9100     CmCollection.obj
 0002:00002150       ??_C@_0FO@DIHIGAFD@PxCollection?3?3removeId?5called?5w@ 00000001801f9150     CmCollection.obj
 0002:000021b0       ??_C@_0FF@MENHIPMD@PxCollection?3?3removeId?5called?5w@ 00000001801f91b0     CmCollection.obj
 0002:00002210       ??_C@_0FK@BAFICJEM@PxCollection?3?3find?5called?5with?5@ 00000001801f9210     CmCollection.obj
 0002:00002270       ??_C@_0DF@CLGAFPLL@PxCollection?3?3add?$CIPxCollection?$CG@ 00000001801f9270     CmCollection.obj
 0002:000022a8       ??_C@_0DN@DMJACFO@PxCollection?3?3add?$CIPxCollection?$CG@ 00000001801f92a8     CmCollection.obj
 0002:000022e8       ??_C@_0DI@DICAIAPC@PxCollection?3?3remove?$CIPxCollecti@ 00000001801f92e8     CmCollection.obj
 0002:00002320       ??_C@_0DG@LOILDLGN@PxCollection?3?3getObjects?5called@ 00000001801f9320     CmCollection.obj
 0002:00002358       ??_C@_0DD@GMICJLDJ@PxCollection?3?3getObjects?5called@ 00000001801f9358     CmCollection.obj
 0002:00002390       ??_C@_0DC@GILGGBAI@PxCollection?3?3getIds?5called?5wit@ 00000001801f9390     CmCollection.obj
 0002:000023c8       ??_C@_0CP@LFEKADKN@PxCollection?3?3getIds?5called?5wit@ 00000001801f93c8     CmCollection.obj
 0002:00002400       ??_C@_0EB@CGCGCJEB@D?3?2Coding?2physx?2PhysX?2physx?2inc@ 00000001801f9400     CmCollection.obj
 0002:00002448       ??_C@_0BM@OIFKLHDN@?$DMallocation?5names?5disabled?$DO@ 00000001801f9448     CmCollection.obj
 0002:00002468       ??_7RadixSort@Cm@physx@@6B@ 00000001801f9468     CmRadixSort.obj
 0002:00002470       ??_7RadixSortBuffered@Cm@physx@@6B@ 00000001801f9470     CmRadixSort.obj
 0002:00002478       ??_C@_0DO@KHHDEFEI@D?3?2Coding?2physx?2PhysX?2physx?2sou@ 00000001801f9478     CmRadixSort.obj
 0002:000024c0       __xmm@00000001000000010000000100000001 00000001801f94c0     CmRadixSort.obj
 0002:000024d0       __xmm@00000003000000020000000100000000 00000001801f94d0     CmRadixSort.obj
 0002:000024e0       __real@3d4ccccd            00000001801f94e0     CmVisualization.obj
 0002:000024e4       __real@3e19999a            00000001801f94e4     CmVisualization.obj
 0002:000024e8       __real@3e490fdb            00000001801f94e8     CmVisualization.obj
 0002:000024ec       __real@3e800000            00000001801f94ec     CmVisualization.obj
 0002:000024f0       __real@3e99999a            00000001801f94f0     CmVisualization.obj
 0002:000024f4       __real@3ea0d97c            00000001801f94f4     CmVisualization.obj
 0002:000024f8       __real@3eddb3d7            00000001801f94f8     CmVisualization.obj
 0002:000024fc       __real@3f000000            00000001801f94fc     CmVisualization.obj
 0002:00002500       __real@3f3504f3            00000001801f9500     CmVisualization.obj
 0002:00002504       __real@3f800000            00000001801f9504     CmVisualization.obj
 0002:00002508       __real@3fc00000            00000001801f9508     CmVisualization.obj
 0002:0000250c       __real@3fddb3d7            00000001801f950c     CmVisualization.obj
 0002:00002510       __real@40100000            00000001801f9510     CmVisualization.obj
 0002:00002514       __real@40c90fdb            00000001801f9514     CmVisualization.obj
 0002:00002518       __real@beddb3d7            00000001801f9518     CmVisualization.obj
 0002:0000251c       __real@c0000000            00000001801f951c     CmVisualization.obj
 0002:00002520       __xmm@3f800000000000000000000000000000 00000001801f9520     CmVisualization.obj
 0002:00002530       __xmm@7fffffff7fffffff7fffffff7fffffff 00000001801f9530     CmVisualization.obj
 0002:00002540       __xmm@80000000800000008000000080000000 00000001801f9540     CmVisualization.obj
 0002:00002550       ??_C@_0BB@CPDDPFKD@GetUpdatedModule@ 00000001801f9550     CmWindowsModuleUpdateLoader.obj
 0002:00002570       ??_C@_0FG@NAJDMGIB@D?3?2Coding?2physx?2PhysX?2physx?2sou@ 00000001801f9570     CmWindowsModuleUpdateLoader.obj
 0002:000025c8       ??_C@_0CP@PGOIOJOO@?$CFs?3?$CFi?3?5loadLibrary?5error?5when?5l@ 00000001801f95c8     CmWindowsModuleUpdateLoader.obj
 0002:000025f8       ??_C@_0BA@EGLNOO@PhysXFoundation@ 00000001801f95f8     CmWindowsDelayLoadHook.obj
 0002:00002608       ??_C@_0M@ILKNCJKN@PhysXCommon@ 00000001801f9608     CmWindowsDelayLoadHook.obj
 0002:00002640       __real@3f7ff972            00000001801f9640     GuBox.obj
 0002:00002650       __xmm@000000003a83126f3a83126f3a83126f 00000001801f9650     GuBox.obj
 0002:00002660       __xmm@00000000ba83126fba83126fba83126f 00000001801f9660     GuBox.obj
 0002:00002670       __xmm@3a83126f3a83126f3a83126f3a83126f 00000001801f9670     GuBox.obj
 0002:00002680       __xmm@ba83126fba83126fba83126fba83126f 00000001801f9680     GuBox.obj
 0002:000026b0       ??_7RaycastCallback@PxBVH@physx@@6B@ 00000001801f96b0     GuQuerySystem.obj
 0002:000026b0       ??_7RemapCallback@RTreeCooker@physx@@6B@ 00000001801f96b0     GuCookingTriangleMesh.obj
 0002:000026b0       ??_7OverlapReport@Gu@physx@@6B@ 00000001801f96b0     GuCCTSweepTests.obj
 0002:000026b0       ??_7EntityReport@Gu@physx@@6B@ 00000001801f96b0     GuSweepsHF.obj
 0002:000026b0       ??_7OverlapCallback@PxBVH@physx@@6B@ 00000001801f96b0     GuQuerySystem.obj
 0002:000026d0       __real@3b03126f            00000001801f96d0     GuCCTSweepTests.obj
 0002:000026d4       __real@40000000            00000001801f96d4     GuCCTSweepTests.obj
 0002:00002790       ??_C@_0CD@CGJJEFHC@Gu?3?3overlap?$CI?$CJ?3?5pose0?5is?5not?5val@ 00000001801f9790     GuGeometryQuery.obj
 0002:000027c0       ??_C@_0EG@PHKBNBDD@D?3?2Coding?2physx?2PhysX?2physx?2sou@ 00000001801f97c0     GuGeometryQuery.obj
 0002:00002808       ??_C@_0CD@IIPBNEOD@Gu?3?3overlap?$CI?$CJ?3?5pose1?5is?5not?5val@ 00000001801f9808     GuGeometryQuery.obj
 0002:00002830       ??_7SupportLocal@Gu@physx@@6B@ 00000001801f9830     GuGeometryQuery.obj
 0002:00002850       ??_C@_0CO@DGHGHPPJ@PxGeometryQuery?3?3sweep?$CI?$CJ?3?5pose0@ 00000001801f9850     GuGeometryQuery.obj
 0002:00002880       ??_C@_0EF@LNNCPDEA@D?3?2Coding?2physx?2PhysX?2physx?2sou@ 00000001801f9880     GuGeometryQuery.obj
 0002:000028c8       ??_C@_0CO@JIBOOOGI@PxGeometryQuery?3?3sweep?$CI?$CJ?3?5pose1@ 00000001801f98c8     GuGeometryQuery.obj
 0002:000028f8       ??_C@_0DA@JEEBDBEM@PxGeometryQuery?3?3sweep?$CI?$CJ?3?5unitD@ 00000001801f98f8     GuGeometryQuery.obj
 0002:00002928       ??_C@_0DB@KCEKJBPE@PxGeometryQuery?3?3sweep?$CI?$CJ?3?5dista@ 00000001801f9928     GuGeometryQuery.obj
 0002:00002960       ??_C@_0FM@HAJNNJNC@PxGeometryQuery?3?3sweep?$CI?$CJ?3?5sweep@ 00000001801f9960     GuGeometryQuery.obj
 0002:000029c0       ??_C@_0CB@JDDBKCNL@Provided?5geometry?50?5is?5not?5vali@ 00000001801f99c0     GuGeometryQuery.obj
 0002:000029e8       ??_C@_0CB@CKMKHJDD@Provided?5geometry?51?5is?5not?5vali@ 00000001801f99e8     GuGeometryQuery.obj
 0002:00002a10       ??_C@_0GL@GJKJELMB@PxGeometryQuery?3?3sweep?$CI?$CJ?3?5first@ 00000001801f9a10     GuGeometryQuery.obj
 0002:00002a80       ??_C@_0DB@OMDGMOND@PxGeometryQuery?3?3raycast?$CI?$CJ?3?5ray@ 00000001801f9a80     GuGeometryQuery.obj
 0002:00002ab8       ??_C@_0DE@MGFNMBNA@PxGeometryQuery?3?3raycast?$CI?$CJ?3?5ray@ 00000001801f9ab8     GuGeometryQuery.obj
 0002:00002af0       ??_C@_0CP@NHLDPNEB@PxGeometryQuery?3?3raycast?$CI?$CJ?3?5pos@ 00000001801f9af0     GuGeometryQuery.obj
 0002:00002b20       ??_C@_0DB@HPNPNEMP@PxGeometryQuery?3?3raycast?$CI?$CJ?3?5max@ 00000001801f9b20     GuGeometryQuery.obj
 0002:00002b58       ??_C@_0DC@BLMIOBO@PxGeometryQuery?3?3raycast?$CI?$CJ?3?5max@ 00000001801f9b58     GuGeometryQuery.obj
 0002:00002b90       ??_C@_0DP@IPJGHFJE@PxGeometryQuery?3?3raycast?$CI?$CJ?3?5ray@ 00000001801f9b90     GuGeometryQuery.obj
 0002:00002bd0       ??_C@_0DF@BMEFDPAL@PxGeometryQuery?3?3pointDistance?$CI@ 00000001801f9bd0     GuGeometryQuery.obj
 0002:00002c10       ??_C@_0HD@CIHHMJFE@PxGeometryQuery?3?3pointDistance?$CI@ 00000001801f9c10     GuGeometryQuery.obj
 0002:00002c88       ??_C@_0DJ@FHLFMELL@PxGeometryQuery?3?3computeGeomBou@ 00000001801f9c88     GuGeometryQuery.obj
 0002:00002cc8       ??_C@_0DL@LECAKFBF@PxGeometryQuery?3?3computePenetra@ 00000001801f9cc8     GuGeometryQuery.obj
 0002:00002d08       ??_C@_0DL@BKEIDEIE@PxGeometryQuery?3?3computePenetra@ 00000001801f9d08     GuGeometryQuery.obj
 0002:00002d48       ??_7?$SupportLocalImpl@VBoxV@Gu@physx@@@Gu@physx@@6B@ 00000001801f9d48     GuGeometryQuery.obj
 0002:00002d68       ??_7?$SupportLocalImpl@VConvexHullV@Gu@physx@@@Gu@physx@@6B@ 00000001801f9d68     GuGeometryQuery.obj
 0002:00002d88       ??_C@_0DJ@CCGDCLJG@D?3?2Coding?2physx?2PhysX?2physx?2inc@ 00000001801f9d88     GuGeometryQuery.obj
 0002:00002dc4       __real@2edbe6fe            00000001801f9dc4     GuGeometryQuery.obj
 0002:00002dc8       __real@30d1b7e9            00000001801f9dc8     GuGeometryQuery.obj
 0002:00002dcc       __real@322bcc77            00000001801f9dcc     GuGeometryQuery.obj
 0002:00002dd0       __real@34000000            00000001801f9dd0     GuGeometryQuery.obj
 0002:00002dd4       __real@358637bd            00000001801f9dd4     GuGeometryQuery.obj
 0002:00002dd8       __real@3727c5ac            00000001801f9dd8     GuGeometryQuery.obj
 0002:00002ddc       __real@38d1b717            00000001801f9ddc     GuGeometryQuery.obj
 0002:00002de0       __real@3a83126f            00000001801f9de0     GuGeometryQuery.obj
 0002:00002de4       __real@3c23d70a            00000001801f9de4     GuGeometryQuery.obj
 0002:00002de8       __real@3ccccccd            00000001801f9de8     GuGeometryQuery.obj
 0002:00002dec       __real@3dcccccd            00000001801f9dec     GuGeometryQuery.obj
 0002:00002df0       __real@3e0f5c29            00000001801f9df0     GuGeometryQuery.obj
 0002:00002df4       __real@3f7d70a4            00000001801f9df4     GuGeometryQuery.obj
 0002:00002df8       __real@49742400            00000001801f9df8     GuGeometryQuery.obj
 0002:00002dfc       __real@7f7fffff            00000001801f9dfc     GuGeometryQuery.obj
 0002:00002e00       __real@80000000            00000001801f9e00     GuGeometryQuery.obj
 0002:00002e04       __real@b727c5ac            00000001801f9e04     GuGeometryQuery.obj
 0002:00002e08       __real@bf000000            00000001801f9e08     GuGeometryQuery.obj
 0002:00002e0c       __real@bf7d70a4            00000001801f9e0c     GuGeometryQuery.obj
 0002:00002e10       __real@bf800000            00000001801f9e10     GuGeometryQuery.obj
 0002:00002e14       __real@ff7fffff            00000001801f9e14     GuGeometryQuery.obj
 0002:00002e20       __xmm@0000000000000000000000003f800000 00000001801f9e20     GuGeometryQuery.obj
 0002:00002e30       __xmm@00000000000000003f80000000000000 00000001801f9e30     GuGeometryQuery.obj
 0002:00002e40       __xmm@00000000000000003f8000003f800000 00000001801f9e40     GuGeometryQuery.obj
 0002:00002e50       __xmm@000000003f8000000000000000000000 00000001801f9e50     GuGeometryQuery.obj
 0002:00002e60       __xmm@000000003f8000003f8000003f800000 00000001801f9e60     GuGeometryQuery.obj
 0002:00002e70       __xmm@00000000ffffffffffffffffffffffff 00000001801f9e70     GuGeometryQuery.obj
 0002:00002e80       __xmm@3d4ccccd3d4ccccd3d4ccccd3d4ccccd 00000001801f9e80     GuGeometryQuery.obj
 0002:00002e90       __xmm@3e19999a3e19999a3e19999a3e19999a 00000001801f9e90     GuGeometryQuery.obj
 0002:00002ea0       __xmm@3e4ccccd3e4ccccd3e4ccccd3e4ccccd 00000001801f9ea0     GuGeometryQuery.obj
 0002:00002eb0       __xmm@3e8000003e8000003e8000003e800000 00000001801f9eb0     GuGeometryQuery.obj
 0002:00002ec0       __xmm@3f7ef9db3f7ef9db3f7ef9db3f7ef9db 00000001801f9ec0     GuGeometryQuery.obj
 0002:00002ed0       __xmm@3f7ff2e53f7ff2e53f7ff2e53f7ff2e5 00000001801f9ed0     GuGeometryQuery.obj
 0002:00002ee0       __xmm@3f8000003f8000003f8000003f800000 00000001801f9ee0     GuGeometryQuery.obj
 0002:00002ef0       __xmm@7f7fffff7f7fffff7f7fffff7f7fffff 00000001801f9ef0     GuGeometryQuery.obj
 0002:00002f00       __xmm@bf000000bf000000bf000000bf000000 00000001801f9f00     GuGeometryQuery.obj
 0002:00002f50       ??_7PxInsertionCallback@physx@@6B@ 00000001801f9f50     GuMeshFactory.obj
 0002:00002f50       ??_7CallbackRaycast@RTree@Gu@physx@@6B@ 00000001801f9f50     GuMidphaseRTree.obj
 0002:00002f50       ??_7CallbackRefit@RTree@Gu@physx@@6B@ 00000001801f9f50     GuTriangleMeshRTree.obj
 0002:00002f60       ??_7PxCollisionMeshMappingData@physx@@6B@ 00000001801f9f60     GuMeshFactory.obj
 0002:00002f70       ??_7MeshFactory@Gu@physx@@6B@ 00000001801f9f70     GuMeshFactory.obj
 0002:00002f78       ??_7MeshDataBase@Gu@physx@@6B@ 00000001801f9f78     GuMeshFactory.obj
 0002:00002f80       ??_C@_0ED@MHHAMMFL@D?3?2Coding?2physx?2PhysX?2physx?2sou@ 00000001801f9f80     GuMeshFactory.obj
 0002:00002fc8       ??_7TriangleMeshData@Gu@physx@@6B@ 00000001801f9fc8     GuMeshFactory.obj
 0002:00002fd0       ??_7RTreeTriangleData@Gu@physx@@6B@ 00000001801f9fd0     GuMeshFactory.obj
 0002:00002fd8       ??_7BV4TriangleData@Gu@physx@@6B@ 00000001801f9fd8     GuMeshFactory.obj
 0002:00002fe0       ??_7DeformableVolumeCollisionData@Gu@physx@@6B@ 00000001801f9fe0     GuMeshFactory.obj
 0002:00002fe8       ??_7CollisionMeshMappingData@Gu@physx@@6B@ 00000001801f9fe8     GuMeshFactory.obj
 0002:00002ff8       ??_7DeformableVolumeSimulationData@Gu@physx@@6B@ 00000001801f9ff8     GuMeshFactory.obj
 0002:00003000       ??_C@_0GP@NHELMDAL@Loading?5triangle?5mesh?5failed?3?5D@ 00000001801fa000     GuMeshFactory.obj
 0002:00003070       ??_C@_0ED@CJKGMCNM@D?3?2Coding?2physx?2PhysX?2physx?2sou@ 00000001801fa070     GuMeshFactory.obj
 0002:000030b8       ??_C@_0BP@CDOKDACA@RTree?5binary?5image?5load?5error?4@ 00000001801fa0b8     GuMeshFactory.obj
 0002:000030d8       ??_C@_0BN@MJPNIELF@BV4?5binary?5image?5load?5error?4@ 00000001801fa0d8     GuMeshFactory.obj
 0002:000030f8       ??_C@_0BO@JDPABAOF@BV32?5binary?5image?5load?5error?4@ 00000001801fa0f8     GuMeshFactory.obj
 0002:00003118       ??_C@_0BN@IKININFO@Invalid?5tetrahedron?5indices?4@ 00000001801fa118     GuMeshFactory.obj
 0002:00003150       ??_C@_0EM@BDFDGBD@Inserting?5object?5failed?3?5Object@ 00000001801fa150     GuMeshFactory.obj
 0002:000031a0       ??_C@_0DJ@CLAOCCOP@D?3?2Coding?2physx?2PhysX?2physx?2inc@ 00000001801fa1a0     GuMeshFactory.obj
 0002:000031e0       __xmm@cdcdcdcdcdcdcdcdcdcdcdcdcdcdcdcd 00000001801fa1e0     GuMeshFactory.obj
 0002:000031f0       __xmm@fe7fffff7e7fffff7e7fffff7e7fffff 00000001801fa1f0     GuMeshFactory.obj
 0002:00003220       ?absMask@?1??FAbs@aos@physx@@YA?AT__m128@@T4@@Z@4QBIB 00000001801fa220     GuMTD.obj
 0002:00003230       ??_7GjkConvex@Gu@physx@@6B@ 00000001801fa230     GuMTD.obj
 0002:00003260       ??_7?$LocalConvex@VCapsuleV@Gu@physx@@@Gu@physx@@6B@ 00000001801fa260     GuMTD.obj
 0002:00003290       ??_7?$LocalConvex@VConvexHullV@Gu@physx@@@Gu@physx@@6B@ 00000001801fa290     GuMTD.obj
 0002:000032c0       ??_7?$SupportLocalImpl@VConvexHullNoScaleV@Gu@physx@@@Gu@physx@@6B@ 00000001801fa2c0     GuMTD.obj
 0002:000032e0       __real@2edbe6ff            00000001801fa2e0     GuMTD.obj
 0002:000032f0       __xmm@28800000288000002880000028800000 00000001801fa2f0     GuMTD.obj
 0002:00003300       __xmm@34000000340000003400000034000000 00000001801fa300     GuMTD.obj
 0002:00003310       __xmm@358637bd358637bd358637bd358637bd 00000001801fa310     GuMTD.obj
 0002:00003320       __xmm@3dcccccd3dcccccd3dcccccd3dcccccd 00000001801fa320     GuMTD.obj
 0002:00003330       __xmm@3f7ff1413f7ff1413f7ff1413f7ff141 00000001801fa330     GuMTD.obj
 0002:00003340       __xmm@ffffffffffffffffffffffffffffffff 00000001801fa340     GuMTD.obj
 0002:00003370       ??_7?$RelativeConvex@VBoxV@Gu@physx@@@Gu@physx@@6B@ 00000001801fa370     GuOverlapTests.obj
 0002:000033a0       ??_7?$RelativeConvex@VConvexHullV@Gu@physx@@@Gu@physx@@6B@ 00000001801fa3a0     GuOverlapTests.obj
 0002:00003490       ??_7Support@PxGjkQuery@physx@@6B@ 00000001801fa490     GuRaycastTests.obj
 0002:000034c0       __real@1e3ce508            00000001801fa4c0     GuRaycastTests.obj
 0002:000034c4       __real@28800000            00000001801fa4c4     GuRaycastTests.obj
 0002:000034c8       __real@33d6bf95            00000001801fa4c8     GuRaycastTests.obj
 0002:000034cc       __real@3f0147ae            00000001801fa4cc     GuRaycastTests.obj
 0002:000034d0       __real@3f7ffffe            00000001801fa4d0     GuRaycastTests.obj
 0002:000034d4       __real@3f800347            00000001801fa4d4     GuRaycastTests.obj
 0002:000034d8       __real@41200000            00000001801fa4d8     GuRaycastTests.obj
 0002:000034dc       __real@b3d6bf95            00000001801fa4dc     GuRaycastTests.obj
 0002:000034e0       __real@b8d1b717            00000001801fa4e0     GuRaycastTests.obj
 0002:000034e4       __real@c1200000            00000001801fa4e4     GuRaycastTests.obj
 0002:000035a0       ??_7?$MeshHitCallback@UPxGeomRaycastHit@physx@@@Gu@physx@@6B@ 00000001801fa5a0     GuSweepMTD.obj
 0002:000035b0       ??_7MeshMTDGenerationCallback@@6B@ 00000001801fa5b0     GuSweepMTD.obj
 0002:000035c0       ??_7MidPhaseQueryLocalReport@@6B@ 00000001801fa5c0     GuSweepMTD.obj
 0002:000035d0       __real@3f8147ae            00000001801fa5d0     GuSweepMTD.obj
 0002:000035d4       __real@3f933333            00000001801fa5d4     GuSweepMTD.obj
 0002:00003600       __real@42c80000            00000001801fa600     GuSweepSharedTests.obj
 0002:000036c0       ??_7?$LocalConvex@VBoxV@Gu@physx@@@Gu@physx@@6B@ 00000001801fa6c0     GuSweepTests.obj
 0002:000036f0       ??_7?$LocalConvex@VTriangleV@Gu@physx@@@Gu@physx@@6B@ 00000001801fa6f0     GuSweepTests.obj
 0002:000037c0       __xmm@00000002000000020000000200000002 00000001801fa7c0     GuSweepTests.obj
 0002:000037d0       __xmm@3eaaaa9f3eaaaa9f3eaaaa9f3eaaaa9f 00000001801fa7d0     GuSweepTests.obj
 0002:00003890       ??_7PxRunnable@physx@@6B@  00000001801fa890     GuSDF.obj
 0002:000038a0       ??_C@_0DL@PKAJBMIG@D?3?2Coding?2physx?2PhysX?2physx?2sou@ 00000001801fa8a0     GuSDF.obj
 0002:000038e0       ??_7PointOntoTriangleMeshProjector@Gu@physx@@6B@ 00000001801fa8e0     GuSDF.obj
 0002:000038f8       ??_7?$PxThreadT@V?$PxReflectionAllocator@VPxThreadImpl@physx@@@physx@@@physx@@6B@ 00000001801fa8f8     GuSDF.obj
 0002:00003908       ??_C@_06FJHNOCKE@thread@   00000001801fa908     GuSDF.obj
 0002:00003910       ??_C@_0BAK@OPLLKLNG@SDF?5creation?3?5Mesh?5is?5not?5suita@ 00000001801fa910     GuSDF.obj
 0002:00003a20       ??_C@_0FB@OMEANACP@SDF?5creation?3?5Input?5mesh?5is?5not@ 00000001801faa20     GuSDF.obj
 0002:00003a80       ??_C@_0EC@LILMFABM@No?5distance?5data?5available?5?$CInul@ 00000001801faa80     GuSDF.obj
 0002:00003ad0       ??_C@_0EF@PBPCGDDJ@No?5sparse?5grid?5data?5available?5?$CI@ 00000001801faad0     GuSDF.obj
 0002:00003b18       ??_C@_0DK@PEPJEJFG@D?3?2Coding?2physx?2PhysX?2physx?2inc@ 00000001801fab18     GuSDF.obj
 0002:00003b58       ??_C@_0DI@MFEKCNGF@D?3?2Coding?2physx?2PhysX?2physx?2inc@ 00000001801fab58     GuSDF.obj
 0002:00003b90       ??_C@_0EB@MEBLNKEA@D?3?2Coding?2physx?2PhysX?2physx?2inc@ 00000001801fab90     GuSDF.obj
 0002:00003bd4       __real@37800080            00000001801fabd4     GuSDF.obj
 0002:00003bd8       __real@3b808081            00000001801fabd8     GuSDF.obj
 0002:00003bdc       __real@3e2aaaab            00000001801fabdc     GuSDF.obj
 0002:00003be0       __real@3eaaaaab            00000001801fabe0     GuSDF.obj
 0002:00003be4       __real@3f400000            00000001801fabe4     GuSDF.obj
 0002:00003be8       __real@7e7fffff            00000001801fabe8     GuSDF.obj
 0002:00003bec       __real@fe7fffff            00000001801fabec     GuSDF.obj
 0002:00003bf0       __xmm@00000001000000010000000100000000 00000001801fabf0     GuSDF.obj
 0002:00003c00       __xmm@80000000800000000000000000000000 00000001801fac00     GuSDF.obj
 0002:00003cc0       ??_7?$RelativeConvex@UCustomConvexV@@@Gu@physx@@6B@ 00000001801facc0     GuGjkQuery.obj
 0002:00003cf0       ??_7?$LocalConvex@UCustomConvexV@@@Gu@physx@@6B@ 00000001801facf0     GuGjkQuery.obj
 0002:00003d20       ??_7?$LocalConvex@UPointConvexV@@@Gu@physx@@6B@ 00000001801fad20     GuGjkQuery.obj
 0002:00003d50       __xmm@3f0000003f0000003f0000003f000000 00000001801fad50     GuGjkQuery.obj
 0002:00003d80       __real@3da2f983            00000001801fad80     GuWindingNumber.obj
 0002:00003d84       __real@3e22f983            00000001801fad84     GuWindingNumber.obj
 0002:00003d88       __real@3f99999a            00000001801fad88     GuWindingNumber.obj
 0002:00003db0       __real@00000000            00000001801fadb0     GuConvexGeometry.obj
 0002:00003db4       __real@38aaaaab            00000001801fadb4     GuConvexGeometry.obj
 0002:00003db8       __real@3d000000            00000001801fadb8     GuConvexGeometry.obj
 0002:00003dbc       __real@3daaaaab            00000001801fadbc     GuConvexGeometry.obj
 0002:00003dc0       __real@3ecccccd            00000001801fadc0     GuConvexGeometry.obj
 0002:00003dc4       __real@3fc90fdb            00000001801fadc4     GuConvexGeometry.obj
 0002:00003dc8       __real@40400000            00000001801fadc8     GuConvexGeometry.obj
 0002:00003dcc       __real@40490fdb            00000001801fadcc     GuConvexGeometry.obj
 0002:00003dd0       __real@40860a92            00000001801fadd0     GuConvexGeometry.obj
 0002:00003de0       __xmm@3f800000bf8000003f8000003f800000 00000001801fade0     GuConvexGeometry.obj
 0002:00003df0       __xmm@bf8000003f800000bf800000bf800000 00000001801fadf0     GuConvexGeometry.obj
 0002:00003f00       __real@3c343958            00000001801faf00     GuCCDSweepConvexMesh.obj
 0002:00003f04       __real@3ca3d70a            00000001801faf04     GuCCDSweepConvexMesh.obj
 0002:00003f08       __real@3f0ccccd            00000001801faf08     GuCCDSweepConvexMesh.obj
 0002:00003f0c       __real@3f8ccccd            00000001801faf0c     GuCCDSweepConvexMesh.obj
 0002:00003f10       __real@b58637bd            00000001801faf10     GuCCDSweepConvexMesh.obj
 0002:00003f40       ??_7?$RelativeConvex@VCapsuleV@Gu@physx@@@Gu@physx@@6B@ 00000001801faf40     GuCCDSweepPrimitives.obj
 0002:00003f70       ??_7?$RelativeConvex@VTriangleV@Gu@physx@@@Gu@physx@@6B@ 00000001801faf70     GuCCDSweepPrimitives.obj
 0002:00003fa0       __real@3ba3d70a            00000001801fafa0     GuCCDSweepPrimitives.obj
 0002:00003fa4       __real@501502f9            00000001801fafa4     GuCCDSweepPrimitives.obj
 0002:00003fd0       ??_C@_0EK@FAILNALC@D?3?2Coding?2physx?2PhysX?2physx?2sou@ 00000001801fafd0     GuAdjacencies.obj
 0002:00004020       ??_C@_0DA@FMEHLBKI@Adjacencies?3?3UpdateLink?3?5invali@ 00000001801fb020     GuAdjacencies.obj
 0002:00004050       ??_C@_0EA@CPHOACLK@Adjacencies?3?3CreateDatabase?3?5ca@ 00000001801fb050     GuAdjacencies.obj
 0002:00004090       ??_C@_0EH@JGIMLGLM@D?3?2Coding?2physx?2PhysX?2physx?2sou@ 00000001801fb090     GuEdgeList.obj
 0002:000040d8       ??_C@_0CO@GBNJFPN@EdgeList?3?3CreateFacesToEdges?3?5N@ 00000001801fb0d8     GuEdgeList.obj
 0002:00004108       ??_C@_0CO@EHJBBMNK@EdgeList?3?3ComputeActiveEdges?3?5N@ 00000001801fb108     GuEdgeList.obj
 0002:00004138       ??_C@_0DI@GBHLFOFP@ActiveEdges?3?3ComputeConvexEdges@ 00000001801fb138     GuEdgeList.obj
 0002:00004170       ??_C@_0DM@JOGBLHDI@ActiveEdges?3?3ComputeConvexEdges@ 00000001801fb170     GuEdgeList.obj
 0002:000041b0       ??_C@_0ED@FEMJKPEL@ActiveEdges?3?3ComputeConvexEdges@ 00000001801fb1b0     GuEdgeList.obj
 0002:00004200       ??_C@_0EB@BFDPMFCD@ActiveEdges?3?3ComputeConvexEdges@ 00000001801fb200     GuEdgeList.obj
 0002:00004244       __real@bf7fbe77            00000001801fb244     GuEdgeList.obj
 0002:00004248       ??_7Quantizer@Gu@physx@@6B@ 00000001801fb248     GuQuantizer.obj
 0002:00004270       ??_7QuantizerImpl@@6B@     00000001801fb270     GuQuantizer.obj
 0002:000042a0       ??_C@_0EI@LKMAGPD@D?3?2Coding?2physx?2PhysX?2physx?2sou@ 00000001801fb2a0     GuQuantizer.obj
 0002:000042e8       __real@3f0020c5            00000001801fb2e8     GuQuantizer.obj
 0002:000042ec       __real@3f8020c5            00000001801fb2ec     GuQuantizer.obj
 0002:000042f0       ??_C@_0EK@HFNAPNOG@D?3?2Coding?2physx?2PhysX?2physx?2sou@ 00000001801fb2f0     GuMeshCleaner.obj
 0002:0000433c       __real@40800000            00000001801fb33c     GuMeshCleaner.obj
 0002:00004340       ??_C@_0EM@BNOHPPLB@D?3?2Coding?2physx?2PhysX?2physx?2sou@ 00000001801fb340     GuVertexReducer.obj
 0002:00004490       __real@3f7fbe77            00000001801fb490     GuContactBoxBox.obj
 0002:000044e0       __real@3f7ff2e5            00000001801fb4e0     GuContactCapsuleCapsule.obj
 0002:000045f0       __real@358637be            00000001801fb5f0     GuContactCapsuleMesh.obj
 0002:000045f4       __real@ba83126f            00000001801fb5f4     GuContactCapsuleMesh.obj
 0002:000046d0       ??_7ConvexMeshContactGenerationCallback@@6B@ 00000001801fb6d0     GuContactConvexMesh.obj
 0002:000047c0       __real@3f7fff58            00000001801fb7c0     GuContactConvexCoreMesh.obj
 0002:00004900       ??_C@_0DK@LANNAAJK@D?3?2Coding?2physx?2PhysX?2physx?2inc@ 00000001801fb900     GuContactPlaneMesh.obj
 0002:00004960       __real@3ec90fdb            00000001801fb960     GuContactPolygonPolygon.obj
 0002:00004964       __real@3f490fdb            00000001801fb964     GuContactPolygonPolygon.obj
 0002:00004968       __real@3f96cbe4            00000001801fb968     GuContactPolygonPolygon.obj
 0002:0000496c       __real@3ffb53d2            00000001801fb96c     GuContactPolygonPolygon.obj
 0002:00004970       __real@4016cbe4            00000001801fb970     GuContactPolygonPolygon.obj
 0002:00004974       __real@402feddf            00000001801fb974     GuContactPolygonPolygon.obj
 0002:00004980       __xmm@ff7fffffff7fffffff7fffffff7fffff 00000001801fb980     GuContactPolygonPolygon.obj
 0002:00004a40       ??_C@_0ED@KPEAGMIA@Dropping?5contacts?5in?5contact?5re@ 00000001801fba40     GuContactMeshMesh.obj
 0002:00004a90       ??_C@_0EO@IGJHFIDG@D?3?2Coding?2physx?2PhysX?2physx?2sou@ 00000001801fba90     GuContactMeshMesh.obj
 0002:00004ae0       __real@3b800000            00000001801fbae0     GuContactMeshMesh.obj
 0002:00004ae4       __real@3ed64e4c            00000001801fbae4     GuContactMeshMesh.obj
 0002:00004ae8       __real@3f12648a            00000001801fbae8     GuContactMeshMesh.obj
 0002:00004aec       __real@3f349e9b            00000001801fbaec     GuContactMeshMesh.obj
 0002:00004af0       __real@3f4ccccd            00000001801fbaf0     GuContactMeshMesh.obj
 0002:00004af4       __real@3f59999a            00000001801fbaf4     GuContactMeshMesh.obj
 0002:00004af8       __real@3f7fdf3b            00000001801fbaf8     GuContactMeshMesh.obj
 0002:00004bb0       ??_C@_0DM@PKEGDNOH@Dropping?5contacts?5in?5sphere?5vs?5@ 00000001801fbbb0     GuContactSphereMesh.obj
 0002:00004bf0       ??_C@_0FB@ECIIFLJG@D?3?2Coding?2physx?2PhysX?2physx?2sou@ 00000001801fbbf0     GuContactSphereMesh.obj
 0002:00004c80       ??_C@_0EM@EPGEJLJF@D?3?2Coding?2physx?2PhysX?2physx?2sou@ 00000001801fbc80     GuBigConvexData.obj
 0002:00004cf0       ??_C@_06EJKDJEDO@PxBase@   00000001801fbcf0     GuConvexMesh.obj
 0002:00004cf8       ??_C@_0N@CDGINLLF@PxConvexMesh@ 00000001801fbcf8     GuConvexMesh.obj
 0002:00004d08       ??_7PxBase@physx@@6B@      00000001801fbd08     GuConvexMesh.obj
 0002:00004d30       ??_C@_0CE@IDAGNPDH@isKindOf?5called?5with?5invalid?5st@ 00000001801fbd30     GuConvexMesh.obj
 0002:00004d58       ??_C@_0N@OPPDBGAG@PxRefCounted@ 00000001801fbd58     GuConvexMesh.obj
 0002:00004d68       ??_C@_0DM@OHDKMFEM@D?3?2Coding?2physx?2PhysX?2physx?2inc@ 00000001801fbd68     GuConvexMesh.obj
 0002:00004da8       ??_7ConvexMesh@Gu@physx@@6B@ 00000001801fbda8     GuConvexMesh.obj
 0002:00004e40       ??_C@_0EJ@PLIDIONM@D?3?2Coding?2physx?2PhysX?2physx?2sou@ 00000001801fbe40     GuConvexMesh.obj
 0002:00004e90       ??_C@_0DM@NEJKOFIP@Loading?5convex?5mesh?5failed?3?5Dep@ 00000001801fbe90     GuConvexMesh.obj
 0002:00004ed0       ??_C@_0DB@PAHEPIEL@PxConvexMesh?3?3release?3?5double?5d@ 00000001801fbed0     GuConvexMesh.obj
 0002:00004f10       ??_C@_0EB@NCLIGKML@D?3?2Coding?2physx?2PhysX?2physx?2sou@ 00000001801fbf10     GuConvexMesh.obj
 0002:00004f80       __xmm@000000000000000000000000ffffffff 00000001801fbf80     GuConvexSupportTable.obj
 0002:00004f90       __xmm@0000000000000000ffffffff00000000 00000001801fbf90     GuConvexSupportTable.obj
 0002:00004fa0       __xmm@0000000000000000ffffffffffffffff 00000001801fbfa0     GuConvexSupportTable.obj
 0002:00004fb0       __xmm@00000000ffffffff0000000000000000 00000001801fbfb0     GuConvexSupportTable.obj
 0002:00004fc0       __xmm@00000000ffffffff00000000ffffffff 00000001801fbfc0     GuConvexSupportTable.obj
 0002:00004fd0       __xmm@00000000ffffffffffffffff00000000 00000001801fbfd0     GuConvexSupportTable.obj
 0002:00005060       __xmm@2b8cbccc2b8cbccc2b8cbccc2b8cbccc 00000001801fc060     GuDistancePointTriangle.obj
 0002:000050d0       __real@2b8cbccc            00000001801fc0d0     GuDistanceSegmentTriangle.obj
 0002:000050e0       __xmm@3f8000013f8000013f8000013f800001 00000001801fc0e0     GuDistanceSegmentTriangle.obj
 0002:000050f0       __xmm@b4000000b4000000b4000000b4000000 00000001801fc0f0     GuDistanceSegmentTriangle.obj
 0002:00005120       __real@26901d7d            00000001801fc120     GuDistanceTriangleTriangle.obj
 0002:000051a0       __xmm@38d1b71738d1b71738d1b71738d1b717 00000001801fc1a0     GuGJKSimplex.obj
 0002:000051d0       ??_C@_0O@PBAKPCEC@PxHeightField@ 00000001801fc1d0     GuHeightField.obj
 0002:000051e0       ??_C@_0DN@JFJPHJHF@D?3?2Coding?2physx?2PhysX?2physx?2inc@ 00000001801fc1e0     GuHeightField.obj
 0002:00005220       ??_7HeightField@Gu@physx@@6B@ 00000001801fc220     GuHeightField.obj
 0002:000052d8       ??_C@_0DC@BDMMBOKH@PxHeightField?3?3release?3?5double?5@ 00000001801fc2d8     GuHeightField.obj
 0002:00005310       ??_C@_0DF@LLAFPPKJ@Gu?3?3HeightField?3?3modifySamples?3@ 00000001801fc310     GuHeightField.obj
 0002:00005350       ??_C@_0EG@BGKCOCFJ@D?3?2Coding?2physx?2PhysX?2physx?2sou@ 00000001801fc350     GuHeightField.obj
 0002:00005398       ??_C@_0CI@DMKEKGNK@Gu?3?3HeightField?3?3load?3?5PX_ALLOC@ 00000001801fc398     GuHeightField.obj
 0002:000053c0       ??_C@_0DG@LACOBMDE@Gu?3?3HeightField?3?3loadFromDesc?3?5@ 00000001801fc3c0     GuHeightField.obj
 0002:00005420       ??_C@_0DH@EJDJIMCB@HeightFieldShape?3?3getTriangle?3?5@ 00000001801fc420     GuHeightFieldUtil.obj
 0002:00005460       ??_C@_0EK@NKPAIJDF@D?3?2Coding?2physx?2PhysX?2physx?2sou@ 00000001801fc460     GuHeightFieldUtil.obj
 0002:000054ac       __real@3a03126f            00000001801fc4ac     GuHeightFieldUtil.obj
 0002:000054b0       __real@3f19999a            00000001801fc4b0     GuHeightFieldUtil.obj
 0002:000054c0       __xmm@40000000000000000000000000000000 00000001801fc4c0     GuHeightFieldUtil.obj
 0002:00005550       ??_7HeightFieldTraceSegmentReport@@6B@ 00000001801fc550     GuSweepsHF.obj
 0002:00005560       ??_7CapsuleTraceSegmentReport@@6B@ 00000001801fc560     GuSweepsHF.obj
 0002:00005570       ??_7ConvexTraceSegmentReport@@6B@ 00000001801fc570     GuSweepsHF.obj
 0002:00005580       ??_7BoxTraceSegmentReport@@6B@ 00000001801fc580     GuSweepsHF.obj
 0002:00005590       __real@aedbe6ff            00000001801fc590     GuSweepsHF.obj
 0002:000055c0       __real@3089705f            00000001801fc5c0     GuIntersectionRayBox.obj
 0002:000055c4       __real@b4000000            00000001801fc5c4     GuIntersectionRayBox.obj
 0002:000055d0       __xmm@000000003089705f3089705f3089705f 00000001801fc5d0     GuIntersectionRayBox.obj
 0002:000055e0       __xmm@00000000bf800000bf800000bf800000 00000001801fc5e0     GuIntersectionRayBox.obj
 0002:00005630       ??_7SourceMeshBase@Gu@physx@@6B@ 00000001801fc630     GuBV4.obj
 0002:00005658       ??_7SourceMesh@Gu@physx@@6B@ 00000001801fc658     GuBV4.obj
 0002:00005680       ??_7TetrahedronSourceMesh@Gu@physx@@6B@ 00000001801fc680     GuBV4.obj
 0002:000056b0       ??_C@_0EA@IEGFHAPI@D?3?2Coding?2physx?2PhysX?2physx?2sou@ 00000001801fc6b0     GuBV4.obj
 0002:00005710       ??_C@_0EF@GKMKHJFJ@D?3?2Coding?2physx?2PhysX?2physx?2sou@ 00000001801fc710     GuBV4Build.obj
 0002:00005758       __real@38000100            00000001801fc758     GuBV4Build.obj
 0002:0000575c       __real@3e93cd3a            00000001801fc75c     GuBV4Build.obj
 0002:00005760       __real@46fffe00            00000001801fc760     GuBV4Build.obj
 0002:00005764       __real@be93cd3a            00000001801fc764     GuBV4Build.obj
 0002:00005790       __xmm@0000ffff0000ffff0000ffff0000ffff 00000001801fc790     GuBV4_AABBSweep.obj
 0002:000057a0       __xmm@3089705f3089705f3089705f3089705f 00000001801fc7a0     GuBV4_AABBSweep.obj
 0002:000057b0       __xmm@33d6bf9533d6bf9533d6bf9533d6bf95 00000001801fc7b0     GuBV4_AABBSweep.obj
 0002:000057c0       __xmm@40000000400000004000000040000000 00000001801fc7c0     GuBV4_AABBSweep.obj
 0002:00005850       __xmm@322bcc77322bcc77322bcc77322bcc77 00000001801fc850     GuBV4_MeshMeshOverlap.obj
 0002:000058c0       __real@4f7fffff            00000001801fc8c0     GuBV4_SphereOverlap.obj
 0002:000059a0       __xmm@000000007f7fffff0000000000000000 00000001801fc9a0     GuMidphaseBV4.obj
 0002:00005a70       ??_C@_0DK@FFHPKGEP@PxMeshQuery?3?3getTriangle?3?5trian@ 00000001801fca70     GuMeshQuery.obj
 0002:00005ab0       ??_C@_0EG@BFEKBKDC@D?3?2Coding?2physx?2PhysX?2physx?2sou@ 00000001801fcab0     GuMeshQuery.obj
 0002:00005b00       ??_C@_0FD@EHCCILIF@Adjacency?5information?5not?5creat@ 00000001801fcb00     GuMeshQuery.obj
 0002:00005b60       ??_C@_0FA@MCAAGAGM@findOverlapTriangleMesh?3?5Only?5b@ 00000001801fcb60     GuMeshQuery.obj
 0002:00005bb0       ??_C@_0FL@BKNMAHIA@PxMeshQuery?3?3findOverlapTriangl@ 00000001801fcbb0     GuMeshQuery.obj
 0002:00005c10       ??_C@_0EM@BEFNLPHI@findOverlapHeightField?3?5Only?5bo@ 00000001801fcc10     GuMeshQuery.obj
 0002:00005c60       ??_C@_0CJ@NLNHIMDM@PxMeshQuery?3?3sweep?$CI?$CJ?3?5pose?5is?5n@ 00000001801fcc60     GuMeshQuery.obj
 0002:00005c90       ??_C@_0CM@BFKJPOOO@PxMeshQuery?3?3sweep?$CI?$CJ?3?5unitDir?5i@ 00000001801fcc90     GuMeshQuery.obj
 0002:00005cc0       ??_C@_0CN@JKBDLLPP@PxMeshQuery?3?3sweep?$CI?$CJ?3?5distance?5@ 00000001801fccc0     GuMeshQuery.obj
 0002:00005cf0       ??_C@_0DN@DPNNFGGF@PxMeshQuery?3?3sweep?$CI?$CJ?3?5sweep?5dis@ 00000001801fccf0     GuMeshQuery.obj
 0002:00005d30       ??_C@_0BA@MBAFFELP@MeshQuery?4sweep@ 00000001801fcd30     GuMeshQuery.obj
 0002:00005d40       ??_C@_0FJ@GNAHJJCM@PxMeshQuery?3?3sweep?$CI?$CJ?3?5geometry?5@ 00000001801fcd40     GuMeshQuery.obj
 0002:00005d9c       __real@4cbebc20            00000001801fcd9c     GuMeshQuery.obj
 0002:00005e50       ??_7Callback@RTree@Gu@physx@@6B@ 00000001801fce50     GuMidphaseRTree.obj
 0002:00005e68       ??_7?$RayRTreeCallback@$00$0A@@@6BCallbackRaycast@RTree@Gu@physx@@@ 00000001801fce68     GuMidphaseRTree.obj
 0002:00005e68       ??_7?$RayRTreeCallback@$0A@$0A@@@6BCallbackRaycast@RTree@Gu@physx@@@ 00000001801fce68     GuMidphaseRTree.obj
 0002:00005e78       ??_7?$RayRTreeCallback@$0A@$0A@@@6BCallback@RTree@Gu@physx@@@ 00000001801fce78     GuMidphaseRTree.obj
 0002:00005e78       ??_7?$RayRTreeCallback@$00$0A@@@6BCallback@RTree@Gu@physx@@@ 00000001801fce78     GuMidphaseRTree.obj
 0002:00005e90       ??_7RayMeshColliderCallback@@6B@ 00000001801fce90     GuMidphaseRTree.obj
 0002:00005ea0       ??_C@_0EN@DPPFLBLF@Point?9mesh?5distance?5query?5not?5s@ 00000001801fcea0     GuMidphaseRTree.obj
 0002:00005ef0       ??_C@_0EK@BEFDDOMA@D?3?2Coding?2physx?2PhysX?2physx?2sou@ 00000001801fcef0     GuMidphaseRTree.obj
 0002:00005f40       ??_7?$RayRTreeCallback@$0A@$00@@6BCallbackRaycast@RTree@Gu@physx@@@ 00000001801fcf40     GuMidphaseRTree.obj
 0002:00005f50       ??_7?$RayRTreeCallback@$0A@$00@@6BCallback@RTree@Gu@physx@@@ 00000001801fcf50     GuMidphaseRTree.obj
 0002:00005f68       ??_7?$RayRTreeCallback@$00$00@@6BCallbackRaycast@RTree@Gu@physx@@@ 00000001801fcf68     GuMidphaseRTree.obj
 0002:00005f78       ??_7?$RayRTreeCallback@$00$00@@6BCallback@RTree@Gu@physx@@@ 00000001801fcf78     GuMidphaseRTree.obj
 0002:00005ff0       __xmm@7f7fffff000000000000000000000000 00000001801fcff0     GuMidphaseRTree.obj
 0002:000060b0       ??_7PxReportCallbackBase@physx@@6B@ 00000001801fd0b0     GuOverlapTestsMesh.obj
 0002:000060e0       ??_C@_0EP@CEFGCJKJ@PxGeometryQuery?3?3overlap?$CI?$CJ?3?5onl@ 00000001801fd0e0     GuOverlapTestsMesh.obj
 0002:00006130       ??_C@_0EN@BIFCGMIE@D?3?2Coding?2physx?2PhysX?2physx?2sou@ 00000001801fd130     GuOverlapTestsMesh.obj
 0002:000061a0       ?MN@RTreePage@Gu@physx@@2MB 00000001801fd1a0     GuRTree.obj
 0002:000061a4       ?MX@RTreePage@Gu@physx@@2MB 00000001801fd1a4     GuRTree.obj
 0002:000061c0       ??_C@_0EC@EENOKGAL@D?3?2Coding?2physx?2PhysX?2physx?2sou@ 00000001801fd1c0     GuRTree.obj
 0002:000062e0       ??_7SweepShapeMeshHitCallback@Gu@physx@@6B@ 00000001801fd2e0     GuSweepsMesh.obj
 0002:000062f0       ??_7SweepCapsuleMeshHitCallback@Gu@physx@@6B@ 00000001801fd2f0     GuSweepsMesh.obj
 0002:00006300       ??_7SweepBoxMeshHitCallback@Gu@physx@@6B@ 00000001801fd300     GuSweepsMesh.obj
 0002:00006310       ??_7SweepConvexMeshHitCallback@Gu@physx@@6B@ 00000001801fd310     GuSweepsMesh.obj
 0002:000063d0       ??_C@_0P@GGNFNHKF@PxTriangleMesh@ 00000001801fd3d0     GuTriangleMesh.obj
 0002:000063e0       ??_C@_0DO@MHKCIIGK@D?3?2Coding?2physx?2PhysX?2physx?2inc@ 00000001801fd3e0     GuTriangleMesh.obj
 0002:00006420       ??_7TriangleMesh@Gu@physx@@6B@ 00000001801fd420     GuTriangleMesh.obj
 0002:000064f8       ??_C@_0DD@LOOPMCGG@PxTriangleMesh?3?3release?3?5double@ 00000001801fd4f8     GuTriangleMesh.obj
 0002:00006530       ??_C@_0FH@PMPAJDGI@PxTriangleMesh?3?3getVerticesForM@ 00000001801fd530     GuTriangleMesh.obj
 0002:00006590       ??_C@_0EJ@MFNDCBDN@D?3?2Coding?2physx?2PhysX?2physx?2sou@ 00000001801fd590     GuTriangleMesh.obj
 0002:000065e0       ??_C@_0EF@GMNFLDH@PxTriangleMesh?3?3refitBVH?$CI?$CJ?5is?5n@ 00000001801fd5e0     GuTriangleMesh.obj
 0002:00006630       __xmm@38383838383838383838383838383838 00000001801fd630     GuTriangleMesh.obj
 0002:00006660       ??_C@_0BE@CNJKIINO@PxBVH34TriangleMesh@ 00000001801fd660     GuTriangleMeshBV4.obj
 0002:00006678       ??_7BV4TriangleMesh@Gu@physx@@6B@ 00000001801fd678     GuTriangleMeshBV4.obj
 0002:00006750       ??_C@_0EF@JLFNNPLP@BVH34?5trees?3?5refit?5operation?5on@ 00000001801fd750     GuTriangleMeshBV4.obj
 0002:000067a0       ??_C@_0EM@IDFOKPBB@D?3?2Coding?2physx?2PhysX?2physx?2sou@ 00000001801fd7a0     GuTriangleMeshBV4.obj
 0002:000067ec       __real@3951b717            00000001801fd7ec     GuTriangleMeshBV4.obj
 0002:00006810       ??_C@_0BE@EIFHCCBO@PxBVH33TriangleMesh@ 00000001801fd810     GuTriangleMeshRTree.obj
 0002:00006828       ??_7RTreeTriangleMesh@Gu@physx@@6B@ 00000001801fd828     GuTriangleMeshRTree.obj
 0002:00006900       ??_7?$RefitCallback@G@physx@@6B@ 00000001801fd900     GuTriangleMeshRTree.obj
 0002:00006910       ??_7?$RefitCallback@I@physx@@6B@ 00000001801fd910     GuTriangleMeshRTree.obj
 0002:00006940       ??_C@_0EB@MPKBPOEP@D?3?2Coding?2physx?2PhysX?2physx?2sou@ 00000001801fd940     GuBV32.obj
 0002:000069b0       ??_C@_0EG@EAIAMEAH@D?3?2Coding?2physx?2PhysX?2physx?2sou@ 00000001801fd9b0     GuBV32Build.obj
 0002:00006ab0       ??_C@_0BC@FDAIDHBP@PxTetrahedronMesh@ 00000001801fdab0     GuTetrahedronMesh.obj
 0002:00006ad0       ??_C@_0EB@ELJHBOJM@D?3?2Coding?2physx?2PhysX?2physx?2inc@ 00000001801fdad0     GuTetrahedronMesh.obj
 0002:00006b18       ??_C@_0BK@EPBIEMIB@PxDeformableVolumeAuxData@ 00000001801fdb18     GuTetrahedronMesh.obj
 0002:00006b38       ??_C@_0BH@OHONILPI@PxDeformableVolumeMesh@ 00000001801fdb38     GuTetrahedronMesh.obj
 0002:00006b50       ??_7DeformableVolumeAuxData@Gu@physx@@6B@ 00000001801fdb50     GuTetrahedronMesh.obj
 0002:00006b98       ??_7TetrahedronMesh@Gu@physx@@6B@ 00000001801fdb98     GuTetrahedronMesh.obj
 0002:00006c10       ??_7BVTetrahedronMesh@Gu@physx@@6B@ 00000001801fdc10     GuTetrahedronMesh.obj
 0002:00006c88       ??_7DeformableVolumeMesh@Gu@physx@@6B@ 00000001801fdc88     GuTetrahedronMesh.obj
 0002:00006d08       ??_C@_0DG@JJNMDPMD@PxTetrahedronMesh?3?3release?3?5dou@ 00000001801fdd08     GuTetrahedronMesh.obj
 0002:00006d40       ??_C@_0DL@IHNCIOFH@PxDeformableVolumeMesh?3?3release@ 00000001801fdd40     GuTetrahedronMesh.obj
 0002:00006d80       ??_C@_0EM@GBBNEFIF@D?3?2Coding?2physx?2PhysX?2physx?2sou@ 00000001801fdd80     GuTetrahedronMesh.obj
 0002:00006e10       __xmm@00000000358637bd358637bd358637bd 00000001801fde10     GuPCMContactBoxBox.obj
 0002:00006e20       __xmm@3f4ccccd3f4ccccd3f4ccccd3f4ccccd 00000001801fde20     GuPCMContactBoxBox.obj
 0002:00006e30       __xmm@3f8003473f8003473f8003473f800347 00000001801fde30     GuPCMContactBoxBox.obj
 0002:00006e40       __xmm@ffffffff00000000ffffffffffffffff 00000001801fde40     GuPCMContactBoxBox.obj
 0002:00006e70       ??_7?$LocalConvex@VConvexHullNoScaleV@Gu@physx@@@Gu@physx@@6B@ 00000001801fde70     GuPCMContactBoxConvex.obj
 0002:00006ea0       __xmm@3f3504f33f3504f33f3504f33f3504f3 00000001801fdea0     GuPCMContactBoxConvex.obj
 0002:00006ef0       __xmm@ffffffffffffffffffffffff00000000 00000001801fdef0     GuPCMContactCapsuleCapsule.obj
 0002:00006f20       __xmm@3fa000003fa000003fa000003fa00000 00000001801fdf20     GuPCMContactCapsuleConvex.obj
 0002:00006fe0       ??_7PCMCapsuleVsHeightfieldContactGenerationCallback@@6B@ 00000001801fdfe0     GuPCMContactCapsuleHeightField.obj
 0002:00006ff0       __real@3f7f3b64            00000001801fdff0     GuPCMContactCapsuleHeightField.obj
 0002:000070c0       __xmm@3f7ff9723f7ff9723f7ff9723f7ff972 00000001801fe0c0     GuPCMContactCapsuleMesh.obj
 0002:000070d0       __xmm@3f7fffef3f7fffef3f7fffef3f7fffef 00000001801fe0d0     GuPCMContactCapsuleMesh.obj
 0002:000070e0       __xmm@60ad78ec60ad78ec60ad78ec60ad78ec 00000001801fe0e0     GuPCMContactCapsuleMesh.obj
 0002:00007110       ??_7?$SupportLocalImpl@VTriangleV@Gu@physx@@@Gu@physx@@6B@ 00000001801fe110     GuPCMContactConvexCommon.obj
 0002:00007130       __xmm@3cf5c2803cf5c2803cf5c2803cf5c280 00000001801fe130     GuPCMContactConvexCommon.obj
 0002:00007140       __xmm@3f7851ec3f7851ec3f7851ec3f7851ec 00000001801fe140     GuPCMContactConvexCommon.obj
 0002:00007170       ??_7?$RelativeConvex@VConvexHullNoScaleV@Gu@physx@@@Gu@physx@@6B@ 00000001801fe170     GuPCMContactConvexConvex.obj
 0002:00007260       __xmm@3f19999a3f19999a3f19999a3f19999a 00000001801fe260     GuPCMContactConvexHeightField.obj
 0002:00007350       __xmm@3f34fdf43f34fdf43f34fdf43f34fdf4 00000001801fe350     GuPCMContactGenBoxConvex.obj
 0002:00007380       __xmm@3f80a3d73f80a3d73f80a3d73f80a3d7 00000001801fe380     GuPCMContactGenSphereCapsule.obj
 0002:00007390       __xmm@bba3d70abba3d70abba3d70abba3d70a 00000001801fe390     GuPCMContactGenSphereCapsule.obj
 0002:000073c0       __xmm@3f7ffd613f7ffd613f7ffd613f7ffd61 00000001801fe3c0     GuPCMContactPlaneBox.obj
 0002:000073f0       __real@3b23d70b            00000001801fe3f0     GuPCMContactPlaneCapsule.obj
 0002:00007400       __xmm@3ca3d70a3ca3d70a3ca3d70a3ca3d70a 00000001801fe400     GuPCMContactPlaneCapsule.obj
 0002:00007430       __xmm@3a03126f3a03126f3a03126f3a03126f 00000001801fe430     GuPCMContactPlaneConvex.obj
 0002:00007660       __xmm@3727c5ac3727c5ac3727c5ac3727c5ac 00000001801fe660     GuPCMContactSphereSphere.obj
 0002:00007690       __xmm@3f7f06f73f7f06f73f7f06f73f7f06f7 00000001801fe690     GuPCMContactCustomGeometry.obj
 0002:000076b0       ?gPCMBoxPolygonData@Gu@physx@@3QBEB 00000001801fe6b0     GuPCMShapeConvex.obj
 0002:00007710       ?invalidateThresholds@Gu@physx@@3QBMB 00000001801fe710     GuPersistentContactManifold.obj
 0002:00007728       ?invalidateQuatThresholds@Gu@physx@@3QBMB 00000001801fe728     GuPersistentContactManifold.obj
 0002:00007740       ?invalidateThresholds2@Gu@physx@@3QBMB 00000001801fe740     GuPersistentContactManifold.obj
 0002:00007750       ?invalidateQuatThresholds2@Gu@physx@@3QBMB 00000001801fe750     GuPersistentContactManifold.obj
 0002:00007770       __xmm@00000000340000003400000034000000 00000001801fe770     GuPersistentContactManifold.obj
 0002:00007780       __xmm@000000003f8000003f80000000000000 00000001801fe780     GuPersistentContactManifold.obj
 0002:00007790       __xmm@00000000bf8000003f80000000000000 00000001801fe790     GuPersistentContactManifold.obj
 0002:000077a0       __xmm@ffffffffffffffff00000000ffffffff 00000001801fe7a0     GuPersistentContactManifold.obj
 0002:000077d0       __xmm@c1200000c1200000c1200000c1200000 00000001801fe7d0     GuPCMContactGenUtil.obj
 0002:00007920       ??_C@_0CH@DHJGKCPD@Gu?3?3computeBounds?3?5Unknown?5shap@ 00000001801fe920     GuBounds.obj
 0002:00007948       ??_C@_0DO@KLKCLCG@D?3?2Coding?2physx?2PhysX?2physx?2sou@ 00000001801fe948     GuBounds.obj
 0002:00007988       __real@34800000            00000001801fe988     GuBounds.obj
 0002:0000798c       __real@3f7fffef            00000001801fe98c     GuBounds.obj
 0002:00007990       __xmm@3f800000800000008000000080000000 00000001801fe990     GuBounds.obj
 0002:000079a0       __xmm@3f8147ae3f8147ae3f8147ae3f8147ae 00000001801fe9a0     GuBounds.obj
 0002:000079d0       ??_C@_0EA@LLBHDDJI@D?3?2Coding?2physx?2PhysX?2physx?2sou@ 00000001801fe9d0     GuAABBTree.obj
 0002:00007a10       __xmm@5a60b17f5a60b17f5a60b17f5a60b17f 00000001801fea10     GuAABBTree.obj
 0002:00007a20       __xmm@da60b17fda60b17fda60b17fda60b17f 00000001801fea20     GuAABBTree.obj
 0002:00007a90       ??_C@_0EL@ONONOKEA@D?3?2Coding?2physx?2PhysX?2physx?2sou@ 00000001801fea90     GuIncrementalAABBTree.obj
 0002:00007ae0       ??_C@_0DI@PJHPBLLL@D?3?2Coding?2physx?2PhysX?2physx?2inc@ 00000001801feae0     GuIncrementalAABBTree.obj
 0002:00007b18       ??_C@_0DL@JCDLFCFB@D?3?2Coding?2physx?2PhysX?2physx?2sou@ 00000001801feb18     GuSAH.obj
 0002:00007b80       ??_7PxBVH@physx@@6B@       00000001801feb80     GuBVH.obj
 0002:00007bf8       ??_C@_05OKJNPKBM@PxBVH@    00000001801febf8     GuBVH.obj
 0002:00007c00       ??_C@_0DF@HKIOIIE@D?3?2Coding?2physx?2PhysX?2physx?2inc@ 00000001801fec00     GuBVH.obj
 0002:00007c38       ??_7RefCountable@Cm@physx@@6B@ 00000001801fec38     GuBVH.obj
 0002:00007c48       ??_7BVH@Gu@physx@@6BPxBVH@2@@ 00000001801fec48     GuBVH.obj
 0002:00007cc0       ??_7BVH@Gu@physx@@6BRefCountable@Cm@2@@ 00000001801fecc0     GuBVH.obj
 0002:00007cd0       ??_C@_0DL@IAFDMBKE@D?3?2Coding?2physx?2PhysX?2physx?2sou@ 00000001801fecd0     GuBVH.obj
 0002:00007d10       ??_C@_0CK@HAIOEINI@PxBVH?3?3release?3?5double?5deletion@ 00000001801fed10     GuBVH.obj
 0002:00007d60       ??_C@_0FB@CHLKEEJL@D?3?2Coding?2physx?2PhysX?2physx?2sou@ 00000001801fed60     GuIncrementalAABBPrunerCore.obj
 0002:00007db4       __real@3f80a3d7            00000001801fedb4     GuIncrementalAABBPrunerCore.obj
 0002:00007de0       ??_7BasePruner@Gu@physx@@6B@ 00000001801fede0     GuIncrementalAABBPruner.obj
 0002:00007df8       ??_7IncrementalAABBPruner@Gu@physx@@6B@ 00000001801fedf8     GuIncrementalAABBPruner.obj
 0002:00007e80       ??_C@_0BM@FLAABPLG@SceneQuery?4prunerAddObjects@ 00000001801fee80     GuIncrementalAABBPruner.obj
 0002:00007ea0       ??_C@_0BP@EAAOKPEE@SceneQuery?4prunerUpdateObjects@ 00000001801feea0     GuIncrementalAABBPruner.obj
 0002:00007ec0       ??_C@_0BP@EHMBNBOH@SceneQuery?4prunerRemoveObjects@ 00000001801feec0     GuIncrementalAABBPruner.obj
 0002:00007ee0       ??_C@_0BI@HOKOKBIM@SceneQuery?4prunerCommit@ 00000001801feee0     GuIncrementalAABBPruner.obj
 0002:00007f00       ??_C@_0EN@MBBCOMOL@D?3?2Coding?2physx?2PhysX?2physx?2sou@ 00000001801fef00     GuIncrementalAABBPruner.obj
 0002:00007f70       ??_C@_0BE@PKINCBHP@PruningPool?3?3resize@ 00000001801fef70     GuPruningPool.obj
 0002:00007f90       ??_C@_0ED@DLDGBHJJ@D?3?2Coding?2physx?2PhysX?2physx?2sou@ 00000001801fef90     GuPruningPool.obj
 0002:00007fd8       ??_C@_0BI@HMDEMGJB@PruningPool?3?3addObjects@ 00000001801fefd8     GuPruningPool.obj
 0002:00007ff0       ??_C@_0BK@JPNIEHEJ@PruningPool?3?3removeObject@ 00000001801feff0     GuPruningPool.obj
 0002:00008010       ??_C@_0BJ@GNLAFFBD@PruningPool?3?3shiftOrigin@ 00000001801ff010     GuPruningPool.obj
 0002:00008030       ??_C@_0CE@MGPCCKGE@PruningPool?3?3updateAndInflateBo@ 00000001801ff030     GuPruningPool.obj
 0002:000080a0       ??_7BucketPruner@Gu@physx@@6B@ 00000001801ff0a0     GuBucketPruner.obj
 0002:00008130       ??_C@_0EE@LFELKAKN@D?3?2Coding?2physx?2PhysX?2physx?2sou@ 00000001801ff130     GuBucketPruner.obj
 0002:00008180       __xmm@000000007e7fffff7e7fffff7e7fffff 00000001801ff180     GuBucketPruner.obj
 0002:00008190       __xmm@00000000fe7ffffffe7ffffffe7fffff 00000001801ff190     GuBucketPruner.obj
 0002:000081a0       __xmm@3f13cd3a3f13cd3a3f13cd3a3f13cd3a 00000001801ff1a0     GuBucketPruner.obj
 0002:000081b0       __xmm@bf13cd3abf13cd3abf13cd3a3f13cd3a 00000001801ff1b0     GuBucketPruner.obj
 0002:000081c0       ?mIndices@MaverickNode@Gu@physx@@2QBIB 00000001801ff1c0     GuMaverickNode.obj
 0002:00008220       ??_C@_0EM@DFFHIGGI@D?3?2Coding?2physx?2PhysX?2physx?2sou@ 00000001801ff220     GuExtendedBucketPruner.obj
 0002:00008290       ??_7CompanionPruner@Gu@physx@@6B@ 00000001801ff290     GuSecondaryPruner.obj
 0002:00008310       ??_7CompanionPrunerBucket@@6B@ 00000001801ff310     GuSecondaryPruner.obj
 0002:00008390       ??_7CompanionPrunerIncremental@@6B@ 00000001801ff390     GuSecondaryPruner.obj
 0002:00008410       ??_7CompanionPrunerAABBTree@@6B@ 00000001801ff410     GuSecondaryPruner.obj
 0002:00008490       ??_C@_0EH@FPNMMDBP@D?3?2Coding?2physx?2PhysX?2physx?2sou@ 00000001801ff490     GuSecondaryPruner.obj
 0002:00008500       ??_7AABBPruner@Gu@physx@@6B@ 00000001801ff500     GuAABBPruner.obj
 0002:000085a0       ??_C@_0CC@JANKLMNO@SceneQuery?4bucketPrunerAddObjec@ 00000001801ff5a0     GuAABBPruner.obj
 0002:000085d0       ??_C@_0LA@IHBEIKND@SceneQuery?5static?5AABB?5Tree?5reb@ 00000001801ff5d0     GuAABBPruner.obj
 0002:00008680       ??_C@_0EC@HHPMJPHG@D?3?2Coding?2physx?2PhysX?2physx?2sou@ 00000001801ff680     GuAABBPruner.obj
 0002:000086c8       ??_C@_0CB@JOCHAJIC@SceneQuery?4prunerNewTreeFinaliz@ 00000001801ff6c8     GuAABBPruner.obj
 0002:000086f0       ??_C@_0BP@IOICCIGM@SceneQuery?4prunerNewTreeSwitch@ 00000001801ff6f0     GuAABBPruner.obj
 0002:00008710       ??_C@_0CA@LJGALBJD@SceneQuery?4prunerNewTreeMapping@ 00000001801ff710     GuAABBPruner.obj
 0002:00008730       ??_C@_0CD@OCIEMIME@SceneQuery?4prunerNewTreeFinalRe@ 00000001801ff730     GuAABBPruner.obj
 0002:00008758       ??_C@_0CG@PMFEEPAE@SceneQuery?4prunerNewTreeRemoveO@ 00000001801ff758     GuAABBPruner.obj
 0002:00008780       ??_C@_0BL@NAENOAHO@SceneQuery?4prunerBuildStep@ 00000001801ff780     GuAABBPruner.obj
 0002:000087a0       ??_C@_0CC@MJCIDELA@SceneQuery?4prunerNewTreeFullRef@ 00000001801ff7a0     GuAABBPruner.obj
 0002:000087c8       ??_C@_0BI@DAHHAEPA@SceneQuery?4prepareBuild@ 00000001801ff7c8     GuAABBPruner.obj
 0002:000087e0       ??_C@_0CF@PDMDBIIO@SceneQuery?4prunerFullRebuildAAB@ 00000001801ff7e0     GuAABBPruner.obj
 0002:00008808       ??_C@_0CE@GKMPPEJP@SceneQuery?4prunerUpdateBucketPr@ 00000001801ff808     GuAABBPruner.obj
 0002:00008830       ??_C@_0CI@MKOHFNNO@SceneQuery?4prunerRefitUpdatedAn@ 00000001801ff830     GuAABBPruner.obj
 0002:00008860       ??_C@_0EF@GIHNCDIK@D?3?2Coding?2physx?2PhysX?2physx?2sou@ 00000001801ff860     GuActorShapeMap.obj
 0002:000088d0       ??_C@_0BF@DNABLJAF@Invalid?5pruner?5index@ 00000001801ff8d0     GuQuerySystem.obj
 0002:000088f0       ??_C@_0ED@GFFAOPBD@D?3?2Coding?2physx?2PhysX?2physx?2sou@ 00000001801ff8f0     GuQuerySystem.obj
 0002:00008938       ??_C@_0BO@MMDENGGP@QuerySystem?4processDirtyLists@ 00000001801ff938     GuQuerySystem.obj
 0002:00008958       ??_C@_0BE@PHJMAGEL@QuerySystem?3?3update@ 00000001801ff958     GuQuerySystem.obj
 0002:00008970       ??_C@_0BK@GODFCMPK@QuerySystem?4commitUpdates@ 00000001801ff970     GuQuerySystem.obj
 0002:000089c0       ??_C@_0CA@NAJNANMC@QuerySystem?4createTreeOfPruners@ 00000001801ff9c0     GuQuerySystem.obj
 0002:00008a00       ??_C@_0DP@LHEPCEDN@D?3?2Coding?2physx?2PhysX?2physx?2sou@ 00000001801ffa00     GuFactory.obj
 0002:00008a40       ?reductionFactors@SubSortQuick@physx@@2QBMB 00000001801ffa40     GuRTreeCooking.obj
 0002:00008a50       ?stopAtTrisPerLeaf1@SubSortQuick@physx@@2QBIB 00000001801ffa50     GuRTreeCooking.obj
 0002:00008b20       ??_C@_0EM@NDIDMMJN@D?3?2Coding?2physx?2PhysX?2physx?2sou@ 00000001801ffb20     GuRTreeCooking.obj
 0002:00008b6c       __real@41100000            00000001801ffb6c     GuRTreeCooking.obj
 0002:00008b70       __real@41700000            00000001801ffb70     GuRTreeCooking.obj
 0002:00008b74       __real@42200000            00000001801ffb74     GuRTreeCooking.obj
 0002:00008b80       __xmm@00000004000000030000000200000001 00000001801ffb80     GuRTreeCooking.obj
 0002:00008bb0       ??_C@_0EK@NCCCEHLA@D?3?2Coding?2physx?2PhysX?2physx?2sou@ 00000001801ffbb0     GuCookingBVH.obj
 0002:00008c00       ??_C@_0DL@JHPKHGFA@Cooking?3?3cookBVH?3?5user?9provided@ 00000001801ffc00     GuCookingBVH.obj
 0002:00008c40       ??_C@_0DN@PLNPGFEB@Cooking?3?3createBVH?3?5user?9provid@ 00000001801ffc40     GuCookingBVH.obj
 0002:00008c80       ??_C@_0EL@JCJBAPHL@Cooking?3?3cookHeightField?3?5user?9@ 00000001801ffc80     GuCookingHF.obj
 0002:00008cd0       ??_C@_0EJ@LJANHOOL@D?3?2Coding?2physx?2PhysX?2physx?2sou@ 00000001801ffcd0     GuCookingHF.obj
 0002:00008d20       ??_C@_0EN@FCEPCAFC@Cooking?3?3createHeightField?3?5use@ 00000001801ffd20     GuCookingHF.obj
 0002:00008d70       ??_C@_0EK@EKAIJEBL@Cooking?3?3cookConvexMesh?3?5user?9p@ 00000001801ffd70     GuCookingConvexMesh.obj
 0002:00008dc0       ??_C@_0FA@GFFGAPML@Cooking?3?3cookConvexMesh?3?5provid@ 00000001801ffdc0     GuCookingConvexMesh.obj
 0002:00008e10       ??_C@_0EP@PKDCPNNO@Cooking?3?3cookConvexMesh?3?5provid@ 00000001801ffe10     GuCookingConvexMesh.obj
 0002:00008e60       ??_C@_0EO@LKFMMDE@Cooking?3?3cookConvexMesh?3?5user?9p@ 00000001801ffe60     GuCookingConvexMesh.obj
 0002:00008eb0       ??_C@_0EL@KJEPJALG@Cooking?3?3cookConvexMesh?3?5user?9p@ 00000001801ffeb0     GuCookingConvexMesh.obj
 0002:00008f00       ??_C@_0FM@LHMEBKMM@Cooking?3?3cookConvexMesh?3?5GPU?9co@ 00000001801fff00     GuCookingConvexMesh.obj
 0002:00008f60       ??_C@_0FJ@FHCFFABE@Cooking?3?3cookConvexMesh?3?5GPU?9co@ 00000001801fff60     GuCookingConvexMesh.obj
 0002:00008fc0       ??_C@_0LM@CHONPBFM@Cooking?3?3cookConvexMesh?3?5GPU?9co@ 00000001801fffc0     GuCookingConvexMesh.obj
 0002:00009080       ??_C@_0FB@DJHPDMIG@D?3?2Coding?2physx?2PhysX?2physx?2sou@ 0000000180200080     GuCookingConvexMesh.obj
 0002:00009100       ??_7TriangleMeshBuilder@physx@@6B@ 0000000180200100     GuCookingTriangleMesh.obj
 0002:00009128       ??_7RTreeTriangleMeshBuilder@physx@@6B@ 0000000180200128     GuCookingTriangleMesh.obj
 0002:00009150       ??_7BV4TriangleMeshBuilder@physx@@6B@ 0000000180200150     GuCookingTriangleMesh.obj
 0002:00009180       ??_C@_0FD@DHEDAJBD@D?3?2Coding?2physx?2PhysX?2physx?2sou@ 0000000180200180     GuCookingTriangleMesh.obj
 0002:000091e0       ??_C@_0EM@DBPINPE@TriangleMeshBuilder?3?3cleanMesh?3@ 00000001802001e0     GuCookingTriangleMesh.obj
 0002:00009230       ??_C@_0EF@MLNDPEDJ@TriangleMeshBuilder?3?3cleanMesh?3@ 0000000180200230     GuCookingTriangleMesh.obj
 0002:00009280       ??_C@_0FJ@HHJLKGDF@TriangleMesh?3?5triangles?5are?5too@ 0000000180200280     GuCookingTriangleMesh.obj
 0002:000092e0       ??_C@_0CN@KGPHHHLK@TriangleMesh?3?5mesh?5is?5too?5big?5f@ 00000001802002e0     GuCookingTriangleMesh.obj
 0002:00009310       ??_C@_0DD@CMJGDCNN@TriangleMesh?3?3loadFromDesc?3?5des@ 0000000180200310     GuCookingTriangleMesh.obj
 0002:00009350       ??_C@_0ED@ILJJNHIP@TriangleMesh?3?3loadFromDesc?3?5mPa@ 0000000180200350     GuCookingTriangleMesh.obj
 0002:00009398       ??_C@_0CK@BJFFGDPK@input?5mesh?5contains?5corrupted?5v@ 0000000180200398     GuCookingTriangleMesh.obj
 0002:000093d0       ??_C@_0EP@FHJBNFFH@Requesting?5SDF?5for?5mesh?5without@ 00000001802003d0     GuCookingTriangleMesh.obj
 0002:00009420       ??_C@_0CC@BPIMLJA@input?5sdf?5contains?5corrupted?5da@ 0000000180200420     GuCookingTriangleMesh.obj
 0002:00009448       ??_C@_0BK@JIDHMMCE@BV4?5tree?5failed?5to?5build?4@ 0000000180200448     GuCookingTriangleMesh.obj
 0002:00009468       ??_C@_0BL@DHNECNBE@BV32?5tree?5failed?5to?5build?4@ 0000000180200468     GuCookingTriangleMesh.obj
 0002:00009488       ??_7RTreeCookerRemap@@6B@  0000000180200488     GuCookingTriangleMesh.obj
 0002:000094a0       ??_C@_0FC@PJIHAFK@Cooking?3?3validateTriangleMesh?3?5@ 00000001802004a0     GuCookingTriangleMesh.obj
 0002:00009580       ??_7PxCollisionTetrahedronMeshData@physx@@6B@ 0000000180200580     GuCookingTetrahedronMesh.obj
 0002:000095b0       ??_7PxSimulationTetrahedronMeshData@physx@@6B@ 00000001802005b0     GuCookingTetrahedronMesh.obj
 0002:000095d0       ??_7CollisionTetrahedronMeshData@Gu@physx@@6B@ 00000001802005d0     GuCookingTetrahedronMesh.obj
 0002:00009600       ??_7SimulationTetrahedronMeshData@Gu@physx@@6B@ 0000000180200600     GuCookingTetrahedronMesh.obj
 0002:00009620       ??_C@_0FG@POJMBDHD@D?3?2Coding?2physx?2PhysX?2physx?2sou@ 0000000180200620     GuCookingTetrahedronMesh.obj
 0002:00009678       ??_7?$LocalConvex@VTetrahedronV@Gu@physx@@@Gu@physx@@6B@ 0000000180200678     GuCookingTetrahedronMesh.obj
 0002:000096a8       ??_C@_0CD@OJGNHLOE@BV4_AABBTree?5tree?5failed?5to?5bui@ 00000001802006a8     GuCookingTetrahedronMesh.obj
 0002:000096d0       ??_C@_0DG@NCNIEEHB@TetrahedronMesh?3?3loadFromDesc?3?5@ 00000001802006d0     GuCookingTetrahedronMesh.obj
 0002:00009710       ??_C@_0EG@CJIFGLMC@TetrahedronMesh?3?3loadFromDesc?3?5@ 0000000180200710     GuCookingTetrahedronMesh.obj
 0002:00009758       __real@be2aaaab            0000000180200758     GuCookingTetrahedronMesh.obj
 0002:00009760       __xmm@00000003000000030000000300000003 0000000180200760     GuCookingTetrahedronMesh.obj
 0002:00009790       __real@3bc79ca10c924223    0000000180200790     GuCookingVolumeIntegration.obj
 0002:00009798       __real@3f91111111111111    0000000180200798     GuCookingVolumeIntegration.obj
 0002:000097a0       __real@3fa5555555555555    00000001802007a0     GuCookingVolumeIntegration.obj
 0002:000097a8       __real@3fa999999999999a    00000001802007a8     GuCookingVolumeIntegration.obj
 0002:000097b0       __real@3fb5555555555555    00000001802007b0     GuCookingVolumeIntegration.obj
 0002:000097b8       __real@3fc5555555555555    00000001802007b8     GuCookingVolumeIntegration.obj
 0002:000097c0       __real@3fd5555555555555    00000001802007c0     GuCookingVolumeIntegration.obj
 0002:000097c8       __real@3fe0000000000000    00000001802007c8     GuCookingVolumeIntegration.obj
 0002:000097d0       __real@3ff0000000000000    00000001802007d0     GuCookingVolumeIntegration.obj
 0002:000097d8       __real@4008000000000000    00000001802007d8     GuCookingVolumeIntegration.obj
 0002:000097e0       __real@4010000000000000    00000001802007e0     GuCookingVolumeIntegration.obj
 0002:000097e8       __real@bf91111111111111    00000001802007e8     GuCookingVolumeIntegration.obj
 0002:000097f0       __real@bfa999999999999a    00000001802007f0     GuCookingVolumeIntegration.obj
 0002:000097f8       __real@bfb5555555555555    00000001802007f8     GuCookingVolumeIntegration.obj
 0002:00009800       __real@bfc5555555555555    0000000180200800     GuCookingVolumeIntegration.obj
 0002:00009810       __xmm@3c0888893c0888893c0888893c088889 0000000180200810     GuCookingVolumeIntegration.obj
 0002:00009820       __xmm@3c8888893c8888893c8888893c888889 0000000180200820     GuCookingVolumeIntegration.obj
 0002:00009830       __xmm@3d2aaaab3d2aaaab3d2aaaab3d2aaaab 0000000180200830     GuCookingVolumeIntegration.obj
 0002:00009840       __xmm@3e2aaaab3e2aaaab3e2aaaab3e2aaaab 0000000180200840     GuCookingVolumeIntegration.obj
 0002:00009850       __xmm@3f811111111111113f81111111111111 0000000180200850     GuCookingVolumeIntegration.obj
 0002:00009860       __xmm@3f811111111111113f91111111111111 0000000180200860     GuCookingVolumeIntegration.obj
 0002:00009870       __xmm@3f911111111111113f91111111111111 0000000180200870     GuCookingVolumeIntegration.obj
 0002:00009880       __xmm@3fa55555555555553fa5555555555555 0000000180200880     GuCookingVolumeIntegration.obj
 0002:00009890       __xmm@3fa55555555555553fc5555555555555 0000000180200890     GuCookingVolumeIntegration.obj
 0002:000098a0       __xmm@7fffffffffffffff7fffffffffffffff 00000001802008a0     GuCookingVolumeIntegration.obj
 0002:000098b0       __xmm@80000000000000008000000000000000 00000001802008b0     GuCookingVolumeIntegration.obj
 0002:000098c0       ??_7ConvexHullLib@physx@@6B@ 00000001802008c0     GuCookingQuickHullConvexHullLib.obj
 0002:000098e0       ??_7QuickHullConvexHullLib@physx@@6B@ 00000001802008e0     GuCookingQuickHullConvexHullLib.obj
 0002:00009900       ??_C@_0FN@BHIGPLMK@D?3?2Coding?2physx?2PhysX?2physx?2sou@ 0000000180200900     GuCookingQuickHullConvexHullLib.obj
 0002:00009960       ??_C@_0GA@EPPAEJPM@QuickHullConvexHullLib?3?3findSim@ 0000000180200960     GuCookingQuickHullConvexHullLib.obj
 0002:000099c0       ??_C@_0FB@NEBIJMML@QuickHullConvexHullLib?3?3findSim@ 00000001802009c0     GuCookingQuickHullConvexHullLib.obj
 0002:00009a20       ??_C@_0FB@CLLCBEMM@QuickHullConvexHullLib?3?3findSim@ 0000000180200a20     GuCookingQuickHullConvexHullLib.obj
 0002:00009a74       __real@34c00000            0000000180200a74     GuCookingQuickHullConvexHullLib.obj
 0002:00009a78       ??_C@_0DP@PJBJBEGF@Meshmerizer?3?3extractHullPolygon@ 0000000180200a78     GuCookingConvexPolygonsBuilder.obj
 0002:00009ac0       ??_C@_0FM@LOFIKCFL@D?3?2Coding?2physx?2PhysX?2physx?2sou@ 0000000180200ac0     GuCookingConvexPolygonsBuilder.obj
 0002:00009b20       ??_C@_0DL@IAFKOCCK@ConvexHullBuilder?3?5convex?5hull?5@ 0000000180200b20     GuCookingConvexPolygonsBuilder.obj
 0002:00009b60       ??_C@_0GF@OJLJHAMH@ConvexHullBuilder?3?3CreateTriang@ 0000000180200b60     GuCookingConvexPolygonsBuilder.obj
 0002:00009bf0       ??_C@_0DF@LLFJIJGM@Gu?3?3ConvexMesh?3?3loadFromDesc?3?5d@ 0000000180200bf0     GuCookingConvexMeshBuilder.obj
 0002:00009c30       ??_C@_0HK@JOGKIEAA@Gu?3?3ConvexMesh?3?5Mesh?5has?5a?5nega@ 0000000180200c30     GuCookingConvexMeshBuilder.obj
 0002:00009cb0       ??_C@_0DH@NJPPHFFD@Gu?3?3ConvexMesh?3?5Error?5computing@ 0000000180200cb0     GuCookingConvexMeshBuilder.obj
 0002:00009ce8       ??_C@_0DJ@LJDLGLDJ@Gu?3?3ConvexMesh?3?3loadConvexHull?3@ 0000000180200ce8     GuCookingConvexMeshBuilder.obj
 0002:00009d30       ??_C@_0HJ@KJANPPOE@ConvexMeshBuilder?3?3computeHullP@ 0000000180200d30     GuCookingConvexMeshBuilder.obj
 0002:00009db0       ??_C@_0FI@HDOCFFIK@D?3?2Coding?2physx?2PhysX?2physx?2sou@ 0000000180200db0     GuCookingConvexMeshBuilder.obj
 0002:00009e08       ??_C@_06KDGGGLIJ@PxVec3@   0000000180200e08     GuCookingConvexMeshBuilder.obj
 0002:00009e10       ??_C@_05LMJPANIN@PxU32@    0000000180200e10     GuCookingConvexMeshBuilder.obj
 0002:00009e18       ??_C@_0O@JMAGMMGG@PxHullPolygon@ 0000000180200e18     GuCookingConvexMeshBuilder.obj
 0002:00009e28       __real@3f13cd3a            0000000180200e28     GuCookingConvexMeshBuilder.obj
 0002:00009e50       ??_C@_0FG@IPBLEDGI@D?3?2Coding?2physx?2PhysX?2physx?2sou@ 0000000180200e50     GuCookingConvexHullUtils.obj
 0002:00009ea8       __real@3e20d97c            0000000180200ea8     GuCookingConvexHullUtils.obj
 0002:00009eb0       ??_C@_0FE@EGDDCJBC@D?3?2Coding?2physx?2PhysX?2physx?2sou@ 0000000180200eb0     GuCookingConvexHullLib.obj
 0002:00009f10       ??_C@_0JE@PABBNGEL@ConvexHullLib?3?3cleanupVertices?3@ 0000000180200f10     GuCookingConvexHullLib.obj
 0002:00009fd0       ??_C@_0FI@LNEGPFNP@D?3?2Coding?2physx?2PhysX?2physx?2sou@ 0000000180200fd0     GuCookingConvexHullBuilder.obj
 0002:0000a030       ??_C@_0EB@DCEIFDGC@ConvexHullBuilder?3?3init?3?5convex@ 0000000180201030     GuCookingConvexHullBuilder.obj
 0002:0000a080       ??_C@_0FM@KICBLCBH@Gu?3?3ConvexMesh?3?3checkHullPolygo@ 0000000180201080     GuCookingConvexHullBuilder.obj
 0002:0000a0e0       ??_C@_0GO@HBFIOGLL@Gu?3?3ConvexMesh?3?3checkHullPolygo@ 00000001802010e0     GuCookingConvexHullBuilder.obj
 0002:0000a150       ??_C@_0HF@OLJFBIEL@ConvexHullBuilder?3?5convex?5hull?5@ 0000000180201150     GuCookingConvexHullBuilder.obj
 0002:0000a1d0       ??_C@_0OG@JNHFOIL@ConvexHullBuilder?3?5convex?5hull?5@ 00000001802011d0     GuCookingConvexHullBuilder.obj
 0002:0000a2c0       ??_C@_0EJ@NIOIBAKH@Cooking?3?3cookConvexMesh?3?5non?9ma@ 00000001802012c0     GuCookingConvexHullBuilder.obj
 0002:0000a330       ??_C@_0FL@EDELNKGB@D?3?2Coding?2physx?2PhysX?2physx?2sou@ 0000000180201330     GuCookingBigConvexDataBuilder.obj
 0002:0000a38c       __real@437f0000            000000018020138c     GuCookingSDF.obj
 0002:0000a390       __real@477fff00            0000000180201390     GuCookingSDF.obj
 0002:0000a3a0       __sz_PhysXFoundation_64_dll 00000001802013a0     PhysXFoundation_64:PhysXFoundation_64.dll
 0002:0000a3b8       ??_C@_1BK@DBDEIDLH@?$AAK?$AAE?$AAR?$AAN?$AAE?$AAL?$AA3?$AA2?$AA?4?$AAD?$AAL?$AAL@ 00000001802013b8     Delayimp:delayhlp.obj
 0002:0000a3d8       ??_C@_0BI@OMNLIJDB@AcquireSRWLockExclusive@ 00000001802013d8     Delayimp:delayhlp.obj
 0002:0000a3f0       ??_C@_0BI@HMIEPCNJ@ReleaseSRWLockExclusive@ 00000001802013f0     Delayimp:delayhlp.obj
 0002:0000a408       __pfnDliFailureHook2       0000000180201408     Delayimp:delayhk1.obj
 0002:0000a418       ??_7type_info@@6B@         0000000180201418     LIBCMT:std_type_info_static.obj
 0002:0000a480       _pRawDllMain               0000000180201480     LIBCMT:dll_dllmain.obj
 0002:0000a480       _pDefaultRawDllMain        0000000180201480     LIBCMT:dll_dllmain.obj
 0002:0000a490       _load_config_used          0000000180201490     LIBCMT:loadcfg.obj
 0002:0000a5c8       _pDestructExceptionObject  00000001802015c8     libvcruntime:ehhelpers.obj
 0002:0000acd0       ??_C@_08EHJDFFNH@__based?$CI@ 0000000180201cd0     libvcruntime:undname.obj
 0002:0000ace0       ??_C@_07KOLFKCDI@__cdecl@  0000000180201ce0     libvcruntime:undname.obj
 0002:0000ace8       ??_C@_08GHMPAG@__pascal@   0000000180201ce8     libvcruntime:undname.obj
 0002:0000acf8       ??_C@_09IFJBGAPI@__stdcall@ 0000000180201cf8     libvcruntime:undname.obj
 0002:0000ad08       ??_C@_0L@NPHFGOKO@__thiscall@ 0000000180201d08     libvcruntime:undname.obj
 0002:0000ad18       ??_C@_0L@JMKHOMEK@__fastcall@ 0000000180201d18     libvcruntime:undname.obj
 0002:0000ad28       ??_C@_0N@BCKKPABJ@__vectorcall@ 0000000180201d28     libvcruntime:undname.obj
 0002:0000ad38       ??_C@_09HIJEGCPM@__clrcall@ 0000000180201d38     libvcruntime:undname.obj
 0002:0000ad44       ??_C@_06GHPCKEAG@__eabi@   0000000180201d44     libvcruntime:undname.obj
 0002:0000ad50       ??_C@_09IOPIDJLG@__swift_1@ 0000000180201d50     libvcruntime:undname.obj
 0002:0000ad60       ??_C@_09KFNFGKHF@__swift_2@ 0000000180201d60     libvcruntime:undname.obj
 0002:0000ad70       ??_C@_07JOMMBBKO@__ptr64@  0000000180201d70     libvcruntime:undname.obj
 0002:0000ad78       ??_C@_0L@PILCLIHE@__restrict@ 0000000180201d78     libvcruntime:undname.obj
 0002:0000ad88       ??_C@_0M@GFIIJFMG@__unaligned@ 0000000180201d88     libvcruntime:undname.obj
 0002:0000ad98       ??_C@_09DHDLOLLB@restrict?$CI@ 0000000180201d98     libvcruntime:undname.obj
 0002:0000ada4       ??_C@_04NIHEBCM@?5new@     0000000180201da4     libvcruntime:undname.obj
 0002:0000adb0       ??_C@_07FPCDHGMM@?5delete@ 0000000180201db0     libvcruntime:undname.obj
 0002:0000adb8       ??_C@_01NEMOKFLO@?$DN@     0000000180201db8     libvcruntime:undname.obj
 0002:0000adbc       ??_C@_02GPIOPFAK@?$DO?$DO@ 0000000180201dbc     libvcruntime:undname.obj
 0002:0000adc0       ??_C@_02FODMEDOG@?$DM?$DM@ 0000000180201dc0     libvcruntime:undname.obj
 0002:0000adc4       ??_C@_01DCLJPIOD@?$CB@     0000000180201dc4     libvcruntime:undname.obj
 0002:0000adc8       ??_C@_02EGOFBIJA@?$DN?$DN@ 0000000180201dc8     libvcruntime:undname.obj
 0002:0000adcc       ??_C@_02FDNJECIE@?$CB?$DN@ 0000000180201dcc     libvcruntime:undname.obj
 0002:0000add0       ??_C@_02GPECMEKF@?$FL?$FN@ 0000000180201dd0     libvcruntime:undname.obj
 0002:0000add8       ??_C@_08LHJFAFGD@operator@ 0000000180201dd8     libvcruntime:undname.obj
 0002:0000ade4       ??_C@_02HBOOOICD@?9?$DO@   0000000180201de4     libvcruntime:undname.obj
 0002:0000ade8       ??_C@_01NBENCBCI@?$CK@     0000000180201de8     libvcruntime:undname.obj
 0002:0000adec       ??_C@_02ECNGHCIF@?$CL?$CL@ 0000000180201dec     libvcruntime:undname.obj
 0002:0000adf0       ??_C@_02BAABKJLB@?9?9@     0000000180201df0     libvcruntime:undname.obj
 0002:0000adf4       ??_C@_01JOAMLHOP@?9@       0000000180201df4     libvcruntime:undname.obj
 0002:0000adf8       ??_C@_01MIFGBAGJ@?$CL@     0000000180201df8     libvcruntime:undname.obj
 0002:0000adfc       ??_C@_01HNPIGOCE@?$CG@     0000000180201dfc     libvcruntime:undname.obj
 0002:0000ae00       ??_C@_03MNHNFDLC@?9?$DO?$CK@ 0000000180201e00     libvcruntime:undname.obj
 0002:0000ae04       ??_C@_01KMDKNFGN@?1@       0000000180201e04     libvcruntime:undname.obj
 0002:0000ae08       ??_C@_01FGNFDNOH@?$CF@     0000000180201e08     libvcruntime:undname.obj
 0002:0000ae0c       ??_C@_01MNNFJEPP@?$DM@     0000000180201e0c     libvcruntime:undname.obj
 0002:0000ae10       ??_C@_02EHCHHCKH@?$DM?$DN@ 0000000180201e10     libvcruntime:undname.obj
 0002:0000ae14       ??_C@_01PPODPGHN@?$DO@     0000000180201e14     libvcruntime:undname.obj
 0002:0000ae18       ??_C@_02EEKDKGMJ@?$DO?$DN@ 0000000180201e18     libvcruntime:undname.obj
 0002:0000ae1c       ??_C@_01IHBHIGKO@?0@       0000000180201e1c     libvcruntime:undname.obj
 0002:0000ae20       ??_C@_02HCKGKOFO@?$CI?$CJ@ 0000000180201e20     libvcruntime:undname.obj
 0002:0000ae24       ??_C@_01PJKLJHI@?$HO@      0000000180201e24     libvcruntime:undname.obj
 0002:0000ae28       ??_C@_01JKBOJNNK@?$FO@     0000000180201e28     libvcruntime:undname.obj
 0002:0000ae2c       ??_C@_01DNKMNLPK@?$HM@     0000000180201e2c     libvcruntime:undname.obj
 0002:0000ae30       ??_C@_02PPKAJPJL@?$CG?$CG@ 0000000180201e30     libvcruntime:undname.obj
 0002:0000ae34       ??_C@_02NONPIBCD@?$HM?$HM@ 0000000180201e34     libvcruntime:undname.obj
 0002:0000ae38       ??_C@_02FPIMKNGF@?$CK?$DN@ 0000000180201e38     libvcruntime:undname.obj
 0002:0000ae3c       ??_C@_02FOEOMHFC@?$CL?$DN@ 0000000180201e3c     libvcruntime:undname.obj
 0002:0000ae40       ??_C@_02FKMDLLOA@?9?$DN@   0000000180201e40     libvcruntime:undname.obj
 0002:0000ae44       ??_C@_02FJEHGPIO@?1?$DN@   0000000180201e44     libvcruntime:undname.obj
 0002:0000ae48       ??_C@_02FENAOKFI@?$CF?$DN@ 0000000180201e48     libvcruntime:undname.obj
 0002:0000ae4c       ??_C@_03IKFCCPFF@?$DO?$DO?$DN@ 0000000180201e4c     libvcruntime:undname.obj
 0002:0000ae50       ??_C@_03CDNPDDLA@?$DM?$DM?$DN@ 0000000180201e50     libvcruntime:undname.obj
 0002:0000ae54       ??_C@_02FGJGFEAB@?$CG?$DN@ 0000000180201e54     libvcruntime:undname.obj
 0002:0000ae58       ??_C@_02DHLNPPGH@?$HM?$DN@ 0000000180201e58     libvcruntime:undname.obj
 0002:0000ae5c       ??_C@_02MHEGNOJ@?$FO?$DN@  0000000180201e5c     libvcruntime:undname.obj
 0002:0000ae60       ??_C@_09IFPLHPGF@?$GAvftable?8@ 0000000180201e60     libvcruntime:undname.obj
 0002:0000ae70       ??_C@_09BLBHBJP@?$GAvbtable?8@ 0000000180201e70     libvcruntime:undname.obj
 0002:0000ae80       ??_C@_07FEEIOKP@?$GAvcall?8@ 0000000180201e80     libvcruntime:undname.obj
 0002:0000ae88       ??_C@_08LLFFHHDJ@?$GAtypeof?8@ 0000000180201e88     libvcruntime:undname.obj
 0002:0000ae98       ??_C@_0BF@KDPPACIK@?$GAlocal?5static?5guard?8@ 0000000180201e98     libvcruntime:undname.obj
 0002:0000aeb0       ??_C@_08OBABFOLI@?$GAstring?8@ 0000000180201eb0     libvcruntime:undname.obj
 0002:0000aec0       ??_C@_0BD@JDLKDPAB@?$GAvbase?5destructor?8@ 0000000180201ec0     libvcruntime:undname.obj
 0002:0000aed8       ??_C@_0BN@DEGPLNFK@?$GAvector?5deleting?5destructor?8@ 0000000180201ed8     libvcruntime:undname.obj
 0002:0000aef8       ??_C@_0BO@OBMKPJIG@?$GAdefault?5constructor?5closure?8@ 0000000180201ef8     libvcruntime:undname.obj
 0002:0000af18       ??_C@_0BN@IMDCHIKM@?$GAscalar?5deleting?5destructor?8@ 0000000180201f18     libvcruntime:undname.obj
 0002:0000af38       ??_C@_0BO@PFGOCPJJ@?$GAvector?5constructor?5iterator?8@ 0000000180201f38     libvcruntime:undname.obj
 0002:0000af58       ??_C@_0BN@LFPFMEDL@?$GAvector?5destructor?5iterator?8@ 0000000180201f58     libvcruntime:undname.obj
 0002:0000af78       ??_C@_0CE@IKBNEHA@?$GAvector?5vbase?5constructor?5itera@ 0000000180201f78     libvcruntime:undname.obj
 0002:0000afa0       ??_C@_0BL@NILFHHPC@?$GAvirtual?5displacement?5map?8@ 0000000180201fa0     libvcruntime:undname.obj
 0002:0000afc0       ??_C@_0CB@JONCMFFK@?$GAeh?5vector?5constructor?5iterator@ 0000000180201fc0     libvcruntime:undname.obj
 0002:0000afe8       ??_C@_0CA@GCEOPDGL@?$GAeh?5vector?5destructor?5iterator?8@ 0000000180201fe8     libvcruntime:undname.obj
 0002:0000b008       ??_C@_0CH@OOJPLCPH@?$GAeh?5vector?5vbase?5constructor?5it@ 0000000180202008     libvcruntime:undname.obj
 0002:0000b030       ??_C@_0BL@LLKPOHJI@?$GAcopy?5constructor?5closure?8@ 0000000180202030     libvcruntime:undname.obj
 0002:0000b050       ??_C@_0BA@KBCDOMBN@?$GAudt?5returning?8@ 0000000180202050     libvcruntime:undname.obj
 0002:0000b060       ??_C@_03KLGMFNMG@?$GAEH@   0000000180202060     libvcruntime:undname.obj
 0002:0000b064       ??_C@_05KHLCHHI@?$GARTTI@  0000000180202064     libvcruntime:undname.obj
 0002:0000b070       ??_C@_0BA@KKLDJDLB@?$GAlocal?5vftable?8@ 0000000180202070     libvcruntime:undname.obj
 0002:0000b080       ??_C@_0CE@IIHCMGGL@?$GAlocal?5vftable?5constructor?5clos@ 0000000180202080     libvcruntime:undname.obj
 0002:0000b0a4       ??_C@_06FHBGPFGH@?5new?$FL?$FN@ 00000001802020a4     libvcruntime:undname.obj
 0002:0000b0b0       ??_C@_09LBNFPBCA@?5delete?$FL?$FN@ 00000001802020b0     libvcruntime:undname.obj
 0002:0000b0c0       ??_C@_0P@HJKNJFNN@?$GAomni?5callsig?8@ 00000001802020c0     libvcruntime:undname.obj
 0002:0000b0d0       ??_C@_0BL@CNOONJFP@?$GAplacement?5delete?5closure?8@ 00000001802020d0     libvcruntime:undname.obj
 0002:0000b0f0       ??_C@_0BN@CKNJLHMB@?$GAplacement?5delete?$FL?$FN?5closure?8@ 00000001802020f0     libvcruntime:undname.obj
 0002:0000b110       ??_C@_0CG@CFDHKGGD@?$GAmanaged?5vector?5constructor?5ite@ 0000000180202110     libvcruntime:undname.obj
 0002:0000b138       ??_C@_0CF@IMGKMJNO@?$GAmanaged?5vector?5destructor?5iter@ 0000000180202138     libvcruntime:undname.obj
 0002:0000b160       ??_C@_0CG@HLDDJMAG@?$GAeh?5vector?5copy?5constructor?5ite@ 0000000180202160     libvcruntime:undname.obj
 0002:0000b188       ??_C@_0CM@FCBBDIGB@?$GAeh?5vector?5vbase?5copy?5construct@ 0000000180202188     libvcruntime:undname.obj
 0002:0000b1b8       ??_C@_0BL@CLIPGLGB@?$GAdynamic?5initializer?5for?5?8@ 00000001802021b8     libvcruntime:undname.obj
 0002:0000b1d8       ??_C@_0CB@PDBIFEP@?$GAdynamic?5atexit?5destructor?5for?5@ 00000001802021d8     libvcruntime:undname.obj
 0002:0000b200       ??_C@_0CD@CGAJBKEJ@?$GAvector?5copy?5constructor?5iterat@ 0000000180202200     libvcruntime:undname.obj
 0002:0000b228       ??_C@_0CJ@GJELGAMM@?$GAvector?5vbase?5copy?5constructor?5@ 0000000180202228     libvcruntime:undname.obj
 0002:0000b258       ??_C@_0CL@FGIJHLCE@?$GAmanaged?5vector?5copy?5constructo@ 0000000180202258     libvcruntime:undname.obj
 0002:0000b288       ??_C@_0BM@PMGGMLDN@?$GAlocal?5static?5thread?5guard?8@ 0000000180202288     libvcruntime:undname.obj
 0002:0000b2a8       ??_C@_0N@BDNMDMOL@operator?5?$CC?$CC?5@ 00000001802022a8     libvcruntime:undname.obj
 0002:0000b2b8       ??_C@_0BC@GGEBGALA@operator?5co_await@ 00000001802022b8     libvcruntime:undname.obj
 0002:0000b2d0       ??_C@_0M@GAAIMMOH@operator?$DM?$DN?$DO@ 00000001802022d0     libvcruntime:undname.obj
 0002:0000b2e0       ??_C@_0BC@DAFEJGAK@?5Type?5Descriptor?8@ 00000001802022e0     libvcruntime:undname.obj
 0002:0000b2f8       ??_C@_0BM@LDKODKLH@?5Base?5Class?5Descriptor?5at?5?$CI@ 00000001802022f8     libvcruntime:undname.obj
 0002:0000b318       ??_C@_0BD@LGICGFMM@?5Base?5Class?5Array?8@ 0000000180202318     libvcruntime:undname.obj
 0002:0000b330       ??_C@_0BN@MECKDCOJ@?5Class?5Hierarchy?5Descriptor?8@ 0000000180202330     libvcruntime:undname.obj
 0002:0000b350       ??_C@_0BK@CFCOFLF@?5Complete?5Object?5Locator?8@ 0000000180202350     libvcruntime:undname.obj
 0002:0000b370       ??_C@_0BG@JNJLAMPM@?$GAanonymous?5namespace?8@ 0000000180202370     libvcruntime:undname.obj
 0002:0000b388       ??_C@_04HEJADOOB@CV?3?5@   0000000180202388     libvcruntime:undname.obj
 0002:0000b390       ??_C@_02MOLJINC@?3?3@      0000000180202390     libvcruntime:undname.obj
 0002:0000b398       ??_C@_0BE@JAEOCHPE@template?9parameter?9@ 0000000180202398     libvcruntime:undname.obj
 0002:0000b3b0       ??_C@_0BF@LNLGBBNL@?$GAtemplate?9parameter?9@ 00000001802023b0     libvcruntime:undname.obj
 0002:0000b3c8       ??_C@_0O@KHGCOMHP@generic?9type?9@ 00000001802023c8     libvcruntime:undname.obj
 0002:0000b3d8       ??_C@_0P@ODDENDLM@?$GAgeneric?9type?9@ 00000001802023d8     libvcruntime:undname.obj
 0002:0000b3e8       ??_C@_02OHHJMEON@?8?8@     00000001802023e8     libvcruntime:undname.obj
 0002:0000b3f0       ??_C@_0BN@IBLMMFAP@?$GAnon?9type?9template?9parameter@ 00000001802023f0     libvcruntime:undname.obj
 0002:0000b410       ??_C@_03DLDNIBIK@?$CFlf@   0000000180202410     libvcruntime:undname.obj
 0002:0000b414       ??_C@_04OFALKAJ@?$DP?$DP_C@ 0000000180202414     libvcruntime:undname.obj
 0002:0000b41c       ??_C@_03KHICJKCI@?4?4?4@   000000018020241c     libvcruntime:undname.obj
 0002:0000b420       ??_C@_04HIBGFPH@NULL@      0000000180202420     libvcruntime:undname.obj
 0002:0000b428       ??_C@_02DPKJAMEF@?$CFd@    0000000180202428     libvcruntime:undname.obj
 0002:0000b430       ??_C@_0BK@IHCCFNEL@?$GAtemplate?9type?9parameter?9@ 0000000180202430     libvcruntime:undname.obj
 0002:0000b450       ??_C@_0BK@OFCNNNKO@?$GAgeneric?9class?9parameter?9@ 0000000180202450     libvcruntime:undname.obj
 0002:0000b470       ??_C@_0BL@NGJBLFIL@?$GAgeneric?9method?9parameter?9@ 0000000180202470     libvcruntime:undname.obj
 0002:0000b490       ??_C@_07OHNGEDJK@nullptr@  0000000180202490     libvcruntime:undname.obj
 0002:0000b498       ??_C@_04GKJNKENE@void@     0000000180202498     libvcruntime:undname.obj
 0002:0000b4a0       ??_C@_0BE@EODMJLIF@?$GAtemplate?9parameter@ 00000001802024a0     libvcruntime:undname.obj
 0002:0000b4b4       ??_C@_03OPGICMGF@?$HN?8?5@ 00000001802024b4     libvcruntime:undname.obj
 0002:0000b4b8       ??_C@_02IGFCGPIL@?$HN?8@   00000001802024b8     libvcruntime:undname.obj
 0002:0000b4c0       ??_C@_0N@CBHHHENL@?$GAvtordispex?$HL@ 00000001802024c0     libvcruntime:undname.obj
 0002:0000b4d0       ??_C@_0L@GHPFDFH@?$GAvtordisp?$HL@ 00000001802024d0     libvcruntime:undname.obj
 0002:0000b4e0       ??_C@_0L@HNGCOGAE@?$GAadjustor?$HL@ 00000001802024e0     libvcruntime:undname.obj
 0002:0000b4f0       ??_C@_0CB@KJDOOODE@?$GAlocal?5static?5destructor?5helper@ 00000001802024f0     libvcruntime:undname.obj
 0002:0000b518       ??_C@_0DB@ILEFOCIJ@?$GAtemplate?5static?5data?5member?5co@ 0000000180202518     libvcruntime:undname.obj
 0002:0000b550       ??_C@_0DA@HGFJFBBE@?$GAtemplate?5static?5data?5member?5de@ 0000000180202550     libvcruntime:undname.obj
 0002:0000b580       ??_C@_07PGOEDBHP@static?5@ 0000000180202580     libvcruntime:undname.obj
 0002:0000b588       ??_C@_08NIEOINHE@virtual?5@ 0000000180202588     libvcruntime:undname.obj
 0002:0000b598       ??_C@_09LAPHOOG@private?3?5@ 0000000180202598     libvcruntime:undname.obj
 0002:0000b5a8       ??_C@_0M@GAIFPFIP@protected?3?5@ 00000001802025a8     libvcruntime:undname.obj
 0002:0000b5b8       ??_C@_08GPDDCMKI@public?3?5@ 00000001802025b8     libvcruntime:undname.obj
 0002:0000b5c8       ??_C@_08KJLFOPNE@?$FLthunk?$FN?3@ 00000001802025c8     libvcruntime:undname.obj
 0002:0000b5d8       ??_C@_0M@DHNBOJMP@extern?5?$CCC?$CC?5@ 00000001802025d8     libvcruntime:undname.obj
 0002:0000b5e4       ??_C@_02KCKGHPCA@?$CJ?5@   00000001802025e4     libvcruntime:undname.obj
 0002:0000b5e8       ??_C@_05CIHEBHNO@char?5@   00000001802025e8     libvcruntime:undname.obj
 0002:0000b5f0       ??_C@_06EHJMALKF@short?5@  00000001802025f0     libvcruntime:undname.obj
 0002:0000b5f8       ??_C@_04LAHKHJMA@int?5@    00000001802025f8     libvcruntime:undname.obj
 0002:0000b600       ??_C@_05CJIMAING@long?5@   0000000180202600     libvcruntime:undname.obj
 0002:0000b608       ??_C@_09EBBEKKIH@unsigned?5@ 0000000180202608     libvcruntime:undname.obj
 0002:0000b614       ??_C@_05BEFAKPML@void?5@   0000000180202614     libvcruntime:undname.obj
 0002:0000b620       ??_C@_09GAIEOBLP@volatile?5@ 0000000180202620     libvcruntime:undname.obj
 0002:0000b630       ??_C@_08PABEKFH@volatile@  0000000180202630     libvcruntime:undname.obj
 0002:0000b640       ??_C@_0BA@LKIJLKPP@std?3?3nullptr_t?5@ 0000000180202640     libvcruntime:undname.obj
 0002:0000b650       ??_C@_0P@GCOCNKDM@std?3?3nullptr_t@ 0000000180202650     libvcruntime:undname.obj
 0002:0000b660       ??_C@_0L@EGPHHEKN@?$DMellipsis?$DO@ 0000000180202660     libvcruntime:undname.obj
 0002:0000b66c       ??_C@_04EENFHACM@?0?4?4?4@ 000000018020266c     libvcruntime:undname.obj
 0002:0000b678       ??_C@_0M@ELJOJFFH@?0?$DMellipsis?$DO@ 0000000180202678     libvcruntime:undname.obj
 0002:0000b688       ??_C@_09DNHFEOJI@?5noexcept@ 0000000180202688     libvcruntime:undname.obj
 0002:0000b694       ??_C@_03PBJBJNON@cpu@      0000000180202694     libvcruntime:undname.obj
 0002:0000b698       ??_C@_03DCBBJBAA@amp@      0000000180202698     libvcruntime:undname.obj
 0002:0000b69c       ??_C@_02KEGNLNML@?0?5@     000000018020269c     libvcruntime:undname.obj
 0002:0000b6a0       ??_C@_04ENMBGAPA@char@     00000001802026a0     libvcruntime:undname.obj
 0002:0000b6a8       ??_C@_05BFKKPKCG@short@    00000001802026a8     libvcruntime:undname.obj
 0002:0000b6b0       ??_C@_03JBIPMCLC@int@      00000001802026b0     libvcruntime:undname.obj
 0002:0000b6b4       ??_C@_04GOKPGOLB@long@     00000001802026b4     libvcruntime:undname.obj
 0002:0000b6bc       ??_C@_05KNFBNCOH@float@    00000001802026bc     libvcruntime:undname.obj
 0002:0000b6c4       ??_C@_06BNJCAIGJ@double@   00000001802026c4     libvcruntime:undname.obj
 0002:0000b6cc       ??_C@_04DDKJGDCM@bool@     00000001802026cc     libvcruntime:undname.obj
 0002:0000b6d4       ??_C@_06EBGKOKIG@__int8@   00000001802026d4     libvcruntime:undname.obj
 0002:0000b6e0       ??_C@_07ICFHOGAF@__int16@  00000001802026e0     libvcruntime:undname.obj
 0002:0000b6e8       ??_C@_07OFLPPHGP@__int32@  00000001802026e8     libvcruntime:undname.obj
 0002:0000b6f0       ??_C@_07LFCOJCAC@__int64@  00000001802026f0     libvcruntime:undname.obj
 0002:0000b6f8       ??_C@_08GAHOLHEO@__int128@ 00000001802026f8     libvcruntime:undname.obj
 0002:0000b708       ??_C@_09EEKGDCPH@?$DMunknown?$DO@ 0000000180202708     libvcruntime:undname.obj
 0002:0000b718       ??_C@_07CFHGOPCN@char8_t@  0000000180202718     libvcruntime:undname.obj
 0002:0000b720       ??_C@_08HBIPOFJB@char16_t@ 0000000180202720     libvcruntime:undname.obj
 0002:0000b730       ??_C@_08IECNCBKG@char32_t@ 0000000180202730     libvcruntime:undname.obj
 0002:0000b740       ??_C@_07CLGGIAMF@wchar_t@  0000000180202740     libvcruntime:undname.obj
 0002:0000b748       ??_C@_04HAPDLBFF@auto@     0000000180202748     libvcruntime:undname.obj
 0002:0000b750       ??_C@_0P@LHCGKIGK@decltype?$CIauto?$CJ@ 0000000180202750     libvcruntime:undname.obj
 0002:0000b760       ??_C@_06GCICPBLB@__w64?5@  0000000180202760     libvcruntime:undname.obj
 0002:0000b768       ??_C@_07NFANNNEC@UNKNOWN@  0000000180202768     libvcruntime:undname.obj
 0002:0000b770       ??_C@_07EDHNAJHC@signed?5@ 0000000180202770     libvcruntime:undname.obj
 0002:0000b778       ??_C@_05BNCCCJPP@const@    0000000180202778     libvcruntime:undname.obj
 0002:0000b780       ??_C@_09EFNPDFFP@?5volatile@ 0000000180202780     libvcruntime:undname.obj
 0002:0000b790       ??_C@_0P@GCIFDJCJ@?$GAunknown?5ecsu?8@ 0000000180202790     libvcruntime:undname.obj
 0002:0000b7a0       ??_C@_06MOJHIBMG@union?5@  00000001802027a0     libvcruntime:undname.obj
 0002:0000b7a8       ??_C@_07DIBCDNGL@struct?5@ 00000001802027a8     libvcruntime:undname.obj
 0002:0000b7b0       ??_C@_06LJBABKPM@class?5@  00000001802027b0     libvcruntime:undname.obj
 0002:0000b7b8       ??_C@_08KOFANOFK@coclass?5@ 00000001802027b8     libvcruntime:undname.obj
 0002:0000b7c8       ??_C@_0N@DLIEFKNA@cointerface?5@ 00000001802027c8     libvcruntime:undname.obj
 0002:0000b7d8       ??_C@_05LJGMCFOG@enum?5@   00000001802027d8     libvcruntime:undname.obj
 0002:0000b7e0       ??_C@_06LIJLOJAG@const?5@  00000001802027e0     libvcruntime:undname.obj
 0002:0000b7e8       ??_C@_02KJPKDIBN@?$CG?5@   00000001802027e8     libvcruntime:undname.obj
 0002:0000b7ec       ??_C@_03PCKGMOPB@?$CG?$CG?5@ 00000001802027ec     libvcruntime:undname.obj
 0002:0000b7f0       ??_C@_0M@EALIELKG@cli?3?3array?$DM@ 00000001802027f0     libvcruntime:undname.obj
 0002:0000b800       ??_C@_0O@GKABPPIF@cli?3?3pin_ptr?$DM@ 0000000180202800     libvcruntime:undname.obj
 0002:0000b810       ??_C@_02GOGNNPBN@?$CJ?$FL@ 0000000180202810     libvcruntime:undname.obj
 0002:0000b814       ??_C@_06EEGAIFAK@?$HLflat?$HN@ 0000000180202814     libvcruntime:undname.obj
 0002:0000b81c       ??_C@_05JIBOFOHK@?$HLfor?5@ 000000018020281c     libvcruntime:undname.obj
 0002:0000b824       ??_C@_02MDINNEEG@s?5@      0000000180202824     libvcruntime:undname.obj
 0002:0000b830       ??_7charNode@@6B@          0000000180202830     libvcruntime:undname.obj
 0002:0000b858       ??_7pcharNode@@6B@         0000000180202858     libvcruntime:undname.obj
 0002:0000b880       ??_7pDNameNode@@6B@        0000000180202880     libvcruntime:undname.obj
 0002:0000b8a8       ??_7DNameStatusNode@@6B@   00000001802028a8     libvcruntime:undname.obj
 0002:0000b8d0       ??_7pairNode@@6B@          00000001802028d0     libvcruntime:undname.obj
 0002:0000b9f0       ??_C@_04OKOHEJBO@?5?$DP?$DP?5@ 00000001802029f0     libvcruntime:undname.obj
 0002:0000ba00       ?nodes@?1??make@DNameStatusNode@@SAPEBV2@W4DNameStatus@@@Z@4QBV2@B 0000000180202a00     libvcruntime:undname.obj
 0002:0000ba40       ?s_negLengthTab@FH4@@3QBCB 0000000180202a40     libvcruntime:risctrnsctrl.obj
 0002:0000ba50       ?s_shiftTab@FH4@@3QBEB     0000000180202a50     libvcruntime:risctrnsctrl.obj
 0002:0000bb10       ??_C@_1DM@KHCHBNEB@?$AAa?$AAp?$AAi?$AA?9?$AAm?$AAs?$AA?9?$AAw?$AAi?$AAn?$AA?9?$AAc?$AAo?$AAr?$AAe@ 0000000180202b10     libvcruntime:winapi_downlevel.obj
 0002:0000bb50       ??_C@_1DK@LPPGFMPP@?$AAa?$AAp?$AAi?$AA?9?$AAm?$AAs?$AA?9?$AAw?$AAi?$AAn?$AA?9?$AAc?$AAo?$AAr?$AAe@ 0000000180202b50     libvcruntime:winapi_downlevel.obj
 0002:0000bb90       ??_C@_1BC@GDMECMAK@?$AAk?$AAe?$AAr?$AAn?$AAe?$AAl?$AA3?$AA2@ 0000000180202b90     libvcruntime:winapi_downlevel.obj
 0002:0000bba8       ??_C@_1BA@PFFKHIOG@?$AAa?$AAp?$AAi?$AA?9?$AAm?$AAs?$AA?9@ 0000000180202ba8     libvcruntime:winapi_downlevel.obj
 0002:0000bbc0       ??_C@_08KNHFBNJ@FlsAlloc@  0000000180202bc0     libvcruntime:winapi_downlevel.obj
 0002:0000bbd8       ??_C@_07PEJMOBNF@FlsFree@  0000000180202bd8     libvcruntime:winapi_downlevel.obj
 0002:0000bbe8       ??_C@_0M@GDNOONDI@FlsGetValue@ 0000000180202be8     libvcruntime:winapi_downlevel.obj
 0002:0000bc00       ??_C@_0M@JCPCPOEF@FlsSetValue@ 0000000180202c00     libvcruntime:winapi_downlevel.obj
 0002:0000bc18       ??_C@_0BM@HCFOFFN@InitializeCriticalSectionEx@ 0000000180202c18     libvcruntime:winapi_downlevel.obj
 0002:0000bc40       ??_7exception@std@@6B@     0000000180202c40     libvcruntime:frame.obj
 0002:0000bc50       ??_C@_0BC@EOODALEL@Unknown?5exception@ 0000000180202c50     libvcruntime:frame.obj
 0002:0000bc70       ??_7bad_exception@std@@6B@ 0000000180202c70     libvcruntime:frame.obj
 0002:0000bc80       ??_C@_0O@DPKOEFFH@bad?5exception@ 0000000180202c80     libvcruntime:frame.obj
 0002:0000bfd0       standard_lookup_table      0000000180202fd0     libucrt:output.obj
 0002:0000c030       format_validation_lookup_table 0000000180203030     libucrt:output.obj
 0002:0000c090       ??_C@_1O@CEDCILHN@?$AA?$CI?$AAn?$AAu?$AAl?$AAl?$AA?$CJ@ 0000000180203090     libucrt:output.obj
 0002:0000c0a0       ??_C@_06OJHGLDPL@?$CInull?$CJ@ 00000001802030a0     libucrt:output.obj
 0002:0000c0a8       ??_C@_05FFFCHCED@acosf@    00000001802030a8     libucrt:acosf.obj
 0002:0000c0b0       __real@3b81ce6b            00000001802030b0     libucrt:acosf.obj
 0002:0000c0b8       __real@3c91a62633145c07    00000001802030b8     libucrt:acosf.obj
 0002:0000c0c0       __real@3d678bdd            00000001802030c0     libucrt:acosf.obj
 0002:0000c0c4       __real@3e3c94dc            00000001802030c4     libucrt:acosf.obj
 0002:0000c0c8       __real@3f561f0d            00000001802030c8     libucrt:acosf.obj
 0002:0000c0cc       __real@3f8d6fa5            00000001802030cc     libucrt:acosf.obj
 0002:0000c0d0       __real@3ff921fb54442d18    00000001802030d0     libucrt:acosf.obj
 0002:0000c0d8       __real@400921fb54442d18    00000001802030d8     libucrt:acosf.obj
 0002:0000c0e0       __real@bc5b3fe1            00000001802030e0     libucrt:acosf.obj
 0002:0000d178       __real@3f1a36e2eb1c432d    0000000180204178     libucrt:atan2f.obj
 0002:0000d180       __real@3fb0000000000000    0000000180204180     libucrt:atan2f.obj
 0002:0000d188       __real@3fc2492482bd6be1    0000000180204188     libucrt:atan2f.obj
 0002:0000d190       __real@3fc99999999643a3    0000000180204190     libucrt:atan2f.obj
 0002:0000d198       __real@3fd5555555550877    0000000180204198     libucrt:atan2f.obj
 0002:0000d1a0       __real@3fd5555555555538    00000001802041a0     libucrt:atan2f.obj
 0002:0000d1a8       __real@4070000000000000    00000001802041a8     libucrt:atan2f.obj
 0002:0000d1b0       __real@bf490fdb            00000001802041b0     libucrt:atan2f.obj
 0002:0000d1b4       __real@bfc90fdb            00000001802041b4     libucrt:atan2f.obj
 0002:0000d1b8       __real@c016cbe4            00000001802041b8     libucrt:atan2f.obj
 0002:0000d1bc       __real@c0490fdb            00000001802041bc     libucrt:atan2f.obj
 0002:0000d1c0       __acrt_exception_action_table 00000001802041c0     libucrt:exception_filter.obj
 0002:0000d280       __acrt_signal_action_table_count 0000000180204280     libucrt:exception_filter.obj
 0002:0000d288       __acrt_signal_action_first_fpe_index 0000000180204288     libucrt:exception_filter.obj
 0002:0000d290       __acrt_signal_action_fpe_count 0000000180204290     libucrt:exception_filter.obj
 0002:0000d298       ??_C@_1BI@BGOHAHKC@?$AAm?$AAs?$AAc?$AAo?$AAr?$AAe?$AAe?$AA?4?$AAd?$AAl?$AAl@ 0000000180204298     libucrt:exit.obj
 0002:0000d2b0       ??_C@_0P@MIGLKIOC@CorExitProcess@ 00000001802042b0     libucrt:exit.obj
 0002:0000d530       ??_C@_04LAGPAAHP@sinf@     0000000180204530     libucrt:sincos_special.obj
 0002:0000d538       ??_C@_04OBBKPIAC@cosf@     0000000180204538     libucrt:sincos_special.obj
 0002:0000d540       ??_C@_04MHPLPEIA@tanf@     0000000180204540     libucrt:sincos_special.obj
 0002:0000d550       __Lcosfarray               0000000180204550     libucrt:lsincosf_array.obj
 0002:0000d580       __Lsinfarray               0000000180204580     libucrt:lsincosf_array.obj
 0002:0000d5a0       __L_2_by_pi_bits           00000001802045a0     libucrt:l2_by_pi_bits.obj
 0002:0000d900       ??_C@_1EA@JGEFHKEI@?$AAa?$AAp?$AAi?$AA?9?$AAm?$AAs?$AA?9?$AAw?$AAi?$AAn?$AA?9?$AAc?$AAo?$AAr?$AAe@ 0000000180204900     libucrt:winapi_thunks.obj
 0002:0000d940       ??_C@_1DI@IJCEHOCB@?$AAa?$AAp?$AAi?$AA?9?$AAm?$AAs?$AA?9?$AAw?$AAi?$AAn?$AA?9?$AAc?$AAo?$AAr?$AAe@ 0000000180204940     libucrt:winapi_thunks.obj
 0002:0000d980       ??_C@_1EI@MPIAOHOC@?$AAa?$AAp?$AAi?$AA?9?$AAm?$AAs?$AA?9?$AAw?$AAi?$AAn?$AA?9?$AAc?$AAo?$AAr?$AAe@ 0000000180204980     libucrt:winapi_thunks.obj
 0002:0000d9d0       ??_C@_1FK@FPHCKFIE@?$AAa?$AAp?$AAi?$AA?9?$AAm?$AAs?$AA?9?$AAw?$AAi?$AAn?$AA?9?$AAc?$AAo?$AAr?$AAe@ 00000001802049d0     libucrt:winapi_thunks.obj
 0002:0000da30       ??_C@_1EM@DILCGIIO@?$AAa?$AAp?$AAi?$AA?9?$AAm?$AAs?$AA?9?$AAw?$AAi?$AAn?$AA?9?$AAc?$AAo?$AAr?$AAe@ 0000000180204a30     libucrt:winapi_thunks.obj
 0002:0000da80       ??_C@_1DM@LNCGDDPN@?$AAa?$AAp?$AAi?$AA?9?$AAm?$AAs?$AA?9?$AAw?$AAi?$AAn?$AA?9?$AAc?$AAo?$AAr?$AAe@ 0000000180204a80     libucrt:winapi_thunks.obj
 0002:0000dac0       ??_C@_1DO@FPAPJEMD@?$AAa?$AAp?$AAi?$AA?9?$AAm?$AAs?$AA?9?$AAw?$AAi?$AAn?$AA?9?$AAc?$AAo?$AAr?$AAe@ 0000000180204ac0     libucrt:winapi_thunks.obj
 0002:0000db00       ??_C@_1DK@NDHNAHIO@?$AAa?$AAp?$AAi?$AA?9?$AAm?$AAs?$AA?9?$AAw?$AAi?$AAn?$AA?9?$AAc?$AAo?$AAr?$AAe@ 0000000180204b00     libucrt:winapi_thunks.obj
 0002:0000db40       ??_C@_1DM@KGHDGBCM@?$AAa?$AAp?$AAi?$AA?9?$AAm?$AAs?$AA?9?$AAw?$AAi?$AAn?$AA?9?$AAc?$AAo?$AAr?$AAe@ 0000000180204b40     libucrt:winapi_thunks.obj
 0002:0000db80       ??_C@_1EO@IJIOEFOH@?$AAa?$AAp?$AAi?$AA?9?$AAm?$AAs?$AA?9?$AAw?$AAi?$AAn?$AA?9?$AAr?$AAt?$AAc?$AAo@ 0000000180204b80     libucrt:winapi_thunks.obj
 0002:0000dbd0       ??_C@_1FG@HHGEKANL@?$AAa?$AAp?$AAi?$AA?9?$AAm?$AAs?$AA?9?$AAw?$AAi?$AAn?$AA?9?$AAs?$AAe?$AAc?$AAu@ 0000000180204bd0     libucrt:winapi_thunks.obj
 0002:0000dc30       ??_C@_1EG@DBIOJECG@?$AAe?$AAx?$AAt?$AA?9?$AAm?$AAs?$AA?9?$AAw?$AAi?$AAn?$AA?9?$AAn?$AAt?$AAu?$AAs@ 0000000180204c30     libucrt:winapi_thunks.obj
 0002:0000dc80       ??_C@_1EO@FIHMJCLF@?$AAe?$AAx?$AAt?$AA?9?$AAm?$AAs?$AA?9?$AAw?$AAi?$AAn?$AA?9?$AAn?$AAt?$AAu?$AAs@ 0000000180204c80     libucrt:winapi_thunks.obj
 0002:0000dcd0       ??_C@_1BC@DNHGCMLG@?$AAa?$AAd?$AAv?$AAa?$AAp?$AAi?$AA3?$AA2@ 0000000180204cd0     libucrt:winapi_thunks.obj
 0002:0000dce8       ??_C@_1M@OAIMIKLP@?$AAn?$AAt?$AAd?$AAl?$AAl@ 0000000180204ce8     libucrt:winapi_thunks.obj
 0002:0000dd00       ??_C@_1EG@DPGNFKGC@?$AAa?$AAp?$AAi?$AA?9?$AAm?$AAs?$AA?9?$AAw?$AAi?$AAn?$AA?9?$AAa?$AAp?$AAp?$AAm@ 0000000180204d00     libucrt:winapi_thunks.obj
 0002:0000dd48       ??_C@_1O@BCCLBEOE@?$AAu?$AAs?$AAe?$AAr?$AA3?$AA2@ 0000000180204d48     libucrt:winapi_thunks.obj
 0002:0000dd58       ??_C@_1BA@IAIFMGEF@?$AAe?$AAx?$AAt?$AA?9?$AAm?$AAs?$AA?9@ 0000000180204d58     libucrt:winapi_thunks.obj
 0002:0000dd70       ??_C@_0BA@FHFNEAED@AreFileApisANSI@ 0000000180204d70     libucrt:winapi_thunks.obj
 0002:0000ddb0       ??_C@_0O@KKBNKAPF@LCMapStringEx@ 0000000180204db0     libucrt:winapi_thunks.obj
 0002:0000ddc8       ??_C@_0BB@HBDEELFH@LocaleNameToLCID@ 0000000180204dc8     libucrt:winapi_thunks.obj
 0002:0000dde0       ??_C@_0CF@OJOFEIGO@AppPolicyGetProcessTerminationM@ 0000000180204de0     libucrt:winapi_thunks.obj
 0002:0000de90       ??_C@_03OEIAHPBN@INF@      0000000180204e90     libucrt:cvt.obj
 0002:0000de94       ??_C@_03OJHLLCGB@inf@      0000000180204e94     libucrt:cvt.obj
 0002:0000de98       ??_C@_03LKNCIKJB@NAN@      0000000180204e98     libucrt:cvt.obj
 0002:0000de9c       ??_C@_03LHCJEHON@nan@      0000000180204e9c     libucrt:cvt.obj
 0002:0000dea0       ??_C@_09OFJJIMPC@NAN?$CISNAN?$CJ@ 0000000180204ea0     libucrt:cvt.obj
 0002:0000deb0       ??_C@_09IPFBKMDL@nan?$CIsnan?$CJ@ 0000000180204eb0     libucrt:cvt.obj
 0002:0000dec0       ??_C@_08IKHNHAJ@NAN?$CIIND?$CJ@ 0000000180204ec0     libucrt:cvt.obj
 0002:0000ded0       ??_C@_08OFCDMILK@nan?$CIind?$CJ@ 0000000180204ed0     libucrt:cvt.obj
 0002:0000dedc       ??_C@_05KLBDPFGC@e?$CL000@ 0000000180204edc     libucrt:cvt.obj
 0002:0000def0       __lc_time_c                0000000180204ef0     libucrt:nlsdata.obj
 0002:0000e1b0       ??_C@_03KOEHGMDN@Sun@      00000001802051b0     libucrt:nlsdata.obj
 0002:0000e1b4       ??_C@_03PDAGKDH@Mon@       00000001802051b4     libucrt:nlsdata.obj
 0002:0000e1b8       ??_C@_03NAGEINEP@Tue@      00000001802051b8     libucrt:nlsdata.obj
 0002:0000e1bc       ??_C@_03MHOMLAJA@Wed@      00000001802051bc     libucrt:nlsdata.obj
 0002:0000e1c0       ??_C@_03IOFIKPDN@Thu@      00000001802051c0     libucrt:nlsdata.obj
 0002:0000e1c4       ??_C@_03IDIOELNC@Fri@      00000001802051c4     libucrt:nlsdata.obj
 0002:0000e1c8       ??_C@_03FEFJNEK@Sat@       00000001802051c8     libucrt:nlsdata.obj
 0002:0000e1cc       ??_C@_06OOPIFAJ@Sunday@    00000001802051cc     libucrt:nlsdata.obj
 0002:0000e1d4       ??_C@_06JLEDEDGH@Monday@   00000001802051d4     libucrt:nlsdata.obj
 0002:0000e1e0       ??_C@_07BAAGCFCM@Tuesday@  00000001802051e0     libucrt:nlsdata.obj
 0002:0000e1e8       ??_C@_09DLIGFAKA@Wednesday@ 00000001802051e8     libucrt:nlsdata.obj
 0002:0000e1f8       ??_C@_08HACCIKIA@Thursday@ 00000001802051f8     libucrt:nlsdata.obj
 0002:0000e204       ??_C@_06JECMNKMI@Friday@   0000000180205204     libucrt:nlsdata.obj
 0002:0000e210       ??_C@_08INBOOONO@Saturday@ 0000000180205210     libucrt:nlsdata.obj
 0002:0000e21c       ??_C@_03JIHJHPIE@Jan@      000000018020521c     libucrt:nlsdata.obj
 0002:0000e220       ??_C@_03HJBDCHOM@Feb@      0000000180205220     libucrt:nlsdata.obj
 0002:0000e224       ??_C@_03ODNJBKGA@Mar@      0000000180205224     libucrt:nlsdata.obj
 0002:0000e228       ??_C@_03LEOLGMJP@Apr@      0000000180205228     libucrt:nlsdata.obj
 0002:0000e22c       ??_C@_03CNMDKL@May@        000000018020522c     libucrt:nlsdata.obj
 0002:0000e230       ??_C@_03IDFGHECI@Jun@      0000000180205230     libucrt:nlsdata.obj
 0002:0000e234       ??_C@_03LBGABGKK@Jul@      0000000180205234     libucrt:nlsdata.obj
 0002:0000e238       ??_C@_03IFJFEIGA@Aug@      0000000180205238     libucrt:nlsdata.obj
 0002:0000e23c       ??_C@_03GGCAPAJC@Sep@      000000018020523c     libucrt:nlsdata.obj
 0002:0000e240       ??_C@_03BMAOKBAD@Oct@      0000000180205240     libucrt:nlsdata.obj
 0002:0000e244       ??_C@_03JPJOFNIA@Nov@      0000000180205244     libucrt:nlsdata.obj
 0002:0000e248       ??_C@_03MKABNOCG@Dec@      0000000180205248     libucrt:nlsdata.obj
 0002:0000e250       ??_C@_07CGJPFGJA@January@  0000000180205250     libucrt:nlsdata.obj
 0002:0000e258       ??_C@_08GNJGEPFN@February@ 0000000180205258     libucrt:nlsdata.obj
 0002:0000e264       ??_C@_05HPCKOFNC@March@    0000000180205264     libucrt:nlsdata.obj
 0002:0000e26c       ??_C@_05DMJDNLEJ@April@    000000018020526c     libucrt:nlsdata.obj
 0002:0000e274       ??_C@_04CNLMGBGM@June@     0000000180205274     libucrt:nlsdata.obj
